 MotionObjectDetector_sfun

 Timestamp is 5dd526ef (Wed Nov 20 11:43:43 2019)

 Preferred load address is 0000000180000000

 Start         Length     Name                   Class
 0001:00000000 00000540H .text$di                CODE
 0001:00000540 00048100H .text$mn                CODE
 0001:00048640 00000020H .text$mn$00             CODE
 0001:00048660 00000f20H .text$x                 CODE
 0001:00049580 00000375H .text$yd                CODE
 0002:00000000 000007e8H .idata$5                DATA
 0002:000007e8 00000010H .00cfg                  DATA
 0002:000007f8 00000008H .CRT$XCA                DATA
 0002:00000800 00000050H .CRT$XCU                DATA
 0002:00000850 00000008H .CRT$XCZ                DATA
 0002:00000858 00000008H .CRT$XIA                DATA
 0002:00000860 00000008H .CRT$XIZ                DATA
 0002:00000868 00000008H .CRT$XPA                DATA
 0002:00000870 00000008H .CRT$XPZ                DATA
 0002:00000878 00000008H .CRT$XTA                DATA
 0002:00000880 00000010H .CRT$XTZ                DATA
 0002:00000888 00000000H .gfids$y                DATA
 0002:00000890 000074a0H .rdata                  DATA
 0002:00007d30 000010f4H .rdata$r                DATA
 0002:00008e24 0000028cH .rdata$zzzdbg           DATA
 0002:000090b0 00000008H .rtc$IAA                DATA
 0002:000090b8 00000008H .rtc$IZZ                DATA
 0002:000090c0 00000008H .rtc$TAA                DATA
 0002:000090c8 00000008H .rtc$TZZ                DATA
 0002:000090d0 000034c0H .xdata                  DATA
 0002:0000c590 000000f0H .xdata$x                DATA
 0002:0000c680 000001fcH .edata                  DATA
 0002:0000c87c 000001a4H .idata$2                DATA
 0002:0000ca20 00000018H .idata$3                DATA
 0002:0000ca38 000007e8H .idata$4                DATA
 0002:0000d220 00001e52H .idata$6                DATA
 0003:00000000 00009f00H .data                   DATA
 0003:00009f00 000009b0H .data$r                 DATA
 0003:0000a8b0 00000cd0H .bss                    DATA
 0004:00000000 00002e68H .pdata                  DATA

  Address         Publics by Value              Rva+Base               Lib:Object

 0000:00000000       __guard_iat_count          0000000000000000     <absolute>
 0000:00000000       __guard_iat_table          0000000000000000     <absolute>
 0000:00000000       __guard_fids_table         0000000000000000     <absolute>
 0000:00000000       ___safe_se_handler_count   0000000000000000     <absolute>
 0000:00000000       __guard_longjmp_table      0000000000000000     <absolute>
 0000:00000000       __guard_longjmp_count      0000000000000000     <absolute>
 0000:00000000       __guard_fids_count         0000000000000000     <absolute>
 0000:00000000       __dynamic_value_reloc_table 0000000000000000     <absolute>
 0000:00000000       ___safe_se_handler_table   0000000000000000     <absolute>
 0000:00000100       __guard_flags              0000000000000100     <absolute>
 0000:00000000       __ImageBase                0000000180000000     <linker-defined>
 0001:00000540       MotionObjectDetector_initializer 0000000180001540 f   MotionObjectDetector_sfun.obj
 0001:00000550       MotionObjectDetector_terminator 0000000180001550 f   MotionObjectDetector_sfun.obj
 0001:00000560       load_MotionObjectDetector_optimization_info 0000000180001560 f   MotionObjectDetector_sfun.obj
 0001:00000610       unload_MotionObjectDetector_optimization_info 0000000180001610 f   MotionObjectDetector_sfun.obj
 0001:00000640       sf_MotionObjectDetector_method_dispatcher 0000000180001640 f   MotionObjectDetector_sfun.obj
 0001:00000690       sf_MotionObjectDetector_process_check_sum_call 0000000180001690 f   MotionObjectDetector_sfun.obj
 0001:00000b80       sf_MotionObjectDetector_get_eml_resolved_functions_info 0000000180001b80 f   MotionObjectDetector_sfun.obj
 0001:00000d60       sf_MotionObjectDetector_third_party_uses_info 0000000180001d60 f   MotionObjectDetector_sfun.obj
 0001:00000f30       sf_MotionObjectDetector_jit_fallback_info 0000000180001f30 f   MotionObjectDetector_sfun.obj
 0001:00001100       sf_MotionObjectDetector_get_post_codegen_info 0000000180002100 f   MotionObjectDetector_sfun.obj
 0001:000012e0       sf_MotionObjectDetector_updateBuildInfo_args_info 00000001800022e0 f   MotionObjectDetector_sfun.obj
 0001:000014b0       MotionObjectDetector_register_exported_symbols 00000001800024b0 f   MotionObjectDetector_sfun.obj
 0001:000014c0       sf_c3_MotionObjectDetector_get_eml_resolved_functions_info 00000001800024c0 f   c3_MotionObjectDetector.obj
 0001:00001540       sf_c3_MotionObjectDetector_get_check_sum 0000000180002540 f   c3_MotionObjectDetector.obj
 0001:00001610       c3_MotionObjectDetector_method_dispatcher 0000000180002610 f   c3_MotionObjectDetector.obj
 0001:00029740       sf_c3_MotionObjectDetector_third_party_uses_info 000000018002a740 f   c3_MotionObjectDetector.obj
 0001:000297e0       sf_c3_MotionObjectDetector_jit_fallback_info 000000018002a7e0 f   c3_MotionObjectDetector.obj
 0001:00029970       sf_c3_MotionObjectDetector_updateBuildInfo_args_info 000000018002a970 f   c3_MotionObjectDetector.obj
 0001:00029cd0       sf_c3_MotionObjectDetector_get_post_codegen_info 000000018002acd0 f   c3_MotionObjectDetector.obj
 0001:0002a180       mexFunction                000000018002b180 f   MotionObjectDetector_sfun_registry.obj
 0001:0002c720       _ssSetInputPortDirectFeedThroughFcn 000000018002d720 f   MotionObjectDetector_sfun_registry.obj
 0001:0002c890       _ssSetRWorkValueFcn        000000018002d890 f   MotionObjectDetector_sfun_registry.obj
 0001:0002c910       _ssGetRWorkValueFcn        000000018002d910 f   MotionObjectDetector_sfun_registry.obj
 0001:0002c980       _ssSetIWorkValueFcn        000000018002d980 f   MotionObjectDetector_sfun_registry.obj
 0001:0002ca00       _ssGetIWorkValueFcn        000000018002da00 f   MotionObjectDetector_sfun_registry.obj
 0001:0002ca70       _ssSetPWorkValueFcn        000000018002da70 f   MotionObjectDetector_sfun_registry.obj
 0001:0002caf0       _ssGetPWorkValueFcn        000000018002daf0 f   MotionObjectDetector_sfun_registry.obj
 0001:0002cb60       _ssGetInputPortSignalFcn   000000018002db60 f   MotionObjectDetector_sfun_registry.obj
 0001:0002cef0       _ssGetInputPortBufferDstPortFcn 000000018002def0 f   MotionObjectDetector_sfun_registry.obj
 0001:0002cf70       _ssGetInputPortSignalPtrsFcn 000000018002df70 f   MotionObjectDetector_sfun_registry.obj
 0001:0002d300       ssGetParameterTuningCompliance 000000018002e300 f   MotionObjectDetector_sfun_registry.obj
 0001:0002d370       ssGetDTypeIdFromMxArray    000000018002e370 f   MotionObjectDetector_sfun_registry.obj
 0001:0002d490       ssWriteRTWMx2dMatParam     000000018002e490 f   MotionObjectDetector_sfun_registry.obj
 0001:0002d520       ssWriteRTWMxVectParam      000000018002e520 f   MotionObjectDetector_sfun_registry.obj
 0001:0002d5a0       ssWriteRTWParameters       000000018002e5a0 f   MotionObjectDetector_sfun_registry.obj
 0001:0002db60       ssWriteRTWParamSettings    000000018002eb60 f   MotionObjectDetector_sfun_registry.obj
 0001:0002e250       ssWriteRTWStr              000000018002f250 f   MotionObjectDetector_sfun_registry.obj
 0001:0002e2b0       ssWriteRTWWorkVect         000000018002f2b0 f   MotionObjectDetector_sfun_registry.obj
 0001:0002e810       ssWarning                  000000018002f810 f   MotionObjectDetector_sfun_registry.obj
 0001:0002e900       ssWriteRTWNameValuePair    000000018002f900 f   MotionObjectDetector_sfun_registry.obj
 0001:0002ee00       _ssSetInputPortMatrixDimensions 000000018002fe00 f   MotionObjectDetector_sfun_registry.obj
 0001:0002ef20       _ssSetOutputPortMatrixDimensions 000000018002ff20 f   MotionObjectDetector_sfun_registry.obj
 0001:0002f040       _ssSetInputPortVectorDimension 0000000180030040 f   MotionObjectDetector_sfun_registry.obj
 0001:0002f0f0       _ssSetOutputPortVectorDimension 00000001800300f0 f   MotionObjectDetector_sfun_registry.obj
 0001:0002f1a0       ssIsRunTimeParamTunable    00000001800301a0 f   MotionObjectDetector_sfun_registry.obj
 0001:0002f210       ssGetSFuncBlockHandle      0000000180030210 f   MotionObjectDetector_sfun_registry.obj
 0001:0002f280       _ssGetCurrentInputPortWidth 0000000180030280 f   MotionObjectDetector_sfun_registry.obj
 0001:0002f3a0       _ssGetCurrentOutputPortWidth 00000001800303a0 f   MotionObjectDetector_sfun_registry.obj
 0001:0002f4c0       _ssGetCallSystemNumFcnCallDestinations 00000001800304c0 f   MotionObjectDetector_sfun_registry.obj
 0001:0002f530       ssGetIsZeroCrossControlDisabled 0000000180030530 f   MotionObjectDetector_sfun_registry.obj
 0001:0002f5a0       ssSetIsInputPortUsedForContZcSignal 00000001800305a0 f   MotionObjectDetector_sfun_registry.obj
 0001:0002f610       ssSetZcSignalIsZcElementDisc 0000000180030610 f   MotionObjectDetector_sfun_registry.obj
 0001:0002f6c0       ssSetZcSignalName          00000001800306c0 f   MotionObjectDetector_sfun_registry.obj
 0001:0002f730       ssSetZcSignalWidth         0000000180030730 f   MotionObjectDetector_sfun_registry.obj
 0001:0002f7a0       ssSetZcSignalZcEventType   00000001800307a0 f   MotionObjectDetector_sfun_registry.obj
 0001:0002f810       ssSetZcSignalType          0000000180030810 f   MotionObjectDetector_sfun_registry.obj
 0001:0002f880       ssSetZcSignalZcTol         0000000180030880 f   MotionObjectDetector_sfun_registry.obj
 0001:0002f8f0       ssSetZcSignalNeedsEventNotification 00000001800308f0 f   MotionObjectDetector_sfun_registry.obj
 0001:0002f960       ssCreateAndAddZcSignalInfo 0000000180030960 f   MotionObjectDetector_sfun_registry.obj
 0001:0002f9d0       ssCloneAndAddZcSignalInfo  00000001800309d0 f   MotionObjectDetector_sfun_registry.obj
 0001:0002fa40       ssGetNumZcSignals          0000000180030a40 f   MotionObjectDetector_sfun_registry.obj
 0001:0002fab0       ssGetZcSignalVector        0000000180030ab0 f   MotionObjectDetector_sfun_registry.obj
 0001:0002fb20       ssGetZcSignalName          0000000180030b20 f   MotionObjectDetector_sfun_registry.obj
 0001:0002fb90       ssGetZcSignalWidth         0000000180030b90 f   MotionObjectDetector_sfun_registry.obj
 0001:0002fc00       ssGetZcSignalZcEventType   0000000180030c00 f   MotionObjectDetector_sfun_registry.obj
 0001:0002fc70       ssGetZcSignalZcEvents      0000000180030c70 f   MotionObjectDetector_sfun_registry.obj
 0001:0002fce0       ssGetZcSignalType          0000000180030ce0 f   MotionObjectDetector_sfun_registry.obj
 0001:0002fd50       ssGetZcSignalZcTol         0000000180030d50 f   MotionObjectDetector_sfun_registry.obj
 0001:0002fdd0       ssGetZcSignalNeedsEventNotification 0000000180030dd0 f   MotionObjectDetector_sfun_registry.obj
 0001:0002fe40       ssGetZcSignalIsZcElementDisc 0000000180030e40 f   MotionObjectDetector_sfun_registry.obj
 0001:0002fee0       ssGetIsInputPortElementContinuous 0000000180030ee0 f   MotionObjectDetector_sfun_registry.obj
 0001:0002ff80       _ssGetAbsTol               0000000180030f80 f   MotionObjectDetector_sfun_registry.obj
 0001:0002fff0       _ssSetStateAbsTol          0000000180030ff0 f   MotionObjectDetector_sfun_registry.obj
 0001:000300d0       _ssSetInputPortReusableFcn 00000001800310d0 f   MotionObjectDetector_sfun_registry.obj
 0001:000301d0       _ssSetOutputPortReusableFcn 00000001800311d0 f   MotionObjectDetector_sfun_registry.obj
 0001:000302d0       _ssSetSymbolicDimsSupport  00000001800312d0 f   MotionObjectDetector_sfun_registry.obj
 0001:00030340       _ssRegisterSymbolicDimsExpr 0000000180031340 f   MotionObjectDetector_sfun_registry.obj
 0001:000303c0       _ssRegisterSymbolicDims    00000001800313c0 f   MotionObjectDetector_sfun_registry.obj
 0001:00030460       _ssRegisterSymbolicDimsString 0000000180031460 f   MotionObjectDetector_sfun_registry.obj
 0001:000304e0       _ssRegisterSymbolicDimsIntValue 00000001800314e0 f   MotionObjectDetector_sfun_registry.obj
 0001:00030550       _ssRegisterSymbolicDimsPlus 0000000180031550 f   MotionObjectDetector_sfun_registry.obj
 0001:000305d0       _ssRegisterSymbolicDimsMinus 00000001800315d0 f   MotionObjectDetector_sfun_registry.obj
 0001:00030650       _ssRegisterSymbolicDimsMultiply 0000000180031650 f   MotionObjectDetector_sfun_registry.obj
 0001:000306d0       _ssRegisterSymbolicDimsDivide 00000001800316d0 f   MotionObjectDetector_sfun_registry.obj
 0001:00030750       _ssGetNumSymbolicDims      0000000180031750 f   MotionObjectDetector_sfun_registry.obj
 0001:000307c0       _ssGetSymbolicDim          00000001800317c0 f   MotionObjectDetector_sfun_registry.obj
 0001:00030840       _ssSetInputPortSymbolicDimsId 0000000180031840 f   MotionObjectDetector_sfun_registry.obj
 0001:000308b0       _ssGetCompInputPortSymbolicDimsId 00000001800318b0 f   MotionObjectDetector_sfun_registry.obj
 0001:00030920       _ssSetCompInputPortSymbolicDimsId 0000000180031920 f   MotionObjectDetector_sfun_registry.obj
 0001:00030990       _ssSetOutputPortSymbolicDimsId 0000000180031990 f   MotionObjectDetector_sfun_registry.obj
 0001:00030a00       _ssGetCompOutputPortSymbolicDimsId 0000000180031a00 f   MotionObjectDetector_sfun_registry.obj
 0001:00030a70       _ssSetCompOutputPortSymbolicDimsId 0000000180031a70 f   MotionObjectDetector_sfun_registry.obj
 0001:00030ae0       _ssSetCompDWorkSymbolicDimsId 0000000180031ae0 f   MotionObjectDetector_sfun_registry.obj
 0001:00030b50       sf_process_check_sum_call  0000000180031b50 f   MotionObjectDetector_sfun_registry.obj
 0001:00030ba0       sf_process_get_third_party_uses_info_call 0000000180031ba0 f   MotionObjectDetector_sfun_registry.obj
 0001:00030dd0       sf_process_get_jit_fallback_info_call 0000000180031dd0 f   MotionObjectDetector_sfun_registry.obj
 0001:00031000       sf_process_get_post_codegen_info_call 0000000180032000 f   MotionObjectDetector_sfun_registry.obj
 0001:00031230       sf_process_get_updateBuildInfo_args_info_call 0000000180032230 f   MotionObjectDetector_sfun_registry.obj
 0001:00031460       sf_process_get_eml_resolved_functions_info_call 0000000180032460 f   MotionObjectDetector_sfun_registry.obj
 0001:00031690       sf_mex_unlock_call         0000000180032690 f   MotionObjectDetector_sfun_registry.obj
 0001:000318b0       sf_machine_global_initializer_called 00000001800328b0 f   MotionObjectDetector_sfun_registry.obj
 0001:000318e0       sf_machine_global_method_dispatcher 00000001800328e0 f   MotionObjectDetector_sfun_registry.obj
 0001:00031940       sf_machine_global_terminator 0000000180032940 f   MotionObjectDetector_sfun_registry.obj
 0001:00031970       sf_register_machine_exported_symbols 0000000180032970 f   MotionObjectDetector_sfun_registry.obj
 0001:00031990       callCustomFcn              0000000180032990 f   MotionObjectDetector_sfun_registry.obj
 0001:000319a0       sf_machine_global_initializer 00000001800329a0 f   MotionObjectDetector_sfun_registry.obj
 0001:00031a10       mdlGetSimState             0000000180032a10 f   MotionObjectDetector_sfun_registry.obj
 0001:00031a50       mdlSetSimState             0000000180032a50 f   MotionObjectDetector_sfun_registry.obj
 0001:000322c0       ProcessMexSfunctionEveryCall 00000001800332c0 f   MotionObjectDetector_sfun_registry.obj
 0001:000333d0       __local_stdio_printf_options 00000001800343d0 f i MotionObjectDetector_sfun_registry.obj
 0001:000333e0       _vsnprintf_l               00000001800343e0 f i MotionObjectDetector_sfun_registry.obj
 0001:00033460       _vsprintf_l                0000000180034460 f i MotionObjectDetector_sfun_registry.obj
 0001:000334b0       sprintf                    00000001800344b0 f i MotionObjectDetector_sfun_registry.obj
 0001:00033500       mexfilerequiredapiversion  0000000180034500 f   c_mexapi_version.obj
 0001:00033570       extractSurf_assignOutput   0000000180034570 f   extractSurfCore.obj
 0001:00033700       extractSurf_assignOutputRM 0000000180034700 f   extractSurfCore.obj
 0001:00033890       extractSurf_compute        0000000180034890 f   extractSurfCore.obj
 0001:00033b30       extractSurf_computeRM      0000000180034b30 f   extractSurfCore.obj
 0001:00033dd0       ?keyPoints2Fields@@YAXAEAV?$vector@VKeyPoint@cv@@V?$allocator@VKeyPoint@cv@@@std@@@std@@_NPEAM22PEAC2@Z 0000000180034dd0 f   extractSurfCore.obj
 0001:00033fa0       ?keyPoints2FieldsRM@@YAXAEAV?$vector@VKeyPoint@cv@@V?$allocator@VKeyPoint@cv@@@std@@@std@@_NPEAM22PEAC2@Z 0000000180034fa0 f   extractSurfCore.obj
 0001:00034180       ?struct2KeyPoints@@YAXPEAM00PEACAEAV?$vector@VKeyPoint@cv@@V?$allocator@VKeyPoint@cv@@@std@@@std@@H@Z 0000000180035180 f   extractSurfCore.obj
 0001:00034330       ?struct2KeyPointsRM@@YAXPEAM00PEACAEAV?$vector@VKeyPoint@cv@@V?$allocator@VKeyPoint@cv@@@std@@@std@@H@Z 0000000180035330 f   extractSurfCore.obj
 0001:000344f0       ??$?0$$V@?$_Compressed_pair@U?$_Wrap_alloc@V?$allocator@VKeyPoint@cv@@@std@@@std@@V?$_Vector_val@U?$_Simple_types@VKeyPoint@cv@@@std@@@2@$00@std@@QEAA@U_Zero_then_variadic_args_t@1@@Z 00000001800354f0 f i extractSurfCore.obj
 0001:00034520       ??$?0U?$_Wrap_alloc@V?$allocator@VKeyPoint@cv@@@std@@@std@@$$V@?$_Compressed_pair@U?$_Wrap_alloc@V?$allocator@VKeyPoint@cv@@@std@@@std@@V?$_Vector_val@U?$_Simple_types@VKeyPoint@cv@@@std@@@2@$00@std@@QEAA@U_One_then_variadic_args_t@1@$$QEAU?$_Wrap_alloc@V?$allocator@VKeyPoint@cv@@@std@@@1@@Z 0000000180035520 f i extractSurfCore.obj
 0001:00034560       ??$?0U?$_Wrap_alloc@V?$allocator@VKeyPoint@cv@@@std@@@std@@X@?$_Vector_alloc@U?$_Vec_base_types@VKeyPoint@cv@@V?$allocator@VKeyPoint@cv@@@std@@@std@@@std@@QEAA@$$QEAU?$_Wrap_alloc@V?$allocator@VKeyPoint@cv@@@std@@@1@@Z 0000000180035560 f i extractSurfCore.obj
 0001:000345a0       ??$?0U?$integral_constant@_N$00@std@@@_Any_tag@std@@QEAA@$$QEAU?$integral_constant@_N$00@1@@Z 00000001800355a0 f i extractSurfCore.obj
 0001:000345b0       ??$?0V?$allocator@VKeyPoint@cv@@@std@@@?$_Wrap_alloc@V?$allocator@VKeyPoint@cv@@@std@@@std@@QEAA@$$QEAV?$allocator@VKeyPoint@cv@@@1@@Z 00000001800355b0 f i extractSurfCore.obj
 0001:000345e0       ??$?0VMWSURF@cv@@@?$Ptr@VMWSURF@cv@@@cv@@QEAA@PEAVMWSURF@1@@Z 00000001800355e0 f i extractSurfCore.obj
 0001:00034680       ??$?6U?$char_traits@D@std@@@std@@YAAEAV?$basic_ostream@DU?$char_traits@D@std@@@0@AEAV10@PEBD@Z 0000000180035680 f i extractSurfCore.obj
 0001:00034a40       ??$_Destroy_range1@V?$allocator@VKeyPoint@cv@@@std@@PEAVKeyPoint@cv@@@std@@YAXPEAVKeyPoint@cv@@0AEAU?$_Wrap_alloc@V?$allocator@VKeyPoint@cv@@@std@@@0@U?$integral_constant@_N$00@0@@Z 0000000180035a40 f i extractSurfCore.obj
 0001:00034a60       ??$_Destroy_range@V?$allocator@VKeyPoint@cv@@@std@@PEAVKeyPoint@cv@@@std@@YAXPEAVKeyPoint@cv@@0AEAU?$_Wrap_alloc@V?$allocator@VKeyPoint@cv@@@std@@@0@@Z 0000000180035a60 f i extractSurfCore.obj
 0001:00034aa0       ??$_Emplace_back_with_unused_capacity@AEBVKeyPoint@cv@@@?$vector@VKeyPoint@cv@@V?$allocator@VKeyPoint@cv@@@std@@@std@@AEAAXAEBVKeyPoint@cv@@@Z 0000000180035aa0 f i extractSurfCore.obj
 0001:00034b50       ??$_Ptr_copy_cat@VKeyPoint@cv@@V12@@std@@YA?AU_General_ptr_iterator_tag@0@AEBQEAVKeyPoint@cv@@0@Z 0000000180035b50 f i extractSurfCore.obj
 0001:00034b80       ??$_Rechecked@PEAVKeyPoint@cv@@PEAV12@@std@@YAAEAPEAVKeyPoint@cv@@AEAPEAV12@PEAV12@@Z 0000000180035b80 f i extractSurfCore.obj
 0001:00034ba0       ??$_Ucopy@PEAVKeyPoint@cv@@@?$vector@VKeyPoint@cv@@V?$allocator@VKeyPoint@cv@@@std@@@std@@AEAAPEAVKeyPoint@cv@@PEAV23@00@Z 0000000180035ba0 f i extractSurfCore.obj
 0001:00034be0       ??$_Unchecked@PEAVKeyPoint@cv@@@std@@YAPEAVKeyPoint@cv@@PEAV12@@Z 0000000180035be0 f i extractSurfCore.obj
 0001:00034bf0       ??$_Unfancy@VKeyPoint@cv@@@std@@YAPEAVKeyPoint@cv@@PEAV12@@Z 0000000180035bf0 f i extractSurfCore.obj
 0001:00034c00       ??$_Uninitialized_copy@PEAVKeyPoint@cv@@PEAV12@V?$allocator@VKeyPoint@cv@@@std@@@std@@YAPEAVKeyPoint@cv@@PEAV12@00AEAU?$_Wrap_alloc@V?$allocator@VKeyPoint@cv@@@std@@@0@@Z 0000000180035c00 f i extractSurfCore.obj
 0001:00034cc0       ??$_Uninitialized_copy_al_unchecked@PEAVKeyPoint@cv@@PEAV12@V?$allocator@VKeyPoint@cv@@@std@@@std@@YAPEAVKeyPoint@cv@@PEAV12@00AEAU?$_Wrap_alloc@V?$allocator@VKeyPoint@cv@@@std@@@0@U_General_ptr_iterator_tag@0@U_Any_tag@0@@Z 0000000180035cc0 f i extractSurfCore.obj
 0001:00034d50       ??$cArrayFromMat@M@@YAXPEAMAEBVMat@cv@@@Z 0000000180035d50 f i extractSurfCore.obj
 0001:00034f70       ??$cArrayFromMat_RowMaj@M@@YAXPEAMAEBVMat@cv@@@Z 0000000180035f70 f i extractSurfCore.obj
 0001:000350a0       ??$construct@VKeyPoint@cv@@AEAV12@@?$_Wrap_alloc@V?$allocator@VKeyPoint@cv@@@std@@@std@@QEAAXPEAVKeyPoint@cv@@AEAV23@@Z 00000001800360a0 f i extractSurfCore.obj
 0001:000350e0       ??$construct@VKeyPoint@cv@@AEAV12@@?$allocator@VKeyPoint@cv@@@std@@QEAAXPEAVKeyPoint@cv@@AEAV23@@Z 00000001800360e0 f i extractSurfCore.obj
 0001:00035150       ??$construct@VKeyPoint@cv@@AEAV12@@?$allocator_traits@V?$allocator@VKeyPoint@cv@@@std@@@std@@SAXAEAV?$allocator@VKeyPoint@cv@@@1@PEAVKeyPoint@cv@@AEAV34@@Z 0000000180036150 f i extractSurfCore.obj
 0001:00035190       ??$construct@VKeyPoint@cv@@AEBV12@@?$_Wrap_alloc@V?$allocator@VKeyPoint@cv@@@std@@@std@@QEAAXPEAVKeyPoint@cv@@AEBV23@@Z 0000000180036190 f i extractSurfCore.obj
 0001:000351d0       ??$construct@VKeyPoint@cv@@AEBV12@@?$allocator@VKeyPoint@cv@@@std@@QEAAXPEAVKeyPoint@cv@@AEBV23@@Z 00000001800361d0 f i extractSurfCore.obj
 0001:00035240       ??$construct@VKeyPoint@cv@@AEBV12@@?$allocator_traits@V?$allocator@VKeyPoint@cv@@@std@@@std@@SAXAEAV?$allocator@VKeyPoint@cv@@@1@PEAVKeyPoint@cv@@AEBV34@@Z 0000000180036240 f i extractSurfCore.obj
 0001:00035280       ??$copyToArrayBGR_RowMaj@M@@YAXPEAM0HHH@Z 0000000180036280 f i extractSurfCore.obj
 0001:00035320       ??$copyToArray_RowMaj@M@@YAXPEAM0HH@Z 0000000180036320 f i extractSurfCore.obj
 0001:00035360       ??$destroy@VKeyPoint@cv@@@?$_Wrap_alloc@V?$allocator@VKeyPoint@cv@@@std@@@std@@QEAAXPEAVKeyPoint@cv@@@Z 0000000180036360 f i extractSurfCore.obj
 0001:00035390       ??$destroy@VKeyPoint@cv@@@?$allocator@VKeyPoint@cv@@@std@@QEAAXPEAVKeyPoint@cv@@@Z 0000000180036390 f i extractSurfCore.obj
 0001:000353a0       ??$destroy@VKeyPoint@cv@@@?$allocator_traits@V?$allocator@VKeyPoint@cv@@@std@@@std@@SAXAEAV?$allocator@VKeyPoint@cv@@@1@PEAVKeyPoint@cv@@@Z 00000001800363a0 f i extractSurfCore.obj
 0001:000353d0       ??$emplace_back@AEBVKeyPoint@cv@@@?$vector@VKeyPoint@cv@@V?$allocator@VKeyPoint@cv@@@std@@@std@@QEAAXAEBVKeyPoint@cv@@@Z 00000001800363d0 f i extractSurfCore.obj
 0001:00035550       ??$forward@AEAVKeyPoint@cv@@@std@@YAAEAVKeyPoint@cv@@AEAV12@@Z 0000000180036550 f i extractSurfCore.obj
 0001:00035560       ??$forward@AEBVKeyPoint@cv@@@std@@YAAEBVKeyPoint@cv@@AEBV12@@Z 0000000180036560 f i extractSurfCore.obj
 0001:00035570       ??$forward@U?$_Wrap_alloc@V?$allocator@VKeyPoint@cv@@@std@@@std@@@std@@YA$$QEAU?$_Wrap_alloc@V?$allocator@VKeyPoint@cv@@@std@@@0@AEAU10@@Z 0000000180036570 f i extractSurfCore.obj
 0001:00035580       ??$forward@V?$allocator@VKeyPoint@cv@@@std@@@std@@YA$$QEAV?$allocator@VKeyPoint@cv@@@0@AEAV10@@Z 0000000180036580 f i extractSurfCore.obj
 0001:00035590       ??$makePtr@VMWSURF@cv@@@cv@@YA?AU?$Ptr@VMWSURF@cv@@@0@XZ 0000000180036590 f i extractSurfCore.obj
 0001:00035610       ??$move@AEAU?$_Wrap_alloc@V?$allocator@VKeyPoint@cv@@@std@@@std@@@std@@YA$$QEAU?$_Wrap_alloc@V?$allocator@VKeyPoint@cv@@@std@@@0@AEAU10@@Z 0000000180036610 f i extractSurfCore.obj
 0001:00035620       ??0?$Point_@M@cv@@QEAA@AEBV01@@Z 0000000180036620 f i extractSurfCore.obj
 0001:00035660       ??0?$Point_@M@cv@@QEAA@MM@Z 0000000180036660 f i extractSurfCore.obj
 0001:000356a0       ??0?$PtrOwnerImpl@VMWSURF@cv@@U?$DefaultDeleter@VMWSURF@cv@@@2@@detail@cv@@QEAA@PEAVMWSURF@2@U?$DefaultDeleter@VMWSURF@cv@@@2@@Z 00000001800366a0 f i extractSurfCore.obj
 0001:000356f0       ??0?$Size_@H@cv@@QEAA@HH@Z 00000001800366f0 f i extractSurfCore.obj
 0001:00035720       ??0?$_Vector_alloc@U?$_Vec_base_types@VKeyPoint@cv@@V?$allocator@VKeyPoint@cv@@@std@@@std@@@std@@QEAA@XZ 0000000180036720 f i extractSurfCore.obj
 0001:00035750       ??0?$_Vector_val@U?$_Simple_types@VKeyPoint@cv@@@std@@@std@@QEAA@XZ 0000000180036750 f i extractSurfCore.obj
 0001:00035790       ??0?$_Wrap_alloc@V?$allocator@VKeyPoint@cv@@@std@@@std@@QEAA@$$QEAU01@@Z 0000000180036790 f i extractSurfCore.obj
 0001:000357c0       ??0?$_Wrap_alloc@V?$allocator@VKeyPoint@cv@@@std@@@std@@QEAA@XZ 00000001800367c0 f i extractSurfCore.obj
 0001:000357e0       ??0?$allocator@VKeyPoint@cv@@@std@@QEAA@AEBV01@@Z 00000001800367e0 f i extractSurfCore.obj
 0001:000357f0       ??0?$allocator@VKeyPoint@cv@@@std@@QEAA@XZ 00000001800367f0 f i extractSurfCore.obj
 0001:00035800       ??0?$big_any_policy@Uempty_any@anyimpl@cvflann@@@anyimpl@cvflann@@QEAA@XZ 0000000180036800 f i extractSurfCore.obj
 0001:00035830       ??0?$big_any_policy@VString@cv@@@anyimpl@cvflann@@QEAA@XZ 0000000180036830 f i extractSurfCore.obj
 0001:00035860       ??0?$big_any_policy@W4flann_algorithm_t@cvflann@@@anyimpl@cvflann@@QEAA@XZ 0000000180036860 f i extractSurfCore.obj
 0001:00035890       ??0?$big_any_policy@W4flann_centers_init_t@cvflann@@@anyimpl@cvflann@@QEAA@XZ 0000000180036890 f i extractSurfCore.obj
 0001:000358c0       ??0?$small_any_policy@H@anyimpl@cvflann@@QEAA@XZ 00000001800368c0 f i extractSurfCore.obj
 0001:000358f0       ??0?$small_any_policy@I@anyimpl@cvflann@@QEAA@XZ 00000001800368f0 f i extractSurfCore.obj
 0001:00035920       ??0?$small_any_policy@M@anyimpl@cvflann@@QEAA@XZ 0000000180036920 f i extractSurfCore.obj
 0001:00035950       ??0?$small_any_policy@PEBD@anyimpl@cvflann@@QEAA@XZ 0000000180036950 f i extractSurfCore.obj
 0001:00035980       ??0?$small_any_policy@_N@anyimpl@cvflann@@QEAA@XZ 0000000180036980 f i extractSurfCore.obj
 0001:000359b0       ??0?$typed_base_any_policy@H@anyimpl@cvflann@@QEAA@XZ 00000001800369b0 f i extractSurfCore.obj
 0001:000359e0       ??0?$typed_base_any_policy@I@anyimpl@cvflann@@QEAA@XZ 00000001800369e0 f i extractSurfCore.obj
 0001:00035a10       ??0?$typed_base_any_policy@M@anyimpl@cvflann@@QEAA@XZ 0000000180036a10 f i extractSurfCore.obj
 0001:00035a40       ??0?$typed_base_any_policy@PEBD@anyimpl@cvflann@@QEAA@XZ 0000000180036a40 f i extractSurfCore.obj
 0001:00035a70       ??0?$typed_base_any_policy@Uempty_any@anyimpl@cvflann@@@anyimpl@cvflann@@QEAA@XZ 0000000180036a70 f i extractSurfCore.obj
 0001:00035aa0       ??0?$typed_base_any_policy@VString@cv@@@anyimpl@cvflann@@QEAA@XZ 0000000180036aa0 f i extractSurfCore.obj
 0001:00035ad0       ??0?$typed_base_any_policy@W4flann_algorithm_t@cvflann@@@anyimpl@cvflann@@QEAA@XZ 0000000180036ad0 f i extractSurfCore.obj
 0001:00035b00       ??0?$typed_base_any_policy@W4flann_centers_init_t@cvflann@@@anyimpl@cvflann@@QEAA@XZ 0000000180036b00 f i extractSurfCore.obj
 0001:00035b30       ??0?$typed_base_any_policy@_N@anyimpl@cvflann@@QEAA@XZ 0000000180036b30 f i extractSurfCore.obj
 0001:00035b60       ??0?$vector@VKeyPoint@cv@@V?$allocator@VKeyPoint@cv@@@std@@@std@@QEAA@AEBV01@@Z 0000000180036b60 f i extractSurfCore.obj
 0001:00035c30       ??0?$vector@VKeyPoint@cv@@V?$allocator@VKeyPoint@cv@@@std@@@std@@QEAA@XZ 0000000180036c30 f i extractSurfCore.obj
 0001:00035c60       ??0KeyPoint@cv@@QEAA@AEBV01@@Z 0000000180036c60 f i extractSurfCore.obj
 0001:00035cf0       ??0KeyPoint@cv@@QEAA@MMMMMHH@Z 0000000180036cf0 f i extractSurfCore.obj
 0001:00035d80       ??0Mat@cv@@QEAA@AEBV01@@Z  0000000180036d80 f i extractSurfCore.obj
 0001:00035f20       ??0Mat@cv@@QEAA@HHHPEAX_K@Z 0000000180036f20 f i extractSurfCore.obj
 0001:00036280       ??0Mat@cv@@QEAA@XZ         0000000180037280 f i extractSurfCore.obj
 0001:00036340       ??0MatSize@cv@@QEAA@PEAH@Z 0000000180037340 f i extractSurfCore.obj
 0001:00036360       ??0MatStep@cv@@QEAA@XZ     0000000180037360 f i extractSurfCore.obj
 0001:000363b0       ??0MatStep@cv@@QEAA@_K@Z   00000001800373b0 f i extractSurfCore.obj
 0001:00036410       ??0PtrOwner@detail@cv@@QEAA@XZ 0000000180037410 f i extractSurfCore.obj
 0001:00036440       ??0String@cv@@QEAA@AEBV01@@Z 0000000180037440 f i extractSurfCore.obj
 0001:00036490       ??0String@cv@@QEAA@PEBD@Z  0000000180037490 f i extractSurfCore.obj
 0001:00036510       ??0_Sentry_base@?$basic_ostream@DU?$char_traits@D@std@@@std@@QEAA@AEAV12@@Z 0000000180037510 f i extractSurfCore.obj
 0001:000365b0       ??0base_any_policy@anyimpl@cvflann@@QEAA@XZ 00000001800375b0 f i extractSurfCore.obj
 0001:000365d0       ??0sentry@?$basic_ostream@DU?$char_traits@D@std@@@std@@QEAA@AEAV12@@Z 00000001800375d0 f i extractSurfCore.obj
 0001:000366d0       ??1?$Ptr@VMWSURF@cv@@@cv@@QEAA@XZ 00000001800376d0 f i extractSurfCore.obj
 0001:00036700       ??1?$PtrOwnerImpl@VMWSURF@cv@@U?$DefaultDeleter@VMWSURF@cv@@@2@@detail@cv@@UEAA@XZ 0000000180037700 f i extractSurfCore.obj
 0001:00036720       ??1?$big_any_policy@Uempty_any@anyimpl@cvflann@@@anyimpl@cvflann@@UEAA@XZ 0000000180037720 f i extractSurfCore.obj
 0001:00036740       ??1?$big_any_policy@VString@cv@@@anyimpl@cvflann@@UEAA@XZ 0000000180037740 f i extractSurfCore.obj
 0001:00036760       ??1?$big_any_policy@W4flann_algorithm_t@cvflann@@@anyimpl@cvflann@@UEAA@XZ 0000000180037760 f i extractSurfCore.obj
 0001:00036780       ??1?$big_any_policy@W4flann_centers_init_t@cvflann@@@anyimpl@cvflann@@UEAA@XZ 0000000180037780 f i extractSurfCore.obj
 0001:000367a0       ??1?$small_any_policy@H@anyimpl@cvflann@@UEAA@XZ 00000001800377a0 f i extractSurfCore.obj
 0001:000367c0       ??1?$small_any_policy@I@anyimpl@cvflann@@UEAA@XZ 00000001800377c0 f i extractSurfCore.obj
 0001:000367e0       ??1?$small_any_policy@M@anyimpl@cvflann@@UEAA@XZ 00000001800377e0 f i extractSurfCore.obj
 0001:00036800       ??1?$small_any_policy@PEBD@anyimpl@cvflann@@UEAA@XZ 0000000180037800 f i extractSurfCore.obj
 0001:00036820       ??1?$small_any_policy@_N@anyimpl@cvflann@@UEAA@XZ 0000000180037820 f i extractSurfCore.obj
 0001:00036840       ??1?$typed_base_any_policy@H@anyimpl@cvflann@@UEAA@XZ 0000000180037840 f i extractSurfCore.obj
 0001:00036860       ??1?$typed_base_any_policy@I@anyimpl@cvflann@@UEAA@XZ 0000000180037860 f i extractSurfCore.obj
 0001:00036880       ??1?$typed_base_any_policy@M@anyimpl@cvflann@@UEAA@XZ 0000000180037880 f i extractSurfCore.obj
 0001:000368a0       ??1?$typed_base_any_policy@PEBD@anyimpl@cvflann@@UEAA@XZ 00000001800378a0 f i extractSurfCore.obj
 0001:000368c0       ??1?$typed_base_any_policy@Uempty_any@anyimpl@cvflann@@@anyimpl@cvflann@@UEAA@XZ 00000001800378c0 f i extractSurfCore.obj
 0001:000368e0       ??1?$typed_base_any_policy@VString@cv@@@anyimpl@cvflann@@UEAA@XZ 00000001800378e0 f i extractSurfCore.obj
 0001:00036900       ??1?$typed_base_any_policy@W4flann_algorithm_t@cvflann@@@anyimpl@cvflann@@UEAA@XZ 0000000180037900 f i extractSurfCore.obj
 0001:00036920       ??1?$typed_base_any_policy@W4flann_centers_init_t@cvflann@@@anyimpl@cvflann@@UEAA@XZ 0000000180037920 f i extractSurfCore.obj
 0001:00036940       ??1?$typed_base_any_policy@_N@anyimpl@cvflann@@UEAA@XZ 0000000180037940 f i extractSurfCore.obj
 0001:00036960       ??1?$vector@VKeyPoint@cv@@V?$allocator@VKeyPoint@cv@@@std@@@std@@QEAA@XZ 0000000180037960 f i extractSurfCore.obj
 0001:00036990       ??1Mat@cv@@QEAA@XZ         0000000180037990 f i extractSurfCore.obj
 0001:000369e0       ??1PtrOwner@detail@cv@@MEAA@XZ 00000001800379e0 f i extractSurfCore.obj
 0001:00036a00       ??1String@cv@@QEAA@XZ      0000000180037a00 f i extractSurfCore.obj
 0001:00036a30       ??1_Sentry_base@?$basic_ostream@DU?$char_traits@D@std@@@std@@QEAA@XZ 0000000180037a30 f i extractSurfCore.obj
 0001:00036ac0       ??1base_any_policy@anyimpl@cvflann@@UEAA@XZ 0000000180037ac0 f i extractSurfCore.obj
 0001:00036ae0       ??1sentry@?$basic_ostream@DU?$char_traits@D@std@@@std@@QEAA@XZ 0000000180037ae0 f i extractSurfCore.obj
 0001:00036b20       ??2@YAPEAX_KPEAX@Z         0000000180037b20 f i extractSurfCore.obj
 0001:00036b30       ??3@YAXPEAX0@Z             0000000180037b30 f i extractSurfCore.obj
 0001:00036b40       ??4String@cv@@QEAAAEAV01@AEBV01@@Z 0000000180037b40 f i extractSurfCore.obj
 0001:00036bc0       ??6anyimpl@cvflann@@YAAEAV?$basic_ostream@DU?$char_traits@D@std@@@std@@AEAV23@AEBUempty_any@01@@Z 0000000180037bc0 f i extractSurfCore.obj
 0001:00036bf0       ??A?$vector@VKeyPoint@cv@@V?$allocator@VKeyPoint@cv@@@std@@@std@@QEAAAEAVKeyPoint@cv@@_K@Z 0000000180037bf0 f i extractSurfCore.obj
 0001:00036c20       ??AMatSize@cv@@QEBAAEBHH@Z 0000000180037c20 f i extractSurfCore.obj
 0001:00036c40       ??AMatStep@cv@@QEAAAEA_KH@Z 0000000180037c40 f i extractSurfCore.obj
 0001:00036c60       ??AMatStep@cv@@QEBAAEB_KH@Z 0000000180037c60 f i extractSurfCore.obj
 0001:00036c80       ??Bsentry@?$basic_ostream@DU?$char_traits@D@std@@@std@@QEBA_NXZ 0000000180037c80 f i extractSurfCore.obj
 0001:00036c90       ??C?$Ptr@VMWSURF@cv@@@cv@@QEBAPEAVMWSURF@1@XZ 0000000180037c90 f i extractSurfCore.obj
 0001:00036ca0       ??R?$DefaultDeleter@VMWSURF@cv@@@cv@@QEBAXPEAVMWSURF@1@@Z 0000000180037ca0 f i extractSurfCore.obj
 0001:00036d20       ??RMatSize@cv@@QEBA?AV?$Size_@H@1@XZ 0000000180037d20 f i extractSurfCore.obj
 0001:00036d80       ??_G?$PtrOwnerImpl@VMWSURF@cv@@U?$DefaultDeleter@VMWSURF@cv@@@2@@detail@cv@@UEAAPEAXI@Z 0000000180037d80 f i extractSurfCore.obj
 0001:00036d80       ??_E?$PtrOwnerImpl@VMWSURF@cv@@U?$DefaultDeleter@VMWSURF@cv@@@2@@detail@cv@@UEAAPEAXI@Z 0000000180037d80 f i extractSurfCore.obj
 0001:00036dc0       ??_G?$big_any_policy@Uempty_any@anyimpl@cvflann@@@anyimpl@cvflann@@UEAAPEAXI@Z 0000000180037dc0 f i extractSurfCore.obj
 0001:00036dc0       ??_E?$big_any_policy@Uempty_any@anyimpl@cvflann@@@anyimpl@cvflann@@UEAAPEAXI@Z 0000000180037dc0 f i extractSurfCore.obj
 0001:00036e00       ??_E?$big_any_policy@VString@cv@@@anyimpl@cvflann@@UEAAPEAXI@Z 0000000180037e00 f i extractSurfCore.obj
 0001:00036e00       ??_G?$big_any_policy@VString@cv@@@anyimpl@cvflann@@UEAAPEAXI@Z 0000000180037e00 f i extractSurfCore.obj
 0001:00036e40       ??_E?$big_any_policy@W4flann_algorithm_t@cvflann@@@anyimpl@cvflann@@UEAAPEAXI@Z 0000000180037e40 f i extractSurfCore.obj
 0001:00036e40       ??_G?$big_any_policy@W4flann_algorithm_t@cvflann@@@anyimpl@cvflann@@UEAAPEAXI@Z 0000000180037e40 f i extractSurfCore.obj
 0001:00036e80       ??_G?$big_any_policy@W4flann_centers_init_t@cvflann@@@anyimpl@cvflann@@UEAAPEAXI@Z 0000000180037e80 f i extractSurfCore.obj
 0001:00036e80       ??_E?$big_any_policy@W4flann_centers_init_t@cvflann@@@anyimpl@cvflann@@UEAAPEAXI@Z 0000000180037e80 f i extractSurfCore.obj
 0001:00036ec0       ??_G?$small_any_policy@H@anyimpl@cvflann@@UEAAPEAXI@Z 0000000180037ec0 f i extractSurfCore.obj
 0001:00036ec0       ??_E?$small_any_policy@H@anyimpl@cvflann@@UEAAPEAXI@Z 0000000180037ec0 f i extractSurfCore.obj
 0001:00036f00       ??_E?$small_any_policy@I@anyimpl@cvflann@@UEAAPEAXI@Z 0000000180037f00 f i extractSurfCore.obj
 0001:00036f00       ??_G?$small_any_policy@I@anyimpl@cvflann@@UEAAPEAXI@Z 0000000180037f00 f i extractSurfCore.obj
 0001:00036f40       ??_E?$small_any_policy@M@anyimpl@cvflann@@UEAAPEAXI@Z 0000000180037f40 f i extractSurfCore.obj
 0001:00036f40       ??_G?$small_any_policy@M@anyimpl@cvflann@@UEAAPEAXI@Z 0000000180037f40 f i extractSurfCore.obj
 0001:00036f80       ??_E?$small_any_policy@PEBD@anyimpl@cvflann@@UEAAPEAXI@Z 0000000180037f80 f i extractSurfCore.obj
 0001:00036f80       ??_G?$small_any_policy@PEBD@anyimpl@cvflann@@UEAAPEAXI@Z 0000000180037f80 f i extractSurfCore.obj
 0001:00036fc0       ??_E?$small_any_policy@_N@anyimpl@cvflann@@UEAAPEAXI@Z 0000000180037fc0 f i extractSurfCore.obj
 0001:00036fc0       ??_G?$small_any_policy@_N@anyimpl@cvflann@@UEAAPEAXI@Z 0000000180037fc0 f i extractSurfCore.obj
 0001:00037000       ??_E?$typed_base_any_policy@H@anyimpl@cvflann@@UEAAPEAXI@Z 0000000180038000 f i extractSurfCore.obj
 0001:00037000       ??_G?$typed_base_any_policy@H@anyimpl@cvflann@@UEAAPEAXI@Z 0000000180038000 f i extractSurfCore.obj
 0001:00037040       ??_G?$typed_base_any_policy@I@anyimpl@cvflann@@UEAAPEAXI@Z 0000000180038040 f i extractSurfCore.obj
 0001:00037040       ??_E?$typed_base_any_policy@I@anyimpl@cvflann@@UEAAPEAXI@Z 0000000180038040 f i extractSurfCore.obj
 0001:00037080       ??_G?$typed_base_any_policy@M@anyimpl@cvflann@@UEAAPEAXI@Z 0000000180038080 f i extractSurfCore.obj
 0001:00037080       ??_E?$typed_base_any_policy@M@anyimpl@cvflann@@UEAAPEAXI@Z 0000000180038080 f i extractSurfCore.obj
 0001:000370c0       ??_G?$typed_base_any_policy@PEBD@anyimpl@cvflann@@UEAAPEAXI@Z 00000001800380c0 f i extractSurfCore.obj
 0001:000370c0       ??_E?$typed_base_any_policy@PEBD@anyimpl@cvflann@@UEAAPEAXI@Z 00000001800380c0 f i extractSurfCore.obj
 0001:00037100       ??_E?$typed_base_any_policy@Uempty_any@anyimpl@cvflann@@@anyimpl@cvflann@@UEAAPEAXI@Z 0000000180038100 f i extractSurfCore.obj
 0001:00037100       ??_G?$typed_base_any_policy@Uempty_any@anyimpl@cvflann@@@anyimpl@cvflann@@UEAAPEAXI@Z 0000000180038100 f i extractSurfCore.obj
 0001:00037140       ??_E?$typed_base_any_policy@VString@cv@@@anyimpl@cvflann@@UEAAPEAXI@Z 0000000180038140 f i extractSurfCore.obj
 0001:00037140       ??_G?$typed_base_any_policy@VString@cv@@@anyimpl@cvflann@@UEAAPEAXI@Z 0000000180038140 f i extractSurfCore.obj
 0001:00037180       ??_E?$typed_base_any_policy@W4flann_algorithm_t@cvflann@@@anyimpl@cvflann@@UEAAPEAXI@Z 0000000180038180 f i extractSurfCore.obj
 0001:00037180       ??_G?$typed_base_any_policy@W4flann_algorithm_t@cvflann@@@anyimpl@cvflann@@UEAAPEAXI@Z 0000000180038180 f i extractSurfCore.obj
 0001:000371c0       ??_G?$typed_base_any_policy@W4flann_centers_init_t@cvflann@@@anyimpl@cvflann@@UEAAPEAXI@Z 00000001800381c0 f i extractSurfCore.obj
 0001:000371c0       ??_E?$typed_base_any_policy@W4flann_centers_init_t@cvflann@@@anyimpl@cvflann@@UEAAPEAXI@Z 00000001800381c0 f i extractSurfCore.obj
 0001:00037200       ??_G?$typed_base_any_policy@_N@anyimpl@cvflann@@UEAAPEAXI@Z 0000000180038200 f i extractSurfCore.obj
 0001:00037200       ??_E?$typed_base_any_policy@_N@anyimpl@cvflann@@UEAAPEAXI@Z 0000000180038200 f i extractSurfCore.obj
 0001:00037240       ??_G?$vector@VKeyPoint@cv@@V?$allocator@VKeyPoint@cv@@@std@@@std@@QEAAPEAXI@Z 0000000180038240 f i extractSurfCore.obj
 0001:00037280       ??_GMat@cv@@QEAAPEAXI@Z    0000000180038280 f i extractSurfCore.obj
 0001:000372c0       ??_GPtrOwner@detail@cv@@MEAAPEAXI@Z 00000001800382c0 f i extractSurfCore.obj
 0001:000372c0       ??_EPtrOwner@detail@cv@@MEAAPEAXI@Z 00000001800382c0 f i extractSurfCore.obj
 0001:00037300       ??_GString@cv@@QEAAPEAXI@Z 0000000180038300 f i extractSurfCore.obj
 0001:00037340       ??_Gbase_any_policy@anyimpl@cvflann@@UEAAPEAXI@Z 0000000180038340 f i extractSurfCore.obj
 0001:00037340       ??_Ebase_any_policy@anyimpl@cvflann@@UEAAPEAXI@Z 0000000180038340 f i extractSurfCore.obj
 0001:00037380       ?_Allocate@std@@YAPEAX_K0_N@Z 0000000180038380 f i extractSurfCore.obj
 0001:00037480       ?_Buy@?$vector@VKeyPoint@cv@@V?$allocator@VKeyPoint@cv@@@std@@@std@@AEAA_N_K@Z 0000000180038480 f i extractSurfCore.obj
 0001:00037570       ?_Calculate_growth@?$vector@VKeyPoint@cv@@V?$allocator@VKeyPoint@cv@@@std@@@std@@AEBA_K_K@Z 0000000180038570 f i extractSurfCore.obj
 0001:00037600       ?_Change_array@?$vector@VKeyPoint@cv@@V?$allocator@VKeyPoint@cv@@@std@@@std@@AEAAXQEAVKeyPoint@cv@@_K1@Z 0000000180038600 f i extractSurfCore.obj
 0001:00037740       ?_Deallocate@std@@YAXPEAX_K1@Z 0000000180038740 f i extractSurfCore.obj
 0001:00037830       ?_Destroy@?$vector@VKeyPoint@cv@@V?$allocator@VKeyPoint@cv@@@std@@@std@@AEAAXPEAVKeyPoint@cv@@0@Z 0000000180038830 f i extractSurfCore.obj
 0001:00037870       ?_Get_data@?$_Vector_alloc@U?$_Vec_base_types@VKeyPoint@cv@@V?$allocator@VKeyPoint@cv@@@std@@@std@@@std@@QEAAAEAV?$_Vector_val@U?$_Simple_types@VKeyPoint@cv@@@std@@@2@XZ 0000000180038870 f i extractSurfCore.obj
 0001:00037890       ?_Get_data@?$_Vector_alloc@U?$_Vec_base_types@VKeyPoint@cv@@V?$allocator@VKeyPoint@cv@@@std@@@std@@@std@@QEBAAEBV?$_Vector_val@U?$_Simple_types@VKeyPoint@cv@@@std@@@2@XZ 0000000180038890 f i extractSurfCore.obj
 0001:000378b0       ?_Get_first@?$_Compressed_pair@U?$_Wrap_alloc@V?$allocator@VKeyPoint@cv@@@std@@@std@@V?$_Vector_val@U?$_Simple_types@VKeyPoint@cv@@@std@@@2@$00@std@@QEAAAEAU?$_Wrap_alloc@V?$allocator@VKeyPoint@cv@@@std@@@2@XZ 00000001800388b0 f i extractSurfCore.obj
 0001:000378c0       ?_Get_first@?$_Compressed_pair@U?$_Wrap_alloc@V?$allocator@VKeyPoint@cv@@@std@@@std@@V?$_Vector_val@U?$_Simple_types@VKeyPoint@cv@@@std@@@2@$00@std@@QEBAAEBU?$_Wrap_alloc@V?$allocator@VKeyPoint@cv@@@std@@@2@XZ 00000001800388c0 f i extractSurfCore.obj
 0001:000378d0       ?_Get_second@?$_Compressed_pair@U?$_Wrap_alloc@V?$allocator@VKeyPoint@cv@@@std@@@std@@V?$_Vector_val@U?$_Simple_types@VKeyPoint@cv@@@std@@@2@$00@std@@QEAAAEAV?$_Vector_val@U?$_Simple_types@VKeyPoint@cv@@@std@@@2@XZ 00000001800388d0 f i extractSurfCore.obj
 0001:000378e0       ?_Get_second@?$_Compressed_pair@U?$_Wrap_alloc@V?$allocator@VKeyPoint@cv@@@std@@@std@@V?$_Vector_val@U?$_Simple_types@VKeyPoint@cv@@@std@@@2@$00@std@@QEBAAEBV?$_Vector_val@U?$_Simple_types@VKeyPoint@cv@@@std@@@2@XZ 00000001800388e0 f i extractSurfCore.obj
 0001:000378f0       ?_Getal@?$_Vector_alloc@U?$_Vec_base_types@VKeyPoint@cv@@V?$allocator@VKeyPoint@cv@@@std@@@std@@@std@@QEAAAEAU?$_Wrap_alloc@V?$allocator@VKeyPoint@cv@@@std@@@2@XZ 00000001800388f0 f i extractSurfCore.obj
 0001:00037910       ?_Getal@?$_Vector_alloc@U?$_Vec_base_types@VKeyPoint@cv@@V?$allocator@VKeyPoint@cv@@@std@@@std@@@std@@QEBAAEBU?$_Wrap_alloc@V?$allocator@VKeyPoint@cv@@@std@@@2@XZ 0000000180038910 f i extractSurfCore.obj
 0001:00037930       ?_Has_unused_capacity@?$vector@VKeyPoint@cv@@V?$allocator@VKeyPoint@cv@@@std@@@std@@AEBA_NXZ 0000000180038930 f i extractSurfCore.obj
 0001:00037980       ?_Myend@?$_Vector_alloc@U?$_Vec_base_types@VKeyPoint@cv@@V?$allocator@VKeyPoint@cv@@@std@@@std@@@std@@QEAAAEAPEAVKeyPoint@cv@@XZ 0000000180038980 f i extractSurfCore.obj
 0001:000379a0       ?_Myend@?$_Vector_alloc@U?$_Vec_base_types@VKeyPoint@cv@@V?$allocator@VKeyPoint@cv@@@std@@@std@@@std@@QEBAAEBQEAVKeyPoint@cv@@XZ 00000001800389a0 f i extractSurfCore.obj
 0001:000379c0       ?_Myfirst@?$_Vector_alloc@U?$_Vec_base_types@VKeyPoint@cv@@V?$allocator@VKeyPoint@cv@@@std@@@std@@@std@@QEAAAEAPEAVKeyPoint@cv@@XZ 00000001800389c0 f i extractSurfCore.obj
 0001:000379e0       ?_Myfirst@?$_Vector_alloc@U?$_Vec_base_types@VKeyPoint@cv@@V?$allocator@VKeyPoint@cv@@@std@@@std@@@std@@QEBAAEBQEAVKeyPoint@cv@@XZ 00000001800389e0 f i extractSurfCore.obj
 0001:00037a00       ?_Mylast@?$_Vector_alloc@U?$_Vec_base_types@VKeyPoint@cv@@V?$allocator@VKeyPoint@cv@@@std@@@std@@@std@@QEAAAEAPEAVKeyPoint@cv@@XZ 0000000180038a00 f i extractSurfCore.obj
 0001:00037a20       ?_Mylast@?$_Vector_alloc@U?$_Vec_base_types@VKeyPoint@cv@@V?$allocator@VKeyPoint@cv@@@std@@@std@@@std@@QEBAAEBQEAVKeyPoint@cv@@XZ 0000000180038a20 f i extractSurfCore.obj
 0001:00037a40       ?_Orphan_all@?$_Vector_alloc@U?$_Vec_base_types@VKeyPoint@cv@@V?$allocator@VKeyPoint@cv@@@std@@@std@@@std@@QEAAXXZ 0000000180038a40 f i extractSurfCore.obj
 0001:00037a60       ?_Orphan_all@_Container_base0@std@@QEAAXXZ 0000000180038a60 f i extractSurfCore.obj
 0001:00037a70       ?_Orphan_range@?$vector@VKeyPoint@cv@@V?$allocator@VKeyPoint@cv@@@std@@@std@@AEBAXPEAVKeyPoint@cv@@0@Z 0000000180038a70 f i extractSurfCore.obj
 0001:00037a80       ?_Tidy@?$vector@VKeyPoint@cv@@V?$allocator@VKeyPoint@cv@@@std@@@std@@AEAAXXZ 0000000180038a80 f i extractSurfCore.obj
 0001:00037b80       ?_Umove_if_noexcept1@?$vector@VKeyPoint@cv@@V?$allocator@VKeyPoint@cv@@@std@@@std@@AEAAXPEAVKeyPoint@cv@@00U?$integral_constant@_N$0A@@2@@Z 0000000180038b80 f i extractSurfCore.obj
 0001:00037bc0       ?_Umove_if_noexcept@?$vector@VKeyPoint@cv@@V?$allocator@VKeyPoint@cv@@@std@@@std@@AEAAXPEAVKeyPoint@cv@@00@Z 0000000180038bc0 f i extractSurfCore.obj
 0001:00037c20       ?_Xlength@?$vector@VKeyPoint@cv@@V?$allocator@VKeyPoint@cv@@@std@@@std@@CAXXZ 0000000180038c20 f i extractSurfCore.obj
 0001:00037c40       ?allocate@?$_Wrap_alloc@V?$allocator@VKeyPoint@cv@@@std@@@std@@QEAAPEAVKeyPoint@cv@@_K@Z 0000000180038c40 f i extractSurfCore.obj
 0001:00037c70       ?allocate@?$allocator@VKeyPoint@cv@@@std@@QEAAPEAVKeyPoint@cv@@_K@Z 0000000180038c70 f i extractSurfCore.obj
 0001:00037ca0       ?c_str@String@cv@@QEBAPEBDXZ 0000000180038ca0 f i extractSurfCore.obj
 0001:00037ce0       ?capacity@?$vector@VKeyPoint@cv@@V?$allocator@VKeyPoint@cv@@@std@@@std@@QEBA_KXZ 0000000180038ce0 f i extractSurfCore.obj
 0001:00037d30       ?channels@Mat@cv@@QEBAHXZ  0000000180038d30 f i extractSurfCore.obj
 0001:00037d50       ?clone@?$big_any_policy@Uempty_any@anyimpl@cvflann@@@anyimpl@cvflann@@UEAAXPEBQEAXPEAPEAX@Z 0000000180038d50 f i extractSurfCore.obj
 0001:00037db0       ?clone@?$big_any_policy@VString@cv@@@anyimpl@cvflann@@UEAAXPEBQEAXPEAPEAX@Z 0000000180038db0 f i extractSurfCore.obj
 0001:00037e30       ?clone@?$big_any_policy@W4flann_algorithm_t@cvflann@@@anyimpl@cvflann@@UEAAXPEBQEAXPEAPEAX@Z 0000000180038e30 f i extractSurfCore.obj
 0001:00037ea0       ?clone@?$big_any_policy@W4flann_centers_init_t@cvflann@@@anyimpl@cvflann@@UEAAXPEBQEAXPEAPEAX@Z 0000000180038ea0 f i extractSurfCore.obj
 0001:00037f10       ?clone@?$small_any_policy@H@anyimpl@cvflann@@UEAAXPEBQEAXPEAPEAX@Z 0000000180038f10 f i extractSurfCore.obj
 0001:00037f30       ?clone@?$small_any_policy@I@anyimpl@cvflann@@UEAAXPEBQEAXPEAPEAX@Z 0000000180038f30 f i extractSurfCore.obj
 0001:00037f50       ?clone@?$small_any_policy@M@anyimpl@cvflann@@UEAAXPEBQEAXPEAPEAX@Z 0000000180038f50 f i extractSurfCore.obj
 0001:00037f70       ?clone@?$small_any_policy@PEBD@anyimpl@cvflann@@UEAAXPEBQEAXPEAPEAX@Z 0000000180038f70 f i extractSurfCore.obj
 0001:00037f90       ?clone@?$small_any_policy@_N@anyimpl@cvflann@@UEAAXPEBQEAXPEAPEAX@Z 0000000180038f90 f i extractSurfCore.obj
 0001:00037fb0       ?copy_from_value@?$big_any_policy@Uempty_any@anyimpl@cvflann@@@anyimpl@cvflann@@UEAAXPEBXPEAPEAX@Z 0000000180038fb0 f i extractSurfCore.obj
 0001:00038010       ?copy_from_value@?$big_any_policy@VString@cv@@@anyimpl@cvflann@@UEAAXPEBXPEAPEAX@Z 0000000180039010 f i extractSurfCore.obj
 0001:00038080       ?copy_from_value@?$big_any_policy@W4flann_algorithm_t@cvflann@@@anyimpl@cvflann@@UEAAXPEBXPEAPEAX@Z 0000000180039080 f i extractSurfCore.obj
 0001:000380e0       ?copy_from_value@?$big_any_policy@W4flann_centers_init_t@cvflann@@@anyimpl@cvflann@@UEAAXPEBXPEAPEAX@Z 00000001800390e0 f i extractSurfCore.obj
 0001:00038140       ?copy_from_value@?$small_any_policy@H@anyimpl@cvflann@@UEAAXPEBXPEAPEAX@Z 0000000180039140 f i extractSurfCore.obj
 0001:000381a0       ?copy_from_value@?$small_any_policy@I@anyimpl@cvflann@@UEAAXPEBXPEAPEAX@Z 00000001800391a0 f i extractSurfCore.obj
 0001:00038200       ?copy_from_value@?$small_any_policy@M@anyimpl@cvflann@@UEAAXPEBXPEAPEAX@Z 0000000180039200 f i extractSurfCore.obj
 0001:00038260       ?copy_from_value@?$small_any_policy@PEBD@anyimpl@cvflann@@UEAAXPEBXPEAPEAX@Z 0000000180039260 f i extractSurfCore.obj
 0001:000382c0       ?copy_from_value@?$small_any_policy@_N@anyimpl@cvflann@@UEAAXPEBXPEAPEAX@Z 00000001800392c0 f i extractSurfCore.obj
 0001:00038320       ?deallocate@?$_Wrap_alloc@V?$allocator@VKeyPoint@cv@@@std@@@std@@QEAAXPEAVKeyPoint@cv@@_K@Z 0000000180039320 f i extractSurfCore.obj
 0001:00038350       ?deallocate@?$allocator@VKeyPoint@cv@@@std@@QEAAXPEAVKeyPoint@cv@@_K@Z 0000000180039350 f i extractSurfCore.obj
 0001:00038380       ?decRef@PtrOwner@detail@cv@@QEAAXXZ 0000000180039380 f i extractSurfCore.obj
 0001:000383c0       ?deleteSelf@?$PtrOwnerImpl@VMWSURF@cv@@U?$DefaultDeleter@VMWSURF@cv@@@2@@detail@cv@@UEAAXXZ 00000001800393c0 f i extractSurfCore.obj
 0001:00038430       ?empty@?$Ptr@VMWSURF@cv@@@cv@@QEBA_NXZ 0000000180039430 f i extractSurfCore.obj
 0001:00038460       ?eof@?$char_traits@D@std@@SAHXZ 0000000180039460 f i extractSurfCore.obj
 0001:00038470       ?eq_int_type@?$char_traits@D@std@@SA_NAEBH0@Z 0000000180039470 f i extractSurfCore.obj
 0001:000384b0       ?get_size@?$typed_base_any_policy@H@anyimpl@cvflann@@UEAA_KXZ 00000001800394b0 f i extractSurfCore.obj
 0001:000384c0       ?get_size@?$typed_base_any_policy@I@anyimpl@cvflann@@UEAA_KXZ 00000001800394c0 f i extractSurfCore.obj
 0001:000384d0       ?get_size@?$typed_base_any_policy@M@anyimpl@cvflann@@UEAA_KXZ 00000001800394d0 f i extractSurfCore.obj
 0001:000384e0       ?get_size@?$typed_base_any_policy@PEBD@anyimpl@cvflann@@UEAA_KXZ 00000001800394e0 f i extractSurfCore.obj
 0001:000384f0       ?get_size@?$typed_base_any_policy@Uempty_any@anyimpl@cvflann@@@anyimpl@cvflann@@UEAA_KXZ 00000001800394f0 f i extractSurfCore.obj
 0001:00038500       ?get_size@?$typed_base_any_policy@VString@cv@@@anyimpl@cvflann@@UEAA_KXZ 0000000180039500 f i extractSurfCore.obj
 0001:00038510       ?get_size@?$typed_base_any_policy@W4flann_algorithm_t@cvflann@@@anyimpl@cvflann@@UEAA_KXZ 0000000180039510 f i extractSurfCore.obj
 0001:00038520       ?get_size@?$typed_base_any_policy@W4flann_centers_init_t@cvflann@@@anyimpl@cvflann@@UEAA_KXZ 0000000180039520 f i extractSurfCore.obj
 0001:00038530       ?get_size@?$typed_base_any_policy@_N@anyimpl@cvflann@@UEAA_KXZ 0000000180039530 f i extractSurfCore.obj
 0001:00038540       ?get_value@?$big_any_policy@Uempty_any@anyimpl@cvflann@@@anyimpl@cvflann@@UEAAPEAXPEAPEAX@Z 0000000180039540 f i extractSurfCore.obj
 0001:00038560       ?get_value@?$big_any_policy@Uempty_any@anyimpl@cvflann@@@anyimpl@cvflann@@UEAAPEBXPEBQEAX@Z 0000000180039560 f i extractSurfCore.obj
 0001:00038580       ?get_value@?$big_any_policy@VString@cv@@@anyimpl@cvflann@@UEAAPEAXPEAPEAX@Z 0000000180039580 f i extractSurfCore.obj
 0001:000385a0       ?get_value@?$big_any_policy@VString@cv@@@anyimpl@cvflann@@UEAAPEBXPEBQEAX@Z 00000001800395a0 f i extractSurfCore.obj
 0001:000385c0       ?get_value@?$big_any_policy@W4flann_algorithm_t@cvflann@@@anyimpl@cvflann@@UEAAPEAXPEAPEAX@Z 00000001800395c0 f i extractSurfCore.obj
 0001:000385e0       ?get_value@?$big_any_policy@W4flann_algorithm_t@cvflann@@@anyimpl@cvflann@@UEAAPEBXPEBQEAX@Z 00000001800395e0 f i extractSurfCore.obj
 0001:00038600       ?get_value@?$big_any_policy@W4flann_centers_init_t@cvflann@@@anyimpl@cvflann@@UEAAPEAXPEAPEAX@Z 0000000180039600 f i extractSurfCore.obj
 0001:00038620       ?get_value@?$big_any_policy@W4flann_centers_init_t@cvflann@@@anyimpl@cvflann@@UEAAPEBXPEBQEAX@Z 0000000180039620 f i extractSurfCore.obj
 0001:00038640       ?get_value@?$small_any_policy@H@anyimpl@cvflann@@UEAAPEAXPEAPEAX@Z 0000000180039640 f i extractSurfCore.obj
 0001:00038650       ?get_value@?$small_any_policy@H@anyimpl@cvflann@@UEAAPEBXPEBQEAX@Z 0000000180039650 f i extractSurfCore.obj
 0001:00038660       ?get_value@?$small_any_policy@I@anyimpl@cvflann@@UEAAPEAXPEAPEAX@Z 0000000180039660 f i extractSurfCore.obj
 0001:00038670       ?get_value@?$small_any_policy@I@anyimpl@cvflann@@UEAAPEBXPEBQEAX@Z 0000000180039670 f i extractSurfCore.obj
 0001:00038680       ?get_value@?$small_any_policy@M@anyimpl@cvflann@@UEAAPEAXPEAPEAX@Z 0000000180039680 f i extractSurfCore.obj
 0001:00038690       ?get_value@?$small_any_policy@M@anyimpl@cvflann@@UEAAPEBXPEBQEAX@Z 0000000180039690 f i extractSurfCore.obj
 0001:000386a0       ?get_value@?$small_any_policy@PEBD@anyimpl@cvflann@@UEAAPEAXPEAPEAX@Z 00000001800396a0 f i extractSurfCore.obj
 0001:000386b0       ?get_value@?$small_any_policy@PEBD@anyimpl@cvflann@@UEAAPEBXPEBQEAX@Z 00000001800396b0 f i extractSurfCore.obj
 0001:000386c0       ?get_value@?$small_any_policy@_N@anyimpl@cvflann@@UEAAPEAXPEAPEAX@Z 00000001800396c0 f i extractSurfCore.obj
 0001:000386d0       ?get_value@?$small_any_policy@_N@anyimpl@cvflann@@UEAAPEBXPEBQEAX@Z 00000001800396d0 f i extractSurfCore.obj
 0001:000386e0       ?length@?$char_traits@D@std@@SA_KQEBD@Z 00000001800396e0 f i extractSurfCore.obj
 0001:00038710       ?max_size@?$_Wrap_alloc@V?$allocator@VKeyPoint@cv@@@std@@@std@@QEBA_KU_Nil@2@@Z 0000000180039710 f i extractSurfCore.obj
 0001:00038730       ?max_size@?$allocator@VKeyPoint@cv@@@std@@QEBA_KXZ 0000000180039730 f i extractSurfCore.obj
 0001:00038740       ?max_size@?$allocator_traits@V?$allocator@VKeyPoint@cv@@@std@@@std@@SA_KAEBV?$allocator@VKeyPoint@cv@@@2@@Z 0000000180039740 f i extractSurfCore.obj
 0001:00038760       ?max_size@?$vector@VKeyPoint@cv@@V?$allocator@VKeyPoint@cv@@@std@@@std@@QEBA_KXZ 0000000180039760 f i extractSurfCore.obj
 0001:00038790       ?move@?$big_any_policy@Uempty_any@anyimpl@cvflann@@@anyimpl@cvflann@@UEAAXPEBQEAXPEAPEAX@Z 0000000180039790 f i extractSurfCore.obj
 0001:000387a0       ?move@?$big_any_policy@VString@cv@@@anyimpl@cvflann@@UEAAXPEBQEAXPEAPEAX@Z 00000001800397a0 f i extractSurfCore.obj
 0001:000387e0       ?move@?$big_any_policy@W4flann_algorithm_t@cvflann@@@anyimpl@cvflann@@UEAAXPEBQEAXPEAPEAX@Z 00000001800397e0 f i extractSurfCore.obj
 0001:00038810       ?move@?$big_any_policy@W4flann_centers_init_t@cvflann@@@anyimpl@cvflann@@UEAAXPEBQEAXPEAPEAX@Z 0000000180039810 f i extractSurfCore.obj
 0001:00038840       ?move@?$small_any_policy@H@anyimpl@cvflann@@UEAAXPEBQEAXPEAPEAX@Z 0000000180039840 f i extractSurfCore.obj
 0001:00038860       ?move@?$small_any_policy@I@anyimpl@cvflann@@UEAAXPEBQEAXPEAPEAX@Z 0000000180039860 f i extractSurfCore.obj
 0001:00038880       ?move@?$small_any_policy@M@anyimpl@cvflann@@UEAAXPEBQEAXPEAPEAX@Z 0000000180039880 f i extractSurfCore.obj
 0001:000388a0       ?move@?$small_any_policy@PEBD@anyimpl@cvflann@@UEAAXPEBQEAXPEAPEAX@Z 00000001800398a0 f i extractSurfCore.obj
 0001:000388c0       ?move@?$small_any_policy@_N@anyimpl@cvflann@@UEAAXPEBQEAXPEAPEAX@Z 00000001800398c0 f i extractSurfCore.obj
 0001:000388e0       ?print@?$big_any_policy@Uempty_any@anyimpl@cvflann@@@anyimpl@cvflann@@UEAAXAEAV?$basic_ostream@DU?$char_traits@D@std@@@std@@PEBQEAX@Z 00000001800398e0 f i extractSurfCore.obj
 0001:00038910       ?print@?$big_any_policy@VString@cv@@@anyimpl@cvflann@@UEAAXAEAV?$basic_ostream@DU?$char_traits@D@std@@@std@@PEBQEAX@Z 0000000180039910 f i extractSurfCore.obj
 0001:00038950       ?print@?$big_any_policy@W4flann_algorithm_t@cvflann@@@anyimpl@cvflann@@UEAAXAEAV?$basic_ostream@DU?$char_traits@D@std@@@std@@PEBQEAX@Z 0000000180039950 f i extractSurfCore.obj
 0001:00038980       ?print@?$big_any_policy@W4flann_centers_init_t@cvflann@@@anyimpl@cvflann@@UEAAXAEAV?$basic_ostream@DU?$char_traits@D@std@@@std@@PEBQEAX@Z 0000000180039980 f i extractSurfCore.obj
 0001:000389b0       ?print@?$small_any_policy@H@anyimpl@cvflann@@UEAAXAEAV?$basic_ostream@DU?$char_traits@D@std@@@std@@PEBQEAX@Z 00000001800399b0 f i extractSurfCore.obj
 0001:000389e0       ?print@?$small_any_policy@I@anyimpl@cvflann@@UEAAXAEAV?$basic_ostream@DU?$char_traits@D@std@@@std@@PEBQEAX@Z 00000001800399e0 f i extractSurfCore.obj
 0001:00038a10       ?print@?$small_any_policy@M@anyimpl@cvflann@@UEAAXAEAV?$basic_ostream@DU?$char_traits@D@std@@@std@@PEBQEAX@Z 0000000180039a10 f i extractSurfCore.obj
 0001:00038a40       ?print@?$small_any_policy@PEBD@anyimpl@cvflann@@UEAAXAEAV?$basic_ostream@DU?$char_traits@D@std@@@std@@PEBQEAX@Z 0000000180039a40 f i extractSurfCore.obj
 0001:00038a70       ?print@?$small_any_policy@_N@anyimpl@cvflann@@UEAAXAEAV?$basic_ostream@DU?$char_traits@D@std@@@std@@PEBQEAX@Z 0000000180039a70 f i extractSurfCore.obj
 0001:00038aa0       ?push_back@?$vector@VKeyPoint@cv@@V?$allocator@VKeyPoint@cv@@@std@@@std@@QEAAXAEBVKeyPoint@cv@@@Z 0000000180039aa0 f i extractSurfCore.obj
 0001:00038ad0       ?release@?$Ptr@VMWSURF@cv@@@cv@@QEAAXXZ 0000000180039ad0 f i extractSurfCore.obj
 0001:00038b10       ?release@Mat@cv@@QEAAXXZ   0000000180039b10 f i extractSurfCore.obj
 0001:00038bd0       ?select_on_container_copy_construction@?$_Wrap_alloc@V?$allocator@VKeyPoint@cv@@@std@@@std@@QEBA?AU12@U_Nil@2@@Z 0000000180039bd0 f i extractSurfCore.obj
 0001:00038c10       ?select_on_container_copy_construction@?$allocator_traits@V?$allocator@VKeyPoint@cv@@@std@@@std@@SA?AV?$allocator@VKeyPoint@cv@@@2@AEBV32@@Z 0000000180039c10 f i extractSurfCore.obj
 0001:00038c40       ?size@?$vector@VKeyPoint@cv@@V?$allocator@VKeyPoint@cv@@@std@@@std@@QEBA_KXZ 0000000180039c40 f i extractSurfCore.obj
 0001:00038c90       ?static_delete@?$big_any_policy@Uempty_any@anyimpl@cvflann@@@anyimpl@cvflann@@UEAAXPEAPEAX@Z 0000000180039c90 f i extractSurfCore.obj
 0001:00038ce0       ?static_delete@?$big_any_policy@VString@cv@@@anyimpl@cvflann@@UEAAXPEAPEAX@Z 0000000180039ce0 f i extractSurfCore.obj
 0001:00038d50       ?static_delete@?$big_any_policy@W4flann_algorithm_t@cvflann@@@anyimpl@cvflann@@UEAAXPEAPEAX@Z 0000000180039d50 f i extractSurfCore.obj
 0001:00038da0       ?static_delete@?$big_any_policy@W4flann_centers_init_t@cvflann@@@anyimpl@cvflann@@UEAAXPEAPEAX@Z 0000000180039da0 f i extractSurfCore.obj
 0001:00038df0       ?static_delete@?$small_any_policy@H@anyimpl@cvflann@@UEAAXPEAPEAX@Z 0000000180039df0 f i extractSurfCore.obj
 0001:00038e00       ?static_delete@?$small_any_policy@I@anyimpl@cvflann@@UEAAXPEAPEAX@Z 0000000180039e00 f i extractSurfCore.obj
 0001:00038e10       ?static_delete@?$small_any_policy@M@anyimpl@cvflann@@UEAAXPEAPEAX@Z 0000000180039e10 f i extractSurfCore.obj
 0001:00038e20       ?static_delete@?$small_any_policy@PEBD@anyimpl@cvflann@@UEAAXPEAPEAX@Z 0000000180039e20 f i extractSurfCore.obj
 0001:00038e30       ?static_delete@?$small_any_policy@_N@anyimpl@cvflann@@UEAAXPEAPEAX@Z 0000000180039e30 f i extractSurfCore.obj
 0001:00038e40       ?total@Mat@cv@@QEBA_KXZ    0000000180039e40 f i extractSurfCore.obj
 0001:00038ed0       ?type@?$typed_base_any_policy@H@anyimpl@cvflann@@UEAAAEBVtype_info@@XZ 0000000180039ed0 f i extractSurfCore.obj
 0001:00038ee0       ?type@?$typed_base_any_policy@I@anyimpl@cvflann@@UEAAAEBVtype_info@@XZ 0000000180039ee0 f i extractSurfCore.obj
 0001:00038ef0       ?type@?$typed_base_any_policy@M@anyimpl@cvflann@@UEAAAEBVtype_info@@XZ 0000000180039ef0 f i extractSurfCore.obj
 0001:00038f00       ?type@?$typed_base_any_policy@PEBD@anyimpl@cvflann@@UEAAAEBVtype_info@@XZ 0000000180039f00 f i extractSurfCore.obj
 0001:00038f10       ?type@?$typed_base_any_policy@Uempty_any@anyimpl@cvflann@@@anyimpl@cvflann@@UEAAAEBVtype_info@@XZ 0000000180039f10 f i extractSurfCore.obj
 0001:00038f20       ?type@?$typed_base_any_policy@VString@cv@@@anyimpl@cvflann@@UEAAAEBVtype_info@@XZ 0000000180039f20 f i extractSurfCore.obj
 0001:00038f30       ?type@?$typed_base_any_policy@W4flann_algorithm_t@cvflann@@@anyimpl@cvflann@@UEAAAEBVtype_info@@XZ 0000000180039f30 f i extractSurfCore.obj
 0001:00038f40       ?type@?$typed_base_any_policy@W4flann_centers_init_t@cvflann@@@anyimpl@cvflann@@UEAAAEBVtype_info@@XZ 0000000180039f40 f i extractSurfCore.obj
 0001:00038f50       ?type@?$typed_base_any_policy@_N@anyimpl@cvflann@@UEAAAEBVtype_info@@XZ 0000000180039f50 f i extractSurfCore.obj
 0001:00038f60       cvRectToBoundingBox        0000000180039f60 f   cgCommon.obj
 0001:00039080       cvRectToBoundingBoxRowMajor 000000018003a080 f   cgCommon.obj
 0001:00039180       ??$addressof@$$CBV?$Rect_@H@cv@@@std@@YAPEBV?$Rect_@H@cv@@AEBV12@@Z 000000018003a180 f i cgCommon.obj
 0001:00039190       ??$addressof@$$CBV?$_Vector_val@U?$_Simple_types@V?$Rect_@H@cv@@@std@@@std@@@std@@YAPEBV?$_Vector_val@U?$_Simple_types@V?$Rect_@H@cv@@@std@@@0@AEBV10@@Z 000000018003a190 f i cgCommon.obj
 0001:000391a0       ??0?$_Vector_const_iterator@V?$_Vector_val@U?$_Simple_types@V?$Rect_@H@cv@@@std@@@std@@@std@@QEAA@PEAV?$Rect_@H@cv@@PEBU_Container_base0@1@@Z 000000018003a1a0 f i cgCommon.obj
 0001:000391e0       ??8?$_Vector_const_iterator@V?$_Vector_val@U?$_Simple_types@V?$Rect_@H@cv@@@std@@@std@@@std@@QEBA_NAEBV01@@Z 000000018003a1e0 f i cgCommon.obj
 0001:00039230       ??9?$_Vector_const_iterator@V?$_Vector_val@U?$_Simple_types@V?$Rect_@H@cv@@@std@@@std@@@std@@QEBA_NAEBV01@@Z 000000018003a230 f i cgCommon.obj
 0001:00039270       ??C?$_Vector_const_iterator@V?$_Vector_val@U?$_Simple_types@V?$Rect_@H@cv@@@std@@@std@@@std@@QEBAPEBV?$Rect_@H@cv@@XZ 000000018003a270 f i cgCommon.obj
 0001:00039290       ??D?$_Vector_const_iterator@V?$_Vector_val@U?$_Simple_types@V?$Rect_@H@cv@@@std@@@std@@@std@@QEBAAEBV?$Rect_@H@cv@@XZ 000000018003a290 f i cgCommon.obj
 0001:000392a0       ??E?$_Vector_const_iterator@V?$_Vector_val@U?$_Simple_types@V?$Rect_@H@cv@@@std@@@std@@@std@@QEAAAEAV01@XZ 000000018003a2a0 f i cgCommon.obj
 0001:000392c0       ?_Adopt@_Iterator_base0@std@@QEAAXPEBX@Z 000000018003a2c0 f i cgCommon.obj
 0001:000392d0       ?_Compat@?$_Vector_const_iterator@V?$_Vector_val@U?$_Simple_types@V?$Rect_@H@cv@@@std@@@std@@@std@@QEBAXAEBV12@@Z 000000018003a2d0 f i cgCommon.obj
 0001:000392e0       ?_Get_data@?$_Vector_alloc@U?$_Vec_base_types@V?$Rect_@H@cv@@V?$allocator@V?$Rect_@H@cv@@@std@@@std@@@std@@QEBAAEBV?$_Vector_val@U?$_Simple_types@V?$Rect_@H@cv@@@std@@@2@XZ 000000018003a2e0 f i cgCommon.obj
 0001:00039300       ?_Get_second@?$_Compressed_pair@U?$_Wrap_alloc@V?$allocator@V?$Rect_@H@cv@@@std@@@std@@V?$_Vector_val@U?$_Simple_types@V?$Rect_@H@cv@@@std@@@2@$00@std@@QEBAAEBV?$_Vector_val@U?$_Simple_types@V?$Rect_@H@cv@@@std@@@2@XZ 000000018003a300 f i cgCommon.obj
 0001:00039310       ?_Myfirst@?$_Vector_alloc@U?$_Vec_base_types@V?$Rect_@H@cv@@V?$allocator@V?$Rect_@H@cv@@@std@@@std@@@std@@QEBAAEBQEAV?$Rect_@H@cv@@XZ 000000018003a310 f i cgCommon.obj
 0001:00039330       ?_Mylast@?$_Vector_alloc@U?$_Vec_base_types@V?$Rect_@H@cv@@V?$allocator@V?$Rect_@H@cv@@@std@@@std@@@std@@QEBAAEBQEAV?$Rect_@H@cv@@XZ 000000018003a330 f i cgCommon.obj
 0001:00039350       ?begin@?$vector@V?$Rect_@H@cv@@V?$allocator@V?$Rect_@H@cv@@@std@@@std@@QEBA?AV?$_Vector_const_iterator@V?$_Vector_val@U?$_Simple_types@V?$Rect_@H@cv@@@std@@@std@@@2@XZ 000000018003a350 f i cgCommon.obj
 0001:000393b0       ?end@?$vector@V?$Rect_@H@cv@@V?$allocator@V?$Rect_@H@cv@@@std@@@std@@QEBA?AV?$_Vector_const_iterator@V?$_Vector_val@U?$_Simple_types@V?$Rect_@H@cv@@@std@@@std@@@2@XZ 000000018003a3b0 f i cgCommon.obj
 0001:00039410       ?pointer_to@?$pointer_traits@PEBV?$Rect_@H@cv@@@std@@SAPEBV?$Rect_@H@cv@@AEBV34@@Z 000000018003a410 f i cgCommon.obj
 0001:00039430       ?size@?$vector@V?$Rect_@H@cv@@V?$allocator@V?$Rect_@H@cv@@@std@@@std@@QEBA_KXZ 000000018003a430 f i cgCommon.obj
 0001:00039640       ??0MWSURF@cv@@QEAA@XZ      000000018003a640 f   mwsurf.obj
 0001:00039740       ??0MWSURF@cv@@QEAA@NHH_N0@Z 000000018003a740 f   mwsurf.obj
 0001:00039850       ?descriptorSize@MWSURF@cv@@UEBAHXZ 000000018003a850 f   mwsurf.obj
 0001:00039890       ?descriptorType@MWSURF@cv@@UEBAHXZ 000000018003a890 f   mwsurf.obj
 0001:000398b0       ?setUpright@MWSURF@cv@@QEAAX_N@Z 000000018003a8b0 f   mwsurf.obj
 0001:000398d0       ?setExtended@MWSURF@cv@@QEAAX_N@Z 000000018003a8d0 f   mwsurf.obj
 0001:000398f0       ?setThreshold@MWSURF@cv@@QEAAXN@Z 000000018003a8f0 f   mwsurf.obj
 0001:00039920       ?setNOctaves@MWSURF@cv@@QEAAXH@Z 000000018003a920 f   mwsurf.obj
 0001:00039940       ?setNOctaveLayers@MWSURF@cv@@QEAAXH@Z 000000018003a940 f   mwsurf.obj
 0001:00039960       ??RMWSURF@cv@@QEBAXAEBV_InputArray@1@0AEAV?$vector@VKeyPoint@cv@@V?$allocator@VKeyPoint@cv@@@std@@@std@@@Z 000000018003a960 f   mwsurf.obj
 0001:000399b0       ??RMWSURF@cv@@QEBAXAEBV_InputArray@1@0AEAV?$vector@VKeyPoint@cv@@V?$allocator@VKeyPoint@cv@@@std@@@std@@AEBV_OutputArray@1@_N@Z 000000018003a9b0 f   mwsurf.obj
 0001:0003a460       ?detect@MWSURF@cv@@QEBAXAEBVMat@2@AEAV?$vector@VKeyPoint@cv@@V?$allocator@VKeyPoint@cv@@@std@@@std@@0@Z 000000018003b460 f   mwsurf.obj
 0001:0003a4a0       ?compute@MWSURF@cv@@QEBAXAEBVMat@2@AEAV?$vector@VKeyPoint@cv@@V?$allocator@VKeyPoint@cv@@@std@@@std@@AEAV32@@Z 000000018003b4a0 f   mwsurf.obj
 0001:0003a4e0       ?detectImpl@MWSURF@cv@@IEBAXAEBVMat@2@AEAV?$vector@VKeyPoint@cv@@V?$allocator@VKeyPoint@cv@@@std@@@std@@0@Z 000000018003b4e0 f   mwsurf.obj
 0001:0003a580       ?computeImpl@MWSURF@cv@@IEBAXAEBVMat@2@AEAV?$vector@VKeyPoint@cv@@V?$allocator@VKeyPoint@cv@@@std@@@std@@AEAV32@@Z 000000018003b580 f   mwsurf.obj
 0001:0003b7b0       ?findMaximaInLayer@MWSURFFindInvoker@cv@@SAXAEBVMat@2@0AEBV?$vector@VMat@cv@@V?$allocator@VMat@cv@@@std@@@std@@1AEBV?$vector@HV?$allocator@H@std@@@5@AEAV?$vector@VKeyPoint@cv@@V?$allocator@VKeyPoint@cv@@@std@@@5@HHMH@Z 000000018003c7b0 f   mwsurf.obj
 0001:0003ca60       ??$?0$$V@?$_Compressed_pair@U?$_Wrap_alloc@V?$allocator@M@std@@@std@@V?$_Vector_val@U?$_Simple_types@M@std@@@2@$00@std@@QEAA@U_Zero_then_variadic_args_t@1@@Z 000000018003da60 f i mwsurf.obj
 0001:0003ca90       ??$?0$$V@?$_Compressed_pair@U?$_Wrap_alloc@V?$allocator@V?$Point_@H@cv@@@std@@@std@@V?$_Vector_val@U?$_Simple_types@V?$Point_@H@cv@@@std@@@2@$00@std@@QEAA@U_Zero_then_variadic_args_t@1@@Z 000000018003da90 f i mwsurf.obj
 0001:0003cac0       ??$?0AEAPEAVKeyPoint@cv@@AEAPEAV01@X$0A@@?$pair@PEAVKeyPoint@cv@@PEAV12@@std@@QEAA@AEAPEAVKeyPoint@cv@@0@Z 000000018003dac0 f i mwsurf.obj
 0001:0003cb10       ??$?0AEBV?$allocator@H@std@@$$V@?$_Compressed_pair@U?$_Wrap_alloc@V?$allocator@H@std@@@std@@V?$_Vector_val@U?$_Simple_types@H@std@@@2@$00@std@@QEAA@U_One_then_variadic_args_t@1@AEBV?$allocator@H@1@@Z 000000018003db10 f i mwsurf.obj
 0001:0003cb50       ??$?0AEBV?$allocator@H@std@@@?$_Wrap_alloc@V?$allocator@H@std@@@std@@QEAA@AEBV?$allocator@H@1@@Z 000000018003db50 f i mwsurf.obj
 0001:0003cb80       ??$?0AEBV?$allocator@H@std@@X@?$_Vector_alloc@U?$_Vec_base_types@HV?$allocator@H@std@@@std@@@std@@QEAA@AEBV?$allocator@H@1@@Z 000000018003db80 f i mwsurf.obj
 0001:0003cbc0       ??$?0AEBV?$allocator@VMat@cv@@@std@@$$V@?$_Compressed_pair@U?$_Wrap_alloc@V?$allocator@VMat@cv@@@std@@@std@@V?$_Vector_val@U?$_Simple_types@VMat@cv@@@std@@@2@$00@std@@QEAA@U_One_then_variadic_args_t@1@AEBV?$allocator@VMat@cv@@@1@@Z 000000018003dbc0 f i mwsurf.obj
 0001:0003cc00       ??$?0AEBV?$allocator@VMat@cv@@@std@@@?$_Wrap_alloc@V?$allocator@VMat@cv@@@std@@@std@@QEAA@AEBV?$allocator@VMat@cv@@@1@@Z 000000018003dc00 f i mwsurf.obj
 0001:0003cc30       ??$?0AEBV?$allocator@VMat@cv@@@std@@X@?$_Vector_alloc@U?$_Vec_base_types@VMat@cv@@V?$allocator@VMat@cv@@@std@@@std@@@std@@QEAA@AEBV?$allocator@VMat@cv@@@1@@Z 000000018003dc30 f i mwsurf.obj
 0001:0003cc70       ??$?0M$02$00@Mat@cv@@QEAA@AEBV?$Matx@M$02$00@1@_N@Z 000000018003dc70 f i mwsurf.obj
 0001:0003cf10       ??$?0M$02$02@Mat@cv@@QEAA@AEBV?$Matx@M$02$02@1@_N@Z 000000018003df10 f i mwsurf.obj
 0001:0003d1b0       ??$?0UCvMat@@@?$Ptr@UCvMat@@@cv@@QEAA@PEAUCvMat@@@Z 000000018003e1b0 f i mwsurf.obj
 0001:0003d250       ??$?BH@CvPoint@@QEBA?AV?$Point_@H@cv@@XZ 000000018003e250 f i mwsurf.obj
 0001:0003d2a0       ??$_Copy_memmove@PEAMPEAM@std@@YAPEAMPEAM00@Z 000000018003e2a0 f i mwsurf.obj
 0001:0003d310       ??$_Destroy_range1@V?$allocator@H@std@@PEAH@std@@YAXPEAH0AEAU?$_Wrap_alloc@V?$allocator@H@std@@@0@U?$integral_constant@_N$00@0@@Z 000000018003e310 f i mwsurf.obj
 0001:0003d330       ??$_Destroy_range1@V?$allocator@M@std@@PEAM@std@@YAXPEAM0AEAU?$_Wrap_alloc@V?$allocator@M@std@@@0@U?$integral_constant@_N$00@0@@Z 000000018003e330 f i mwsurf.obj
 0001:0003d350       ??$_Destroy_range1@V?$allocator@V?$Point_@H@cv@@@std@@PEAV?$Point_@H@cv@@@std@@YAXPEAV?$Point_@H@cv@@0AEAU?$_Wrap_alloc@V?$allocator@V?$Point_@H@cv@@@std@@@0@U?$integral_constant@_N$00@0@@Z 000000018003e350 f i mwsurf.obj
 0001:0003d370       ??$_Destroy_range1@V?$allocator@VMat@cv@@@std@@PEAVMat@cv@@@std@@YAXPEAVMat@cv@@0AEAU?$_Wrap_alloc@V?$allocator@VMat@cv@@@std@@@0@U?$integral_constant@_N$0A@@0@@Z 000000018003e370 f i mwsurf.obj
 0001:0003d3d0       ??$_Destroy_range@V?$allocator@H@std@@PEAH@std@@YAXPEAH0AEAU?$_Wrap_alloc@V?$allocator@H@std@@@0@@Z 000000018003e3d0 f i mwsurf.obj
 0001:0003d410       ??$_Destroy_range@V?$allocator@M@std@@PEAM@std@@YAXPEAM0AEAU?$_Wrap_alloc@V?$allocator@M@std@@@0@@Z 000000018003e410 f i mwsurf.obj
 0001:0003d450       ??$_Destroy_range@V?$allocator@V?$Point_@H@cv@@@std@@PEAV?$Point_@H@cv@@@std@@YAXPEAV?$Point_@H@cv@@0AEAU?$_Wrap_alloc@V?$allocator@V?$Point_@H@cv@@@std@@@0@@Z 000000018003e450 f i mwsurf.obj
 0001:0003d490       ??$_Destroy_range@V?$allocator@VMat@cv@@@std@@PEAVMat@cv@@@std@@YAXPEAVMat@cv@@0AEAU?$_Wrap_alloc@V?$allocator@VMat@cv@@@std@@@0@@Z 000000018003e490 f i mwsurf.obj
 0001:0003d4d0       ??$_Guess_median_unchecked@PEAVKeyPoint@cv@@UKeypointGreater@2@@std@@YAXPEAVKeyPoint@cv@@00AEAUKeypointGreater@2@@Z 000000018003e4d0 f i mwsurf.obj
 0001:0003d640       ??$_Insertion_sort_unchecked@PEAVKeyPoint@cv@@UKeypointGreater@2@@std@@YAXPEAVKeyPoint@cv@@0AEAUKeypointGreater@2@@Z 000000018003e640 f i mwsurf.obj
 0001:0003d790       ??$_Make_heap_unchecked@PEAVKeyPoint@cv@@UKeypointGreater@2@@std@@YAXPEAVKeyPoint@cv@@0AEAUKeypointGreater@2@@Z 000000018003e790 f i mwsurf.obj
 0001:0003d850       ??$_Med3_unchecked@PEAVKeyPoint@cv@@UKeypointGreater@2@@std@@YAXPEAVKeyPoint@cv@@00AEAUKeypointGreater@2@@Z 000000018003e850 f i mwsurf.obj
 0001:0003d8f0       ??$_Move_backward_unchecked1@PEAVKeyPoint@cv@@PEAV12@@std@@YAPEAVKeyPoint@cv@@PEAV12@00U_General_ptr_iterator_tag@0@@Z 000000018003e8f0 f i mwsurf.obj
 0001:0003d960       ??$_Move_backward_unchecked@PEAVKeyPoint@cv@@PEAV12@@std@@YAPEAVKeyPoint@cv@@PEAV12@00@Z 000000018003e960 f i mwsurf.obj
 0001:0003d9b0       ??$_Partition_by_median_guess_unchecked@PEAVKeyPoint@cv@@UKeypointGreater@2@@std@@YA?AU?$pair@PEAVKeyPoint@cv@@PEAV12@@0@PEAVKeyPoint@cv@@0AEAUKeypointGreater@3@@Z 000000018003e9b0 f i mwsurf.obj
 0001:0003dde0       ??$_Pop_heap_hole_by_index@PEAVKeyPoint@cv@@_JV12@UKeypointGreater@2@@std@@YAXPEAVKeyPoint@cv@@_J1$$QEAV12@AEAUKeypointGreater@2@@Z 000000018003ede0 f i mwsurf.obj
 0001:0003df70       ??$_Pop_heap_hole_unchecked@PEAVKeyPoint@cv@@V12@UKeypointGreater@2@@std@@YAXPEAVKeyPoint@cv@@00$$QEAV12@AEAUKeypointGreater@2@@Z 000000018003ef70 f i mwsurf.obj
 0001:0003e000       ??$_Pop_heap_unchecked@PEAVKeyPoint@cv@@UKeypointGreater@2@@std@@YAXPEAVKeyPoint@cv@@0AEAUKeypointGreater@2@@Z 000000018003f000 f i mwsurf.obj
 0001:0003e090       ??$_Ptr_copy_cat@V?$Point_@H@cv@@V12@@std@@YA?AU_General_ptr_iterator_tag@0@AEBQEAV?$Point_@H@cv@@0@Z 000000018003f090 f i mwsurf.obj
 0001:0003e0c0       ??$_Ptr_move_cat@MM@std@@YA?AU_Really_trivial_ptr_iterator_tag@0@AEBQEAM0@Z 000000018003f0c0 f i mwsurf.obj
 0001:0003e0e0       ??$_Ptr_move_cat@VKeyPoint@cv@@V12@@std@@YA?AU_General_ptr_iterator_tag@0@AEBQEAVKeyPoint@cv@@0@Z 000000018003f0e0 f i mwsurf.obj
 0001:0003e110       ??$_Push_heap_by_index@PEAVKeyPoint@cv@@_JV12@UKeypointGreater@2@@std@@YAXPEAVKeyPoint@cv@@_J1$$QEAV12@AEAUKeypointGreater@2@@Z 000000018003f110 f i mwsurf.obj
 0001:0003e200       ??$_Rechecked@PEAMPEAM@std@@YAAEAPEAMAEAPEAMPEAM@Z 000000018003f200 f i mwsurf.obj
 0001:0003e220       ??$_Rechecked@PEAV?$Point_@H@cv@@PEAV12@@std@@YAAEAPEAV?$Point_@H@cv@@AEAPEAV12@PEAV12@@Z 000000018003f220 f i mwsurf.obj
 0001:0003e9d0       ??$_Sort_heap_unchecked@PEAVKeyPoint@cv@@UKeypointGreater@2@@std@@YAXPEAVKeyPoint@cv@@0AEAUKeypointGreater@2@@Z 000000018003f9d0 f i mwsurf.obj
 0001:0003ea30       ??$_Sort_unchecked1@PEAVKeyPoint@cv@@_JUKeypointGreater@2@@std@@YAXPEAVKeyPoint@cv@@0_JAEAUKeypointGreater@2@@Z 000000018003fa30 f i mwsurf.obj
 0001:0003ebb0       ??$_Sort_unchecked@PEAVKeyPoint@cv@@UKeypointGreater@2@@std@@YAXPEAVKeyPoint@cv@@0AEAUKeypointGreater@2@@Z 000000018003fbb0 f i mwsurf.obj
 0001:0003ec00       ??$_Unchecked@PEAM@std@@YAPEAMPEAM@Z 000000018003fc00 f i mwsurf.obj
 0001:0003ec10       ??$_Unchecked@PEAV?$Point_@H@cv@@@std@@YAPEAV?$Point_@H@cv@@PEAV12@@Z 000000018003fc10 f i mwsurf.obj
 0001:0003ec20       ??$_Unchecked@V?$_Vector_val@U?$_Simple_types@VKeyPoint@cv@@@std@@@std@@@std@@YAPEAVKeyPoint@cv@@V?$_Vector_iterator@V?$_Vector_val@U?$_Simple_types@VKeyPoint@cv@@@std@@@std@@@0@@Z 000000018003fc20 f i mwsurf.obj
 0001:0003ec40       ??$_Unfancy@V?$Point_@H@cv@@@std@@YAPEAV?$Point_@H@cv@@PEAV12@@Z 000000018003fc40 f i mwsurf.obj
 0001:0003ec50       ??$_Unfancy@VMat@cv@@@std@@YAPEAVMat@cv@@PEAV12@@Z 000000018003fc50 f i mwsurf.obj
 0001:0003ec60       ??$_Uninitialized_copy@PEAV?$Point_@H@cv@@PEAV12@V?$allocator@V?$Point_@H@cv@@@std@@@std@@YAPEAV?$Point_@H@cv@@PEAV12@00AEAU?$_Wrap_alloc@V?$allocator@V?$Point_@H@cv@@@std@@@0@@Z 000000018003fc60 f i mwsurf.obj
 0001:0003ed20       ??$_Uninitialized_copy_al_unchecked@PEAV?$Point_@H@cv@@PEAV12@V?$allocator@V?$Point_@H@cv@@@std@@@std@@YAPEAV?$Point_@H@cv@@PEAV12@00AEAU?$_Wrap_alloc@V?$allocator@V?$Point_@H@cv@@@std@@@0@U_General_ptr_iterator_tag@0@U_Any_tag@0@@Z 000000018003fd20 f i mwsurf.obj
 0001:0003edb0       ??$_Uninitialized_default_fill_n1@PEAH_KV?$allocator@H@std@@@std@@YAPEAHPEAH_KAEAU?$_Wrap_alloc@V?$allocator@H@std@@@0@U?$integral_constant@_N$00@0@@Z 000000018003fdb0 f i mwsurf.obj
 0001:0003ee00       ??$_Uninitialized_default_fill_n1@PEAM_KV?$allocator@M@std@@@std@@YAPEAMPEAM_KAEAU?$_Wrap_alloc@V?$allocator@M@std@@@0@U?$integral_constant@_N$00@0@@Z 000000018003fe00 f i mwsurf.obj
 0001:0003ee50       ??$_Uninitialized_default_fill_n1@PEAV?$Point_@H@cv@@_KV?$allocator@V?$Point_@H@cv@@@std@@@std@@YAPEAV?$Point_@H@cv@@PEAV12@_KAEAU?$_Wrap_alloc@V?$allocator@V?$Point_@H@cv@@@std@@@0@U?$integral_constant@_N$0A@@0@@Z 000000018003fe50 f i mwsurf.obj
 0001:0003eed0       ??$_Uninitialized_default_fill_n1@PEAVKeyPoint@cv@@_KV?$allocator@VKeyPoint@cv@@@std@@@std@@YAPEAVKeyPoint@cv@@PEAV12@_KAEAU?$_Wrap_alloc@V?$allocator@VKeyPoint@cv@@@std@@@0@U?$integral_constant@_N$0A@@0@@Z 000000018003fed0 f i mwsurf.obj
 0001:0003ef50       ??$_Uninitialized_default_fill_n1@PEAVMat@cv@@_KV?$allocator@VMat@cv@@@std@@@std@@YAPEAVMat@cv@@PEAV12@_KAEAU?$_Wrap_alloc@V?$allocator@VMat@cv@@@std@@@0@U?$integral_constant@_N$0A@@0@@Z 000000018003ff50 f i mwsurf.obj
 0001:0003efd0       ??$_Uninitialized_default_fill_n@PEAH_KV?$allocator@H@std@@@std@@YAPEAHPEAH_KAEAU?$_Wrap_alloc@V?$allocator@H@std@@@0@@Z 000000018003ffd0 f i mwsurf.obj
 0001:0003f010       ??$_Uninitialized_default_fill_n@PEAM_KV?$allocator@M@std@@@std@@YAPEAMPEAM_KAEAU?$_Wrap_alloc@V?$allocator@M@std@@@0@@Z 0000000180040010 f i mwsurf.obj
 0001:0003f050       ??$_Uninitialized_default_fill_n@PEAV?$Point_@H@cv@@_KV?$allocator@V?$Point_@H@cv@@@std@@@std@@YAPEAV?$Point_@H@cv@@PEAV12@_KAEAU?$_Wrap_alloc@V?$allocator@V?$Point_@H@cv@@@std@@@0@@Z 0000000180040050 f i mwsurf.obj
 0001:0003f090       ??$_Uninitialized_default_fill_n@PEAVKeyPoint@cv@@_KV?$allocator@VKeyPoint@cv@@@std@@@std@@YAPEAVKeyPoint@cv@@PEAV12@_KAEAU?$_Wrap_alloc@V?$allocator@VKeyPoint@cv@@@std@@@0@@Z 0000000180040090 f i mwsurf.obj
 0001:0003f0d0       ??$_Uninitialized_default_fill_n@PEAVMat@cv@@_KV?$allocator@VMat@cv@@@std@@@std@@YAPEAVMat@cv@@PEAV12@_KAEAU?$_Wrap_alloc@V?$allocator@VMat@cv@@@std@@@0@@Z 00000001800400d0 f i mwsurf.obj
 0001:0003f110       ??$_Uninitialized_move@PEAMPEAMV?$allocator@M@std@@@std@@YAPEAMPEAM00AEAU?$_Wrap_alloc@V?$allocator@M@std@@@0@@Z 0000000180040110 f i mwsurf.obj
 0001:0003f1b0       ??$_Uninitialized_move_al_unchecked@MMV?$allocator@M@std@@@std@@YAPEAMPEAM00AEAU?$_Wrap_alloc@V?$allocator@M@std@@@0@U_Really_trivial_ptr_iterator_tag@0@U?$integral_constant@_N$00@0@@Z 00000001800401b0 f i mwsurf.obj
 0001:0003f1f0       ??$addressof@V?$_Vector_val@U?$_Simple_types@VKeyPoint@cv@@@std@@@std@@@std@@YAPEAV?$_Vector_val@U?$_Simple_types@VKeyPoint@cv@@@std@@@0@AEAV10@@Z 00000001800401f0 f i mwsurf.obj
 0001:0003f200       ??$at@E@Mat@cv@@QEBAAEBEHH@Z 0000000180040200 f i mwsurf.obj
 0001:0003f250       ??$at@H@Mat@cv@@QEBAAEBHHH@Z 0000000180040250 f i mwsurf.obj
 0001:0003f2a0       ??$at@M@Mat@cv@@QEAAAEAMHH@Z 00000001800402a0 f i mwsurf.obj
 0001:0003f2f0       ??$at@M@Mat@cv@@QEBAAEBMHH@Z 00000001800402f0 f i mwsurf.obj
 0001:0003f340       ??$construct@V?$Point_@H@cv@@$$V@?$_Wrap_alloc@V?$allocator@V?$Point_@H@cv@@@std@@@std@@QEAAXPEAV?$Point_@H@cv@@@Z 0000000180040340 f i mwsurf.obj
 0001:0003f370       ??$construct@V?$Point_@H@cv@@$$V@?$allocator@V?$Point_@H@cv@@@std@@QEAAXPEAV?$Point_@H@cv@@@Z 0000000180040370 f i mwsurf.obj
 0001:0003f3d0       ??$construct@V?$Point_@H@cv@@$$V@?$allocator_traits@V?$allocator@V?$Point_@H@cv@@@std@@@std@@SAXAEAV?$allocator@V?$Point_@H@cv@@@1@PEAV?$Point_@H@cv@@@Z 00000001800403d0 f i mwsurf.obj
 0001:0003f400       ??$construct@V?$Point_@H@cv@@AEAV12@@?$_Wrap_alloc@V?$allocator@V?$Point_@H@cv@@@std@@@std@@QEAAXPEAV?$Point_@H@cv@@AEAV23@@Z 0000000180040400 f i mwsurf.obj
 0001:0003f440       ??$construct@V?$Point_@H@cv@@AEAV12@@?$allocator@V?$Point_@H@cv@@@std@@QEAAXPEAV?$Point_@H@cv@@AEAV23@@Z 0000000180040440 f i mwsurf.obj
 0001:0003f4b0       ??$construct@V?$Point_@H@cv@@AEAV12@@?$allocator_traits@V?$allocator@V?$Point_@H@cv@@@std@@@std@@SAXAEAV?$allocator@V?$Point_@H@cv@@@1@PEAV?$Point_@H@cv@@AEAV34@@Z 00000001800404b0 f i mwsurf.obj
 0001:0003f4f0       ??$construct@VKeyPoint@cv@@$$V@?$_Wrap_alloc@V?$allocator@VKeyPoint@cv@@@std@@@std@@QEAAXPEAVKeyPoint@cv@@@Z 00000001800404f0 f i mwsurf.obj
 0001:0003f520       ??$construct@VKeyPoint@cv@@$$V@?$allocator@VKeyPoint@cv@@@std@@QEAAXPEAVKeyPoint@cv@@@Z 0000000180040520 f i mwsurf.obj
 0001:0003f580       ??$construct@VKeyPoint@cv@@$$V@?$allocator_traits@V?$allocator@VKeyPoint@cv@@@std@@@std@@SAXAEAV?$allocator@VKeyPoint@cv@@@1@PEAVKeyPoint@cv@@@Z 0000000180040580 f i mwsurf.obj
 0001:0003f5b0       ??$construct@VMat@cv@@$$V@?$_Wrap_alloc@V?$allocator@VMat@cv@@@std@@@std@@QEAAXPEAVMat@cv@@@Z 00000001800405b0 f i mwsurf.obj
 0001:0003f5e0       ??$construct@VMat@cv@@$$V@?$allocator@VMat@cv@@@std@@QEAAXPEAVMat@cv@@@Z 00000001800405e0 f i mwsurf.obj
 0001:0003f640       ??$construct@VMat@cv@@$$V@?$allocator_traits@V?$allocator@VMat@cv@@@std@@@std@@SAXAEAV?$allocator@VMat@cv@@@1@PEAVMat@cv@@@Z 0000000180040640 f i mwsurf.obj
 0001:0003f670       ??$destroy@VMat@cv@@@?$_Wrap_alloc@V?$allocator@VMat@cv@@@std@@@std@@QEAAXPEAVMat@cv@@@Z 0000000180040670 f i mwsurf.obj
 0001:0003f6a0       ??$destroy@VMat@cv@@@?$allocator@VMat@cv@@@std@@QEAAXPEAVMat@cv@@@Z 00000001800406a0 f i mwsurf.obj
 0001:0003f6c0       ??$destroy@VMat@cv@@@?$allocator_traits@V?$allocator@VMat@cv@@@std@@@std@@SAXAEAV?$allocator@VMat@cv@@@1@PEAVMat@cv@@@Z 00000001800406c0 f i mwsurf.obj
 0001:0003f6f0       ??$forward@AEAPEAVKeyPoint@cv@@@std@@YAAEAPEAVKeyPoint@cv@@AEAPEAV12@@Z 00000001800406f0 f i mwsurf.obj
 0001:0003f700       ??$forward@AEAV?$Point_@H@cv@@@std@@YAAEAV?$Point_@H@cv@@AEAV12@@Z 0000000180040700 f i mwsurf.obj
 0001:0003f710       ??$forward@AEBV?$allocator@H@std@@@std@@YAAEBV?$allocator@H@0@AEBV10@@Z 0000000180040710 f i mwsurf.obj
 0001:0003f720       ??$forward@AEBV?$allocator@VMat@cv@@@std@@@std@@YAAEBV?$allocator@VMat@cv@@@0@AEBV10@@Z 0000000180040720 f i mwsurf.obj
 0001:0003f730       ??$iter_swap@PEAVKeyPoint@cv@@PEAV12@@std@@YAXPEAVKeyPoint@cv@@0@Z 0000000180040730 f i mwsurf.obj
 0001:0003f760       ??$max@H@std@@YAAEBHAEBH0@Z 0000000180040760 f i mwsurf.obj
 0001:0003f7b0       ??$max@M@std@@YAAEBMAEBM0@Z 00000001800407b0 f i mwsurf.obj
 0001:0003f800       ??$min@H@std@@YAAEBHAEBH0@Z 0000000180040800 f i mwsurf.obj
 0001:0003f850       ??$move@AEAVKeyPoint@cv@@@std@@YA$$QEAVKeyPoint@cv@@AEAV12@@Z 0000000180040850 f i mwsurf.obj
 0001:0003f860       ??$ptr@H@Mat@cv@@QEBAPEBHH@Z 0000000180040860 f i mwsurf.obj
 0001:0003f8a0       ??$ptr@M@Mat@cv@@QEAAPEAMH@Z 00000001800408a0 f i mwsurf.obj
 0001:0003f8e0       ??$ptr@M@Mat@cv@@QEBAPEBMH@Z 00000001800408e0 f i mwsurf.obj
 0001:0003f920       ??$solve@$00@?$Matx@M$02$02@cv@@QEBA?AV?$Matx@M$02$00@1@AEBV21@H@Z 0000000180040920 f i mwsurf.obj
 0001:0003fb30       ??$sort@V?$_Vector_iterator@V?$_Vector_val@U?$_Simple_types@VKeyPoint@cv@@@std@@@std@@@std@@UKeypointGreater@cv@@@std@@YAXV?$_Vector_iterator@V?$_Vector_val@U?$_Simple_types@VKeyPoint@cv@@@std@@@std@@@0@0UKeypointGreater@cv@@@Z 0000000180040b30 f i mwsurf.obj
 0001:0003fb80       ??$swap@VKeyPoint@cv@@X@std@@YAXAEAVKeyPoint@cv@@0@Z 0000000180040b80 f i mwsurf.obj
 0001:0003fc40       ??0?$Matx@M$02$00@cv@@QEAA@MMM@Z 0000000180040c40 f i mwsurf.obj
 0001:0003fce0       ??0?$Matx@M$02$00@cv@@QEAA@PEBM@Z 0000000180040ce0 f i mwsurf.obj
 0001:0003fd30       ??0?$Matx@M$02$00@cv@@QEAA@XZ 0000000180040d30 f i mwsurf.obj
 0001:0003fd70       ??0?$Matx@M$02$02@cv@@QEAA@MMMMMMMMM@Z 0000000180040d70 f i mwsurf.obj
 0001:0003fea0       ??0?$Point_@H@cv@@QEAA@AEBV01@@Z 0000000180040ea0 f i mwsurf.obj
 0001:0003fed0       ??0?$Point_@H@cv@@QEAA@HH@Z 0000000180040ed0 f i mwsurf.obj
 0001:0003ff00       ??0?$Point_@H@cv@@QEAA@XZ  0000000180040f00 f i mwsurf.obj
 0001:0003ff30       ??0?$PtrOwnerImpl@UCvMat@@U?$DefaultDeleter@UCvMat@@@cv@@@detail@cv@@QEAA@PEAUCvMat@@U?$DefaultDeleter@UCvMat@@@2@@Z 0000000180040f30 f i mwsurf.obj
 0001:0003ff80       ??0?$Size_@H@cv@@QEAA@XZ   0000000180040f80 f i mwsurf.obj
 0001:0003ffb0       ??0?$Vec@M$02@cv@@QEAA@AEBV01@@Z 0000000180040fb0 f i mwsurf.obj
 0001:0003ffe0       ??0?$Vec@M$02@cv@@QEAA@MMM@Z 0000000180040fe0 f i mwsurf.obj
 0001:00040030       ??0?$_Vector_alloc@U?$_Vec_base_types@MV?$allocator@M@std@@@std@@@std@@QEAA@XZ 0000000180041030 f i mwsurf.obj
 0001:00040060       ??0?$_Vector_alloc@U?$_Vec_base_types@V?$Point_@H@cv@@V?$allocator@V?$Point_@H@cv@@@std@@@std@@@std@@QEAA@XZ 0000000180041060 f i mwsurf.obj
 0001:00040090       ??0?$_Vector_const_iterator@V?$_Vector_val@U?$_Simple_types@VKeyPoint@cv@@@std@@@std@@@std@@QEAA@PEAVKeyPoint@cv@@PEBU_Container_base0@1@@Z 0000000180041090 f i mwsurf.obj
 0001:000400d0       ??0?$_Vector_iterator@V?$_Vector_val@U?$_Simple_types@VKeyPoint@cv@@@std@@@std@@@std@@QEAA@PEAVKeyPoint@cv@@PEBU_Container_base0@1@@Z 00000001800410d0 f i mwsurf.obj
 0001:00040110       ??0?$_Vector_val@U?$_Simple_types@H@std@@@std@@QEAA@XZ 0000000180041110 f i mwsurf.obj
 0001:00040150       ??0?$_Vector_val@U?$_Simple_types@M@std@@@std@@QEAA@XZ 0000000180041150 f i mwsurf.obj
 0001:00040190       ??0?$_Vector_val@U?$_Simple_types@V?$Point_@H@cv@@@std@@@std@@QEAA@XZ 0000000180041190 f i mwsurf.obj
 0001:000401d0       ??0?$_Vector_val@U?$_Simple_types@VMat@cv@@@std@@@std@@QEAA@XZ 00000001800411d0 f i mwsurf.obj
 0001:00040210       ??0?$_Wrap_alloc@V?$allocator@M@std@@@std@@QEAA@XZ 0000000180041210 f i mwsurf.obj
 0001:00040230       ??0?$_Wrap_alloc@V?$allocator@V?$Point_@H@cv@@@std@@@std@@QEAA@XZ 0000000180041230 f i mwsurf.obj
 0001:00040250       ??0?$allocator@H@std@@QEAA@AEBV01@@Z 0000000180041250 f i mwsurf.obj
 0001:00040260       ??0?$allocator@H@std@@QEAA@XZ 0000000180041260 f i mwsurf.obj
 0001:00040270       ??0?$allocator@M@std@@QEAA@XZ 0000000180041270 f i mwsurf.obj
 0001:00040280       ??0?$allocator@V?$Point_@H@cv@@@std@@QEAA@XZ 0000000180041280 f i mwsurf.obj
 0001:00040290       ??0?$allocator@VMat@cv@@@std@@QEAA@AEBV01@@Z 0000000180041290 f i mwsurf.obj
 0001:000402a0       ??0?$allocator@VMat@cv@@@std@@QEAA@XZ 00000001800412a0 f i mwsurf.obj
 0001:000402b0       ??0?$vector@HV?$allocator@H@std@@@std@@QEAA@_KAEBV?$allocator@H@1@@Z 00000001800412b0 f i mwsurf.obj
 0001:00040330       ??0?$vector@MV?$allocator@M@std@@@std@@QEAA@XZ 0000000180041330 f i mwsurf.obj
 0001:00040360       ??0?$vector@V?$Point_@H@cv@@V?$allocator@V?$Point_@H@cv@@@std@@@std@@QEAA@XZ 0000000180041360 f i mwsurf.obj
 0001:00040390       ??0?$vector@VMat@cv@@V?$allocator@VMat@cv@@@std@@@std@@QEAA@_KAEBV?$allocator@VMat@cv@@@1@@Z 0000000180041390 f i mwsurf.obj
 0001:00040410       ??0AutoLock@cv@@QEAA@AEAVMutex@1@@Z 0000000180041410 f i mwsurf.obj
 0001:00040450       ??0CvMat@@QEAA@AEBU0@@Z    0000000180041450 f i mwsurf.obj
 0001:00040480       ??0CvMat@@QEAA@XZ          0000000180041480 f i mwsurf.obj
 0001:00040490       ??0CvPoint@@QEAA@HH@Z      0000000180041490 f i mwsurf.obj
 0001:000404c0       ??0Feature2D@cv@@QEAA@XZ   00000001800414c0 f i mwsurf.obj
 0001:00040560       ??0KeyPoint@cv@@QEAA@$$QEAV01@@Z 0000000180041560 f i mwsurf.obj
 0001:000405f0       ??0KeyPoint@cv@@QEAA@XZ    00000001800415f0 f i mwsurf.obj
 0001:00040660       ??0MWSURFBuildInvoker@cv@@QEAA@AEBVMat@1@AEBV?$vector@HV?$allocator@H@std@@@std@@1AEAV?$vector@VMat@cv@@V?$allocator@VMat@cv@@@std@@@4@2@Z 0000000180041660 f i mwsurf.obj
 0001:000406f0       ??0MWSURFFindInvoker@cv@@QEAA@AEBVMat@1@0AEBV?$vector@VMat@cv@@V?$allocator@VMat@cv@@@std@@@std@@1AEBV?$vector@HV?$allocator@H@std@@@4@22AEAV?$vector@VKeyPoint@cv@@V?$allocator@VKeyPoint@cv@@@std@@@4@HM@Z 00000001800416f0 f i mwsurf.obj
 0001:000407c0       ??0MWSURFInvoker@cv@@QEAA@AEBVMat@1@0AEAV?$vector@VKeyPoint@cv@@V?$allocator@VKeyPoint@cv@@@std@@@std@@AEAV21@_N3@Z 00000001800417c0 f i mwsurf.obj
 0001:00040c00       ??0MWSurfHF@cv@@QEAA@XZ    0000000180041c00 f i mwsurf.obj
 0001:00040c50       ??0ParallelLoopBody@cv@@QEAA@XZ 0000000180041c50 f i mwsurf.obj
 0001:00040c70       ??0Range@cv@@QEAA@HH@Z     0000000180041c70 f i mwsurf.obj
 0001:00040ca0       ??0_InputArray@cv@@QEAA@AEBN@Z 0000000180041ca0 f i mwsurf.obj
 0001:00040d00       ??0_InputArray@cv@@QEAA@AEBVMat@1@@Z 0000000180041d00 f i mwsurf.obj
 0001:00040d40       ??0_InputArray@cv@@QEAA@XZ 0000000180041d40 f i mwsurf.obj
 0001:00040d80       ??0_OutputArray@cv@@QEAA@AEAVMat@1@@Z 0000000180041d80 f i mwsurf.obj
 0001:00040dd0       ??1?$Ptr@UCvMat@@@cv@@QEAA@XZ 0000000180041dd0 f i mwsurf.obj
 0001:00040e00       ??1?$PtrOwnerImpl@UCvMat@@U?$DefaultDeleter@UCvMat@@@cv@@@detail@cv@@UEAA@XZ 0000000180041e00 f i mwsurf.obj
 0001:00040e20       ??1?$vector@HV?$allocator@H@std@@@std@@QEAA@XZ 0000000180041e20 f i mwsurf.obj
 0001:00040e50       ??1?$vector@MV?$allocator@M@std@@@std@@QEAA@XZ 0000000180041e50 f i mwsurf.obj
 0001:00040e80       ??1?$vector@V?$Point_@H@cv@@V?$allocator@V?$Point_@H@cv@@@std@@@std@@QEAA@XZ 0000000180041e80 f i mwsurf.obj
 0001:00040eb0       ??1?$vector@VMat@cv@@V?$allocator@VMat@cv@@@std@@@std@@QEAA@XZ 0000000180041eb0 f i mwsurf.obj
 0001:00040ee0       ??1AutoLock@cv@@QEAA@XZ    0000000180041ee0 f i mwsurf.obj
 0001:00040f10       ??1MWSURF@cv@@UEAA@XZ      0000000180041f10 f i mwsurf.obj
 0001:00040f30       ??1MWSURFBuildInvoker@cv@@UEAA@XZ 0000000180041f30 f i mwsurf.obj
 0001:00040f50       ??1MWSURFFindInvoker@cv@@UEAA@XZ 0000000180041f50 f i mwsurf.obj
 0001:00040f70       ??1MWSURFInvoker@cv@@UEAA@XZ 0000000180041f70 f i mwsurf.obj
 0001:00040fc0       ??1_InputArray@cv@@QEAA@XZ 0000000180041fc0 f i mwsurf.obj
 0001:00040fd0       ??1_OutputArray@cv@@QEAA@XZ 0000000180041fd0 f i mwsurf.obj
 0001:00040ff0       ??4?$Point_@H@cv@@QEAAAEAV01@AEBV01@@Z 0000000180041ff0 f i mwsurf.obj
 0001:00041020       ??4?$Point_@M@cv@@QEAAAEAV01@AEBV01@@Z 0000000180042020 f i mwsurf.obj
 0001:00041060       ??4?$Size_@H@cv@@QEAAAEAV01@AEBV01@@Z 0000000180042060 f i mwsurf.obj
 0001:00041090       ??4KeyPoint@cv@@QEAAAEAV01@$$QEAV01@@Z 0000000180042090 f i mwsurf.obj
 0001:00041120       ??4KeyPoint@cv@@QEAAAEAV01@AEBV01@@Z 0000000180042120 f i mwsurf.obj
 0001:000411b0       ??4Mat@cv@@QEAAAEAV01@$$QEAV01@@Z 00000001800421b0 f i mwsurf.obj
 0001:00041420       ??A?$Vec@M$02@cv@@QEAAAEAMH@Z 0000000180042420 f i mwsurf.obj
 0001:00041440       ??A?$vector@HV?$allocator@H@std@@@std@@QEAAAEAH_K@Z 0000000180042440 f i mwsurf.obj
 0001:00041470       ??A?$vector@HV?$allocator@H@std@@@std@@QEBAAEBH_K@Z 0000000180042470 f i mwsurf.obj
 0001:000414a0       ??A?$vector@MV?$allocator@M@std@@@std@@QEAAAEAM_K@Z 00000001800424a0 f i mwsurf.obj
 0001:000414d0       ??A?$vector@MV?$allocator@M@std@@@std@@QEBAAEBM_K@Z 00000001800424d0 f i mwsurf.obj
 0001:00041500       ??A?$vector@V?$Point_@H@cv@@V?$allocator@V?$Point_@H@cv@@@std@@@std@@QEAAAEAV?$Point_@H@cv@@_K@Z 0000000180042500 f i mwsurf.obj
 0001:00041530       ??A?$vector@V?$Point_@H@cv@@V?$allocator@V?$Point_@H@cv@@@std@@@std@@QEBAAEBV?$Point_@H@cv@@_K@Z 0000000180042530 f i mwsurf.obj
 0001:00041560       ??A?$vector@VMat@cv@@V?$allocator@VMat@cv@@@std@@@std@@QEAAAEAVMat@cv@@_K@Z 0000000180042560 f i mwsurf.obj
 0001:00041590       ??A?$vector@VMat@cv@@V?$allocator@VMat@cv@@@std@@@std@@QEBAAEBVMat@cv@@_K@Z 0000000180042590 f i mwsurf.obj
 0001:000415c0       ??BMatStep@cv@@QEBA_KXZ    00000001800425c0 f i mwsurf.obj
 0001:000415e0       ??C?$Ptr@UCvMat@@@cv@@QEBAPEAUCvMat@@XZ 00000001800425e0 f i mwsurf.obj
 0001:00041680       ??R?$Matx@M$02$00@cv@@QEAAAEAMH@Z 0000000180042680 f i mwsurf.obj
 0001:000416a0       ??R?$Matx@M$02$00@cv@@QEBAAEBMH@Z 00000001800426a0 f i mwsurf.obj
 0001:000416c0       ??R?$Matx@M$02$02@cv@@QEBAAEBMHH@Z 00000001800426c0 f i mwsurf.obj
 0001:000416f0       ??R?$Matx_DetOp@M$02@internal@cv@@QEBANAEBV?$Matx@M$02$02@2@@Z 00000001800426f0 f i mwsurf.obj
 0001:00041970       ??R?$Matx_FastSolveOp@M$02$00@internal@cv@@QEBA_NAEBV?$Matx@M$02$02@2@AEBV?$Matx@M$02$00@2@AEAV42@H@Z 0000000180042970 f i mwsurf.obj
 0001:000421c0       ??RKeypointGreater@cv@@QEBA_NAEBVKeyPoint@1@0@Z 00000001800431c0 f i mwsurf.obj
 0001:000422d0       ??RMWSURFBuildInvoker@cv@@UEBAXAEBVRange@1@@Z 00000001800432d0 f i mwsurf.obj
 0001:000423b0       ??RMWSURFFindInvoker@cv@@UEBAXAEBVRange@1@@Z 00000001800433b0 f i mwsurf.obj
 0001:000424a0       ??RMWSURFInvoker@cv@@UEBAXAEBVRange@1@@Z 00000001800434a0 f i mwsurf.obj
 0001:00043d10       ??_DFeature2D@cv@@QEAAXXZ  0000000180044d10 f i mwsurf.obj
 0001:00043d40       ??_DMWSURF@cv@@QEAAXXZ     0000000180044d40 f i mwsurf.obj
 0001:00043d70       ??_EFeature2D@cv@@$4PPPPPPPM@A@EAAPEAXI@Z 0000000180044d70 f i mwsurf.obj
 0001:00043d7c       ??_EMWSURF@cv@@$4PPPPPPPM@A@EAAPEAXI@Z 0000000180044d7c f i mwsurf.obj
 0001:00043d90       ??_E?$PtrOwnerImpl@UCvMat@@U?$DefaultDeleter@UCvMat@@@cv@@@detail@cv@@UEAAPEAXI@Z 0000000180044d90 f i mwsurf.obj
 0001:00043d90       ??_G?$PtrOwnerImpl@UCvMat@@U?$DefaultDeleter@UCvMat@@@cv@@@detail@cv@@UEAAPEAXI@Z 0000000180044d90 f i mwsurf.obj
 0001:00043dd0       ??_GFeature2D@cv@@UEAAPEAXI@Z 0000000180044dd0 f i mwsurf.obj
 0001:00043dd0       ??_EFeature2D@cv@@UEAAPEAXI@Z 0000000180044dd0 f i mwsurf.obj
 0001:00043e20       ??_EMWSURF@cv@@UEAAPEAXI@Z 0000000180044e20 f i mwsurf.obj
 0001:00043e20       ??_GMWSURF@cv@@UEAAPEAXI@Z 0000000180044e20 f i mwsurf.obj
 0001:00043e70       ??_GMWSURFBuildInvoker@cv@@UEAAPEAXI@Z 0000000180044e70 f i mwsurf.obj
 0001:00043e70       ??_EMWSURFBuildInvoker@cv@@UEAAPEAXI@Z 0000000180044e70 f i mwsurf.obj
 0001:00043eb0       ??_GMWSURFFindInvoker@cv@@UEAAPEAXI@Z 0000000180044eb0 f i mwsurf.obj
 0001:00043eb0       ??_EMWSURFFindInvoker@cv@@UEAAPEAXI@Z 0000000180044eb0 f i mwsurf.obj
 0001:00043ef0       ??_EMWSURFInvoker@cv@@UEAAPEAXI@Z 0000000180044ef0 f i mwsurf.obj
 0001:00043ef0       ??_GMWSURFInvoker@cv@@UEAAPEAXI@Z 0000000180044ef0 f i mwsurf.obj
 0001:00043f30       ??_EParallelLoopBody@cv@@UEAAPEAXI@Z 0000000180044f30 f i mwsurf.obj
 0001:00043f30       ??_GParallelLoopBody@cv@@UEAAPEAXI@Z 0000000180044f30 f i mwsurf.obj
 0001:00043f70       ??_H@YAXPEAX_K1P6APEAX0@Z@Z 0000000180044f70 f i mwsurf.obj
 0001:00043fd0       ?_Buy@?$vector@HV?$allocator@H@std@@@std@@AEAA_N_K@Z 0000000180044fd0 f i mwsurf.obj
 0001:000440c0       ?_Buy@?$vector@VMat@cv@@V?$allocator@VMat@cv@@@std@@@std@@AEAA_N_K@Z 00000001800450c0 f i mwsurf.obj
 0001:000441b0       ?_Calculate_growth@?$vector@MV?$allocator@M@std@@@std@@AEBA_K_K@Z 00000001800451b0 f i mwsurf.obj
 0001:00044240       ?_Calculate_growth@?$vector@V?$Point_@H@cv@@V?$allocator@V?$Point_@H@cv@@@std@@@std@@AEBA_K_K@Z 0000000180045240 f i mwsurf.obj
 0001:000442d0       ?_Change_array@?$vector@MV?$allocator@M@std@@@std@@AEAAXQEAM_K1@Z 00000001800452d0 f i mwsurf.obj
 0001:00044400       ?_Change_array@?$vector@V?$Point_@H@cv@@V?$allocator@V?$Point_@H@cv@@@std@@@std@@AEAAXQEAV?$Point_@H@cv@@_K1@Z 0000000180045400 f i mwsurf.obj
 0001:00044530       ?_Destroy@?$vector@HV?$allocator@H@std@@@std@@AEAAXPEAH0@Z 0000000180045530 f i mwsurf.obj
 0001:00044570       ?_Destroy@?$vector@MV?$allocator@M@std@@@std@@AEAAXPEAM0@Z 0000000180045570 f i mwsurf.obj
 0001:000445b0       ?_Destroy@?$vector@V?$Point_@H@cv@@V?$allocator@V?$Point_@H@cv@@@std@@@std@@AEAAXPEAV?$Point_@H@cv@@0@Z 00000001800455b0 f i mwsurf.obj
 0001:000445f0       ?_Destroy@?$vector@VMat@cv@@V?$allocator@VMat@cv@@@std@@@std@@AEAAXPEAVMat@cv@@0@Z 00000001800455f0 f i mwsurf.obj
 0001:00044630       ?_Get_data@?$_Vector_alloc@U?$_Vec_base_types@HV?$allocator@H@std@@@std@@@std@@QEAAAEAV?$_Vector_val@U?$_Simple_types@H@std@@@2@XZ 0000000180045630 f i mwsurf.obj
 0001:00044650       ?_Get_data@?$_Vector_alloc@U?$_Vec_base_types@HV?$allocator@H@std@@@std@@@std@@QEBAAEBV?$_Vector_val@U?$_Simple_types@H@std@@@2@XZ 0000000180045650 f i mwsurf.obj
 0001:00044670       ?_Get_data@?$_Vector_alloc@U?$_Vec_base_types@MV?$allocator@M@std@@@std@@@std@@QEAAAEAV?$_Vector_val@U?$_Simple_types@M@std@@@2@XZ 0000000180045670 f i mwsurf.obj
 0001:00044690       ?_Get_data@?$_Vector_alloc@U?$_Vec_base_types@MV?$allocator@M@std@@@std@@@std@@QEBAAEBV?$_Vector_val@U?$_Simple_types@M@std@@@2@XZ 0000000180045690 f i mwsurf.obj
 0001:000446b0       ?_Get_data@?$_Vector_alloc@U?$_Vec_base_types@V?$Point_@H@cv@@V?$allocator@V?$Point_@H@cv@@@std@@@std@@@std@@QEAAAEAV?$_Vector_val@U?$_Simple_types@V?$Point_@H@cv@@@std@@@2@XZ 00000001800456b0 f i mwsurf.obj
 0001:000446d0       ?_Get_data@?$_Vector_alloc@U?$_Vec_base_types@V?$Point_@H@cv@@V?$allocator@V?$Point_@H@cv@@@std@@@std@@@std@@QEBAAEBV?$_Vector_val@U?$_Simple_types@V?$Point_@H@cv@@@std@@@2@XZ 00000001800456d0 f i mwsurf.obj
 0001:000446f0       ?_Get_data@?$_Vector_alloc@U?$_Vec_base_types@VMat@cv@@V?$allocator@VMat@cv@@@std@@@std@@@std@@QEAAAEAV?$_Vector_val@U?$_Simple_types@VMat@cv@@@std@@@2@XZ 00000001800456f0 f i mwsurf.obj
 0001:00044710       ?_Get_data@?$_Vector_alloc@U?$_Vec_base_types@VMat@cv@@V?$allocator@VMat@cv@@@std@@@std@@@std@@QEBAAEBV?$_Vector_val@U?$_Simple_types@VMat@cv@@@std@@@2@XZ 0000000180045710 f i mwsurf.obj
 0001:00044730       ?_Get_first@?$_Compressed_pair@U?$_Wrap_alloc@V?$allocator@H@std@@@std@@V?$_Vector_val@U?$_Simple_types@H@std@@@2@$00@std@@QEAAAEAU?$_Wrap_alloc@V?$allocator@H@std@@@2@XZ 0000000180045730 f i mwsurf.obj
 0001:00044740       ?_Get_first@?$_Compressed_pair@U?$_Wrap_alloc@V?$allocator@H@std@@@std@@V?$_Vector_val@U?$_Simple_types@H@std@@@2@$00@std@@QEBAAEBU?$_Wrap_alloc@V?$allocator@H@std@@@2@XZ 0000000180045740 f i mwsurf.obj
 0001:00044750       ?_Get_first@?$_Compressed_pair@U?$_Wrap_alloc@V?$allocator@M@std@@@std@@V?$_Vector_val@U?$_Simple_types@M@std@@@2@$00@std@@QEAAAEAU?$_Wrap_alloc@V?$allocator@M@std@@@2@XZ 0000000180045750 f i mwsurf.obj
 0001:00044760       ?_Get_first@?$_Compressed_pair@U?$_Wrap_alloc@V?$allocator@M@std@@@std@@V?$_Vector_val@U?$_Simple_types@M@std@@@2@$00@std@@QEBAAEBU?$_Wrap_alloc@V?$allocator@M@std@@@2@XZ 0000000180045760 f i mwsurf.obj
 0001:00044770       ?_Get_first@?$_Compressed_pair@U?$_Wrap_alloc@V?$allocator@V?$Point_@H@cv@@@std@@@std@@V?$_Vector_val@U?$_Simple_types@V?$Point_@H@cv@@@std@@@2@$00@std@@QEAAAEAU?$_Wrap_alloc@V?$allocator@V?$Point_@H@cv@@@std@@@2@XZ 0000000180045770 f i mwsurf.obj
 0001:00044780       ?_Get_first@?$_Compressed_pair@U?$_Wrap_alloc@V?$allocator@V?$Point_@H@cv@@@std@@@std@@V?$_Vector_val@U?$_Simple_types@V?$Point_@H@cv@@@std@@@2@$00@std@@QEBAAEBU?$_Wrap_alloc@V?$allocator@V?$Point_@H@cv@@@std@@@2@XZ 0000000180045780 f i mwsurf.obj
 0001:00044790       ?_Get_first@?$_Compressed_pair@U?$_Wrap_alloc@V?$allocator@VMat@cv@@@std@@@std@@V?$_Vector_val@U?$_Simple_types@VMat@cv@@@std@@@2@$00@std@@QEAAAEAU?$_Wrap_alloc@V?$allocator@VMat@cv@@@std@@@2@XZ 0000000180045790 f i mwsurf.obj
 0001:000447a0       ?_Get_first@?$_Compressed_pair@U?$_Wrap_alloc@V?$allocator@VMat@cv@@@std@@@std@@V?$_Vector_val@U?$_Simple_types@VMat@cv@@@std@@@2@$00@std@@QEBAAEBU?$_Wrap_alloc@V?$allocator@VMat@cv@@@std@@@2@XZ 00000001800457a0 f i mwsurf.obj
 0001:000447b0       ?_Get_second@?$_Compressed_pair@U?$_Wrap_alloc@V?$allocator@H@std@@@std@@V?$_Vector_val@U?$_Simple_types@H@std@@@2@$00@std@@QEAAAEAV?$_Vector_val@U?$_Simple_types@H@std@@@2@XZ 00000001800457b0 f i mwsurf.obj
 0001:000447c0       ?_Get_second@?$_Compressed_pair@U?$_Wrap_alloc@V?$allocator@H@std@@@std@@V?$_Vector_val@U?$_Simple_types@H@std@@@2@$00@std@@QEBAAEBV?$_Vector_val@U?$_Simple_types@H@std@@@2@XZ 00000001800457c0 f i mwsurf.obj
 0001:000447d0       ?_Get_second@?$_Compressed_pair@U?$_Wrap_alloc@V?$allocator@M@std@@@std@@V?$_Vector_val@U?$_Simple_types@M@std@@@2@$00@std@@QEAAAEAV?$_Vector_val@U?$_Simple_types@M@std@@@2@XZ 00000001800457d0 f i mwsurf.obj
 0001:000447e0       ?_Get_second@?$_Compressed_pair@U?$_Wrap_alloc@V?$allocator@M@std@@@std@@V?$_Vector_val@U?$_Simple_types@M@std@@@2@$00@std@@QEBAAEBV?$_Vector_val@U?$_Simple_types@M@std@@@2@XZ 00000001800457e0 f i mwsurf.obj
 0001:000447f0       ?_Get_second@?$_Compressed_pair@U?$_Wrap_alloc@V?$allocator@V?$Point_@H@cv@@@std@@@std@@V?$_Vector_val@U?$_Simple_types@V?$Point_@H@cv@@@std@@@2@$00@std@@QEAAAEAV?$_Vector_val@U?$_Simple_types@V?$Point_@H@cv@@@std@@@2@XZ 00000001800457f0 f i mwsurf.obj
 0001:00044800       ?_Get_second@?$_Compressed_pair@U?$_Wrap_alloc@V?$allocator@V?$Point_@H@cv@@@std@@@std@@V?$_Vector_val@U?$_Simple_types@V?$Point_@H@cv@@@std@@@2@$00@std@@QEBAAEBV?$_Vector_val@U?$_Simple_types@V?$Point_@H@cv@@@std@@@2@XZ 0000000180045800 f i mwsurf.obj
 0001:00044810       ?_Get_second@?$_Compressed_pair@U?$_Wrap_alloc@V?$allocator@VMat@cv@@@std@@@std@@V?$_Vector_val@U?$_Simple_types@VMat@cv@@@std@@@2@$00@std@@QEAAAEAV?$_Vector_val@U?$_Simple_types@VMat@cv@@@std@@@2@XZ 0000000180045810 f i mwsurf.obj
 0001:00044820       ?_Get_second@?$_Compressed_pair@U?$_Wrap_alloc@V?$allocator@VMat@cv@@@std@@@std@@V?$_Vector_val@U?$_Simple_types@VMat@cv@@@std@@@2@$00@std@@QEBAAEBV?$_Vector_val@U?$_Simple_types@VMat@cv@@@std@@@2@XZ 0000000180045820 f i mwsurf.obj
 0001:00044830       ?_Getal@?$_Vector_alloc@U?$_Vec_base_types@HV?$allocator@H@std@@@std@@@std@@QEAAAEAU?$_Wrap_alloc@V?$allocator@H@std@@@2@XZ 0000000180045830 f i mwsurf.obj
 0001:00044850       ?_Getal@?$_Vector_alloc@U?$_Vec_base_types@HV?$allocator@H@std@@@std@@@std@@QEBAAEBU?$_Wrap_alloc@V?$allocator@H@std@@@2@XZ 0000000180045850 f i mwsurf.obj
 0001:00044870       ?_Getal@?$_Vector_alloc@U?$_Vec_base_types@MV?$allocator@M@std@@@std@@@std@@QEAAAEAU?$_Wrap_alloc@V?$allocator@M@std@@@2@XZ 0000000180045870 f i mwsurf.obj
 0001:00044890       ?_Getal@?$_Vector_alloc@U?$_Vec_base_types@MV?$allocator@M@std@@@std@@@std@@QEBAAEBU?$_Wrap_alloc@V?$allocator@M@std@@@2@XZ 0000000180045890 f i mwsurf.obj
 0001:000448b0       ?_Getal@?$_Vector_alloc@U?$_Vec_base_types@V?$Point_@H@cv@@V?$allocator@V?$Point_@H@cv@@@std@@@std@@@std@@QEAAAEAU?$_Wrap_alloc@V?$allocator@V?$Point_@H@cv@@@std@@@2@XZ 00000001800458b0 f i mwsurf.obj
 0001:000448d0       ?_Getal@?$_Vector_alloc@U?$_Vec_base_types@V?$Point_@H@cv@@V?$allocator@V?$Point_@H@cv@@@std@@@std@@@std@@QEBAAEBU?$_Wrap_alloc@V?$allocator@V?$Point_@H@cv@@@std@@@2@XZ 00000001800458d0 f i mwsurf.obj
 0001:000448f0       ?_Getal@?$_Vector_alloc@U?$_Vec_base_types@VMat@cv@@V?$allocator@VMat@cv@@@std@@@std@@@std@@QEAAAEAU?$_Wrap_alloc@V?$allocator@VMat@cv@@@std@@@2@XZ 00000001800458f0 f i mwsurf.obj
 0001:00044910       ?_Getal@?$_Vector_alloc@U?$_Vec_base_types@VMat@cv@@V?$allocator@VMat@cv@@@std@@@std@@@std@@QEBAAEBU?$_Wrap_alloc@V?$allocator@VMat@cv@@@std@@@2@XZ 0000000180045910 f i mwsurf.obj
 0001:00044930       ?_Myend@?$_Vector_alloc@U?$_Vec_base_types@HV?$allocator@H@std@@@std@@@std@@QEAAAEAPEAHXZ 0000000180045930 f i mwsurf.obj
 0001:00044950       ?_Myend@?$_Vector_alloc@U?$_Vec_base_types@MV?$allocator@M@std@@@std@@@std@@QEAAAEAPEAMXZ 0000000180045950 f i mwsurf.obj
 0001:00044970       ?_Myend@?$_Vector_alloc@U?$_Vec_base_types@MV?$allocator@M@std@@@std@@@std@@QEBAAEBQEAMXZ 0000000180045970 f i mwsurf.obj
 0001:00044990       ?_Myend@?$_Vector_alloc@U?$_Vec_base_types@V?$Point_@H@cv@@V?$allocator@V?$Point_@H@cv@@@std@@@std@@@std@@QEAAAEAPEAV?$Point_@H@cv@@XZ 0000000180045990 f i mwsurf.obj
 0001:000449b0       ?_Myend@?$_Vector_alloc@U?$_Vec_base_types@V?$Point_@H@cv@@V?$allocator@V?$Point_@H@cv@@@std@@@std@@@std@@QEBAAEBQEAV?$Point_@H@cv@@XZ 00000001800459b0 f i mwsurf.obj
 0001:000449d0       ?_Myend@?$_Vector_alloc@U?$_Vec_base_types@VMat@cv@@V?$allocator@VMat@cv@@@std@@@std@@@std@@QEAAAEAPEAVMat@cv@@XZ 00000001800459d0 f i mwsurf.obj
 0001:000449f0       ?_Myfirst@?$_Vector_alloc@U?$_Vec_base_types@HV?$allocator@H@std@@@std@@@std@@QEAAAEAPEAHXZ 00000001800459f0 f i mwsurf.obj
 0001:00044a10       ?_Myfirst@?$_Vector_alloc@U?$_Vec_base_types@HV?$allocator@H@std@@@std@@@std@@QEBAAEBQEAHXZ 0000000180045a10 f i mwsurf.obj
 0001:00044a30       ?_Myfirst@?$_Vector_alloc@U?$_Vec_base_types@MV?$allocator@M@std@@@std@@@std@@QEAAAEAPEAMXZ 0000000180045a30 f i mwsurf.obj
 0001:00044a50       ?_Myfirst@?$_Vector_alloc@U?$_Vec_base_types@MV?$allocator@M@std@@@std@@@std@@QEBAAEBQEAMXZ 0000000180045a50 f i mwsurf.obj
 0001:00044a70       ?_Myfirst@?$_Vector_alloc@U?$_Vec_base_types@V?$Point_@H@cv@@V?$allocator@V?$Point_@H@cv@@@std@@@std@@@std@@QEAAAEAPEAV?$Point_@H@cv@@XZ 0000000180045a70 f i mwsurf.obj
 0001:00044a90       ?_Myfirst@?$_Vector_alloc@U?$_Vec_base_types@V?$Point_@H@cv@@V?$allocator@V?$Point_@H@cv@@@std@@@std@@@std@@QEBAAEBQEAV?$Point_@H@cv@@XZ 0000000180045a90 f i mwsurf.obj
 0001:00044ab0       ?_Myfirst@?$_Vector_alloc@U?$_Vec_base_types@VMat@cv@@V?$allocator@VMat@cv@@@std@@@std@@@std@@QEAAAEAPEAVMat@cv@@XZ 0000000180045ab0 f i mwsurf.obj
 0001:00044ad0       ?_Myfirst@?$_Vector_alloc@U?$_Vec_base_types@VMat@cv@@V?$allocator@VMat@cv@@@std@@@std@@@std@@QEBAAEBQEAVMat@cv@@XZ 0000000180045ad0 f i mwsurf.obj
 0001:00044af0       ?_Mylast@?$_Vector_alloc@U?$_Vec_base_types@HV?$allocator@H@std@@@std@@@std@@QEAAAEAPEAHXZ 0000000180045af0 f i mwsurf.obj
 0001:00044b10       ?_Mylast@?$_Vector_alloc@U?$_Vec_base_types@MV?$allocator@M@std@@@std@@@std@@QEAAAEAPEAMXZ 0000000180045b10 f i mwsurf.obj
 0001:00044b30       ?_Mylast@?$_Vector_alloc@U?$_Vec_base_types@MV?$allocator@M@std@@@std@@@std@@QEBAAEBQEAMXZ 0000000180045b30 f i mwsurf.obj
 0001:00044b50       ?_Mylast@?$_Vector_alloc@U?$_Vec_base_types@V?$Point_@H@cv@@V?$allocator@V?$Point_@H@cv@@@std@@@std@@@std@@QEAAAEAPEAV?$Point_@H@cv@@XZ 0000000180045b50 f i mwsurf.obj
 0001:00044b70       ?_Mylast@?$_Vector_alloc@U?$_Vec_base_types@V?$Point_@H@cv@@V?$allocator@V?$Point_@H@cv@@@std@@@std@@@std@@QEBAAEBQEAV?$Point_@H@cv@@XZ 0000000180045b70 f i mwsurf.obj
 0001:00044b90       ?_Mylast@?$_Vector_alloc@U?$_Vec_base_types@VMat@cv@@V?$allocator@VMat@cv@@@std@@@std@@@std@@QEAAAEAPEAVMat@cv@@XZ 0000000180045b90 f i mwsurf.obj
 0001:00044bb0       ?_Orphan_all@?$_Vector_alloc@U?$_Vec_base_types@HV?$allocator@H@std@@@std@@@std@@QEAAXXZ 0000000180045bb0 f i mwsurf.obj
 0001:00044bd0       ?_Orphan_all@?$_Vector_alloc@U?$_Vec_base_types@MV?$allocator@M@std@@@std@@@std@@QEAAXXZ 0000000180045bd0 f i mwsurf.obj
 0001:00044bf0       ?_Orphan_all@?$_Vector_alloc@U?$_Vec_base_types@V?$Point_@H@cv@@V?$allocator@V?$Point_@H@cv@@@std@@@std@@@std@@QEAAXXZ 0000000180045bf0 f i mwsurf.obj
 0001:00044c10       ?_Orphan_all@?$_Vector_alloc@U?$_Vec_base_types@VMat@cv@@V?$allocator@VMat@cv@@@std@@@std@@@std@@QEAAXXZ 0000000180045c10 f i mwsurf.obj
 0001:00044c30       ?_Orphan_range@?$vector@MV?$allocator@M@std@@@std@@AEBAXPEAM0@Z 0000000180045c30 f i mwsurf.obj
 0001:00044c40       ?_Orphan_range@?$vector@V?$Point_@H@cv@@V?$allocator@V?$Point_@H@cv@@@std@@@std@@AEBAXPEAV?$Point_@H@cv@@0@Z 0000000180045c40 f i mwsurf.obj
 0001:00044c50       ?_Tidy@?$vector@HV?$allocator@H@std@@@std@@AEAAXXZ 0000000180045c50 f i mwsurf.obj
 0001:00044d50       ?_Tidy@?$vector@MV?$allocator@M@std@@@std@@AEAAXXZ 0000000180045d50 f i mwsurf.obj
 0001:00044e50       ?_Tidy@?$vector@V?$Point_@H@cv@@V?$allocator@V?$Point_@H@cv@@@std@@@std@@AEAAXXZ 0000000180045e50 f i mwsurf.obj
 0001:00044f50       ?_Tidy@?$vector@VMat@cv@@V?$allocator@VMat@cv@@@std@@@std@@AEAAXXZ 0000000180045f50 f i mwsurf.obj
 0001:00045050       ?_Udefault@?$vector@HV?$allocator@H@std@@@std@@AEAAPEAHPEAH_K@Z 0000000180046050 f i mwsurf.obj
 0001:00045090       ?_Udefault@?$vector@MV?$allocator@M@std@@@std@@AEAAPEAMPEAM_K@Z 0000000180046090 f i mwsurf.obj
 0001:000450d0       ?_Udefault@?$vector@V?$Point_@H@cv@@V?$allocator@V?$Point_@H@cv@@@std@@@std@@AEAAPEAV?$Point_@H@cv@@PEAV34@_K@Z 00000001800460d0 f i mwsurf.obj
 0001:00045110       ?_Udefault@?$vector@VKeyPoint@cv@@V?$allocator@VKeyPoint@cv@@@std@@@std@@AEAAPEAVKeyPoint@cv@@PEAV34@_K@Z 0000000180046110 f i mwsurf.obj
 0001:00045150       ?_Udefault@?$vector@VMat@cv@@V?$allocator@VMat@cv@@@std@@@std@@AEAAPEAVMat@cv@@PEAV34@_K@Z 0000000180046150 f i mwsurf.obj
 0001:00045190       ?_Umove_if_noexcept1@?$vector@MV?$allocator@M@std@@@std@@AEAAXPEAM00U?$integral_constant@_N$00@2@@Z 0000000180046190 f i mwsurf.obj
 0001:000451d0       ?_Umove_if_noexcept1@?$vector@V?$Point_@H@cv@@V?$allocator@V?$Point_@H@cv@@@std@@@std@@AEAAXPEAV?$Point_@H@cv@@00U?$integral_constant@_N$0A@@2@@Z 00000001800461d0 f i mwsurf.obj
 0001:00045210       ?_Umove_if_noexcept@?$vector@MV?$allocator@M@std@@@std@@AEAAXPEAM00@Z 0000000180046210 f i mwsurf.obj
 0001:00045270       ?_Umove_if_noexcept@?$vector@V?$Point_@H@cv@@V?$allocator@V?$Point_@H@cv@@@std@@@std@@AEAAXPEAV?$Point_@H@cv@@00@Z 0000000180046270 f i mwsurf.obj
 0001:000452d0       ?_Unchecked@?$_Vector_iterator@V?$_Vector_val@U?$_Simple_types@VKeyPoint@cv@@@std@@@std@@@std@@QEBAPEAVKeyPoint@cv@@XZ 00000001800462d0 f i mwsurf.obj
 0001:000452e0       ?_Xlength@?$vector@HV?$allocator@H@std@@@std@@CAXXZ 00000001800462e0 f i mwsurf.obj
 0001:00045300       ?_Xlength@?$vector@MV?$allocator@M@std@@@std@@CAXXZ 0000000180046300 f i mwsurf.obj
 0001:00045320       ?_Xlength@?$vector@V?$Point_@H@cv@@V?$allocator@V?$Point_@H@cv@@@std@@@std@@CAXXZ 0000000180046320 f i mwsurf.obj
 0001:00045340       ?_Xlength@?$vector@VMat@cv@@V?$allocator@VMat@cv@@@std@@@std@@CAXXZ 0000000180046340 f i mwsurf.obj
 0001:00045360       ?abs@@YAMM@Z               0000000180046360 f i mwsurf.obj
 0001:00045390       ?all@?$Matx@M$02$00@cv@@SA?AV12@M@Z 0000000180046390 f i mwsurf.obj
 0001:00045420       ?all@Range@cv@@SA?AV12@XZ  0000000180046420 f i mwsurf.obj
 0001:00045450       ?allocate@?$_Wrap_alloc@V?$allocator@H@std@@@std@@QEAAPEAH_K@Z 0000000180046450 f i mwsurf.obj
 0001:00045480       ?allocate@?$_Wrap_alloc@V?$allocator@M@std@@@std@@QEAAPEAM_K@Z 0000000180046480 f i mwsurf.obj
 0001:000454b0       ?allocate@?$_Wrap_alloc@V?$allocator@V?$Point_@H@cv@@@std@@@std@@QEAAPEAV?$Point_@H@cv@@_K@Z 00000001800464b0 f i mwsurf.obj
 0001:000454e0       ?allocate@?$_Wrap_alloc@V?$allocator@VMat@cv@@@std@@@std@@QEAAPEAVMat@cv@@_K@Z 00000001800464e0 f i mwsurf.obj
 0001:00045510       ?allocate@?$allocator@H@std@@QEAAPEAH_K@Z 0000000180046510 f i mwsurf.obj
 0001:00045540       ?allocate@?$allocator@M@std@@QEAAPEAM_K@Z 0000000180046540 f i mwsurf.obj
 0001:00045570       ?allocate@?$allocator@V?$Point_@H@cv@@@std@@QEAAPEAV?$Point_@H@cv@@_K@Z 0000000180046570 f i mwsurf.obj
 0001:000455a0       ?allocate@?$allocator@VMat@cv@@@std@@QEAAPEAVMat@cv@@_K@Z 00000001800465a0 f i mwsurf.obj
 0001:000455d0       ?begin@?$vector@VKeyPoint@cv@@V?$allocator@VKeyPoint@cv@@@std@@@std@@QEAA?AV?$_Vector_iterator@V?$_Vector_val@U?$_Simple_types@VKeyPoint@cv@@@std@@@std@@@2@XZ 00000001800465d0 f i mwsurf.obj
 0001:00045630       ?calcHaarPattern@cv@@YAMPEBHPEBUMWSurfHF@1@H@Z 0000000180046630 f i mwsurf.obj
 0001:00045710       ?capacity@?$vector@MV?$allocator@M@std@@@std@@QEBA_KXZ 0000000180046710 f i mwsurf.obj
 0001:00045750       ?capacity@?$vector@V?$Point_@H@cv@@V?$allocator@V?$Point_@H@cv@@@std@@@std@@QEBA_KXZ 0000000180046750 f i mwsurf.obj
 0001:00045790       ?clear@?$vector@VKeyPoint@cv@@V?$allocator@VKeyPoint@cv@@@std@@@std@@QEAAXXZ 0000000180046790 f i mwsurf.obj
 0001:00045810       ?clear@Algorithm@cv@@UEAAXXZ 0000000180046810 f i mwsurf.obj
 0001:00045820       ?cos@@YAMM@Z               0000000180046820 f i mwsurf.obj
 0001:00045850       ?create@Mat@cv@@QEAAXHHH@Z 0000000180046850 f i mwsurf.obj
 0001:000458f0       ?deallocate@?$_Wrap_alloc@V?$allocator@H@std@@@std@@QEAAXPEAH_K@Z 00000001800468f0 f i mwsurf.obj
 0001:00045920       ?deallocate@?$_Wrap_alloc@V?$allocator@M@std@@@std@@QEAAXPEAM_K@Z 0000000180046920 f i mwsurf.obj
 0001:00045950       ?deallocate@?$_Wrap_alloc@V?$allocator@V?$Point_@H@cv@@@std@@@std@@QEAAXPEAV?$Point_@H@cv@@_K@Z 0000000180046950 f i mwsurf.obj
 0001:00045980       ?deallocate@?$_Wrap_alloc@V?$allocator@VMat@cv@@@std@@@std@@QEAAXPEAVMat@cv@@_K@Z 0000000180046980 f i mwsurf.obj
 0001:000459b0       ?deallocate@?$allocator@H@std@@QEAAXPEAH_K@Z 00000001800469b0 f i mwsurf.obj
 0001:000459e0       ?deallocate@?$allocator@M@std@@QEAAXPEAM_K@Z 00000001800469e0 f i mwsurf.obj
 0001:00045a10       ?deallocate@?$allocator@V?$Point_@H@cv@@@std@@QEAAXPEAV?$Point_@H@cv@@_K@Z 0000000180046a10 f i mwsurf.obj
 0001:00045a40       ?deallocate@?$allocator@VMat@cv@@@std@@QEAAXPEAVMat@cv@@_K@Z 0000000180046a40 f i mwsurf.obj
 0001:00045a70       ?deleteSelf@?$PtrOwnerImpl@UCvMat@@U?$DefaultDeleter@UCvMat@@@cv@@@detail@cv@@UEAAXXZ 0000000180046a70 f i mwsurf.obj
 0001:00045ae0       ?depth@Mat@cv@@QEBAHXZ     0000000180046ae0 f i mwsurf.obj
 0001:00045af0       ?elemSize@Mat@cv@@QEBA_KXZ 0000000180046af0 f i mwsurf.obj
 0001:00045b34       ?empty@Feature2D@cv@@$4PPPPPPPM@A@EBA_NXZ 0000000180046b34 f i mwsurf.obj
 0001:00045b40       ?empty@Feature2D@cv@@$4PPPPPPPM@BI@EBA_NXZ 0000000180046b40 f i mwsurf.obj
 0001:00045b50       ?empty@Mat@cv@@QEBA_NXZ    0000000180046b50 f i mwsurf.obj
 0001:00045ba0       ?end@?$vector@VKeyPoint@cv@@V?$allocator@VKeyPoint@cv@@@std@@@std@@QEAA?AV?$_Vector_iterator@V?$_Vector_val@U?$_Simple_types@VKeyPoint@cv@@@std@@@std@@@2@XZ 0000000180046ba0 f i mwsurf.obj
 0001:00045c00       ?fabs@@YAMM@Z              0000000180046c00 f i mwsurf.obj
 0001:00045c24       ?getDefaultName@Feature2D@cv@@$4PPPPPPPM@A@EBA?AVString@2@XZ 0000000180046c24 f i mwsurf.obj
 0001:00045c30       ?getDefaultName@Feature2D@cv@@$4PPPPPPPM@BI@EBA?AVString@2@XZ 0000000180046c30 f i mwsurf.obj
 0001:00045c40       ?getMat@_InputArray@cv@@QEBA?AVMat@2@H@Z 0000000180046c40 f i mwsurf.obj
 0001:00045cd0       ?init@_InputArray@cv@@IEAAXHPEBX@Z 0000000180046cd0 f i mwsurf.obj
 0001:00045d00       ?init@_InputArray@cv@@IEAAXHPEBXV?$Size_@H@2@@Z 0000000180046d00 f i mwsurf.obj
 0001:00045d50       ?max_size@?$_Wrap_alloc@V?$allocator@H@std@@@std@@QEBA_KU_Nil@2@@Z 0000000180046d50 f i mwsurf.obj
 0001:00045d70       ?max_size@?$_Wrap_alloc@V?$allocator@M@std@@@std@@QEBA_KU_Nil@2@@Z 0000000180046d70 f i mwsurf.obj
 0001:00045d90       ?max_size@?$_Wrap_alloc@V?$allocator@V?$Point_@H@cv@@@std@@@std@@QEBA_KU_Nil@2@@Z 0000000180046d90 f i mwsurf.obj
 0001:00045db0       ?max_size@?$_Wrap_alloc@V?$allocator@VMat@cv@@@std@@@std@@QEBA_KU_Nil@2@@Z 0000000180046db0 f i mwsurf.obj
 0001:00045dd0       ?max_size@?$allocator@H@std@@QEBA_KXZ 0000000180046dd0 f i mwsurf.obj
 0001:00045de0       ?max_size@?$allocator@M@std@@QEBA_KXZ 0000000180046de0 f i mwsurf.obj
 0001:00045df0       ?max_size@?$allocator@V?$Point_@H@cv@@@std@@QEBA_KXZ 0000000180046df0 f i mwsurf.obj
 0001:00045e00       ?max_size@?$allocator@VMat@cv@@@std@@QEBA_KXZ 0000000180046e00 f i mwsurf.obj
 0001:00045e10       ?max_size@?$allocator_traits@V?$allocator@H@std@@@std@@SA_KAEBV?$allocator@H@2@@Z 0000000180046e10 f i mwsurf.obj
 0001:00045e30       ?max_size@?$allocator_traits@V?$allocator@M@std@@@std@@SA_KAEBV?$allocator@M@2@@Z 0000000180046e30 f i mwsurf.obj
 0001:00045e50       ?max_size@?$allocator_traits@V?$allocator@V?$Point_@H@cv@@@std@@@std@@SA_KAEBV?$allocator@V?$Point_@H@cv@@@2@@Z 0000000180046e50 f i mwsurf.obj
 0001:00045e70       ?max_size@?$allocator_traits@V?$allocator@VMat@cv@@@std@@@std@@SA_KAEBV?$allocator@VMat@cv@@@2@@Z 0000000180046e70 f i mwsurf.obj
 0001:00045e90       ?max_size@?$vector@HV?$allocator@H@std@@@std@@QEBA_KXZ 0000000180046e90 f i mwsurf.obj
 0001:00045ec0       ?max_size@?$vector@MV?$allocator@M@std@@@std@@QEBA_KXZ 0000000180046ec0 f i mwsurf.obj
 0001:00045ef0       ?max_size@?$vector@V?$Point_@H@cv@@V?$allocator@V?$Point_@H@cv@@@std@@@std@@QEBA_KXZ 0000000180046ef0 f i mwsurf.obj
 0001:00045f20       ?max_size@?$vector@VMat@cv@@V?$allocator@VMat@cv@@@std@@@std@@QEBA_KXZ 0000000180046f20 f i mwsurf.obj
 0001:00045f50       ?ptr@Mat@cv@@QEAAPEAEH@Z   0000000180046f50 f i mwsurf.obj
 0001:00045f84       ?read@Feature2D@cv@@$4PPPPPPPM@A@EAAXAEBVFileNode@2@@Z 0000000180046f84 f i mwsurf.obj
 0001:00045f90       ?read@Feature2D@cv@@$4PPPPPPPM@BI@EAAXAEBVFileNode@2@@Z 0000000180046f90 f i mwsurf.obj
 0001:00045fa0       ?release@?$Ptr@UCvMat@@@cv@@QEAAXXZ 0000000180046fa0 f i mwsurf.obj
 0001:00045fe0       ?resize@?$vector@MV?$allocator@M@std@@@std@@QEAAX_K@Z 0000000180046fe0 f i mwsurf.obj
 0001:00046020       ?resize@?$vector@V?$Point_@H@cv@@V?$allocator@V?$Point_@H@cv@@@std@@@std@@QEAAX_K@Z 0000000180047020 f i mwsurf.obj
 0001:00046060       ?resize@?$vector@VKeyPoint@cv@@V?$allocator@VKeyPoint@cv@@@std@@@std@@QEAAX_K@Z 0000000180047060 f i mwsurf.obj
 0001:000460a0       ?rowRange@Mat@cv@@QEBA?AV12@HH@Z 00000001800470a0 f i mwsurf.obj
 0001:00046120       ?sin@@YAMM@Z               0000000180047120 f i mwsurf.obj
 0001:00046150       ?size@?$vector@MV?$allocator@M@std@@@std@@QEBA_KXZ 0000000180047150 f i mwsurf.obj
 0001:00046190       ?size@?$vector@V?$Point_@H@cv@@V?$allocator@V?$Point_@H@cv@@@std@@@std@@QEBA_KXZ 0000000180047190 f i mwsurf.obj
 0001:000461d0       ?solve@?$Matx@M$02$02@cv@@QEBA?AV?$Vec@M$02@2@AEBV32@H@Z 00000001800471d0 f i mwsurf.obj
 0001:00046240       ?type@Mat@cv@@QEBAHXZ      0000000180047240 f i mwsurf.obj
 0001:00046254       ?write@Feature2D@cv@@$4PPPPPPPM@A@EBAXAEAVFileStorage@2@@Z 0000000180047254 f i mwsurf.obj
 0001:00046260       ?write@Feature2D@cv@@$4PPPPPPPM@BI@EBAXAEAVFileStorage@2@@Z 0000000180047260 f i mwsurf.obj
 0001:00046270       ?zeros@?$Matx@M$02$00@cv@@SA?AV12@XZ 0000000180047270 f i mwsurf.obj
 0001:00046290       fabsf                      0000000180047290 f i mwsurf.obj
 0001:000462b0       fastHessianDetector_uint8  00000001800472b0 f   fastHessianDetectorCore.obj
 0001:00046500       fastHessianDetector_keyPoints2field 0000000180047500 f   fastHessianDetectorCore.obj
 0001:00046660       fastHessianDetector_keyPoints2fieldRM 0000000180047660 f   fastHessianDetectorCore.obj
 0001:000467c0       fastHessianDetector_deleteKeypoint 00000001800477c0 f   fastHessianDetectorCore.obj
 0001:00046810       ?limitNumOctavesCore@@YAHH_K0@Z 0000000180047810 f   fastHessianDetectorCore.obj
 0001:000468e0       ?configureSURFDetectorCore@@YAXU?$Ptr@VMWSURF@cv@@@cv@@HHH_K1@Z 00000001800478e0 f   fastHessianDetectorCore.obj
 0001:00046980       ??0?$Ptr@VMWSURF@cv@@@cv@@QEAA@AEBU01@@Z 0000000180047980 f i fastHessianDetectorCore.obj
 0001:000469e0       ?incRef@PtrOwner@detail@cv@@QEAAXXZ 00000001800479e0 f i fastHessianDetectorCore.obj
 0001:000469f2       rgb2gray_tbb_uint8         00000001800479f2 f   libmwrgb2gray_tbb:libmwrgb2gray_tbb.dll
 0001:000469f8       ComputeMetric_ssd_single   00000001800479f8 f   libmwComputeMetric:libmwComputeMetric.dll
 0001:000469fe       ?fastFree@cv@@YAXPEAX@Z    00000001800479fe f   opencv_core340:opencv_core340.dll
 0001:00046a04       ?allocate@String@cv@@AEAAPEAD_K@Z 0000000180047a04 f   opencv_core340:opencv_core340.dll
 0001:00046a0a       ?deallocate@String@cv@@AEAAXXZ 0000000180047a0a f   opencv_core340:opencv_core340.dll
 0001:00046a10       ?error@cv@@YAXHAEBVString@1@PEBD1H@Z 0000000180047a10 f   opencv_core340:opencv_core340.dll
 0001:00046a16       ?deallocate@Mat@cv@@QEAAXXZ 0000000180047a16 f   opencv_core340:opencv_core340.dll
 0001:00046a1c       ?copySize@Mat@cv@@QEAAXAEBV12@@Z 0000000180047a1c f   opencv_core340:opencv_core340.dll
 0001:00046a22       ?fastAtan2@cv@@YAMMM@Z     0000000180047a22 f   opencv_core340:opencv_core340.dll
 0001:00046a28       ?getMat_@_InputArray@cv@@QEBA?AVMat@2@H@Z 0000000180047a28 f   opencv_core340:opencv_core340.dll
 0001:00046a2e       ?kind@_InputArray@cv@@QEBAHXZ 0000000180047a2e f   opencv_core340:opencv_core340.dll
 0001:00046a34       ?type@_InputArray@cv@@QEBAHH@Z 0000000180047a34 f   opencv_core340:opencv_core340.dll
 0001:00046a3a       ?needed@_OutputArray@cv@@QEBA_NXZ 0000000180047a3a f   opencv_core340:opencv_core340.dll
 0001:00046a40       ?create@_OutputArray@cv@@QEBAXHHHH_NH@Z 0000000180047a40 f   opencv_core340:opencv_core340.dll
 0001:00046a46       ?noArray@cv@@YAAEBV_InputOutputArray@1@XZ 0000000180047a46 f   opencv_core340:opencv_core340.dll
 0001:00046a4c       ??0Mat@cv@@QEAA@AEBV01@AEBVRange@1@1@Z 0000000180047a4c f   opencv_core340:opencv_core340.dll
 0001:00046a52       ?copyTo@Mat@cv@@QEBAXAEBV_OutputArray@2@@Z 0000000180047a52 f   opencv_core340:opencv_core340.dll
 0001:00046a58       ?reshape@Mat@cv@@QEBA?AV12@HH@Z 0000000180047a58 f   opencv_core340:opencv_core340.dll
 0001:00046a5e       ?create@Mat@cv@@QEAAXHPEBHH@Z 0000000180047a5e f   opencv_core340:opencv_core340.dll
 0001:00046a64       ?min@cv@@YAXAEBV_InputArray@1@0AEBV_OutputArray@1@@Z 0000000180047a64 f   opencv_core340:opencv_core340.dll
 0001:00046a6a       ?solve@cv@@YA_NAEBV_InputArray@1@0AEBV_OutputArray@1@H@Z 0000000180047a6a f   opencv_core340:opencv_core340.dll
 0001:00046a70       ??0Algorithm@cv@@QEAA@XZ   0000000180047a70 f   opencv_core340:opencv_core340.dll
 0001:00046a76       ??1Algorithm@cv@@UEAA@XZ   0000000180047a76 f   opencv_core340:opencv_core340.dll
 0001:00046a7c       ?save@Algorithm@cv@@UEBAXAEBVString@2@@Z 0000000180047a7c f   opencv_core340:opencv_core340.dll
 0001:00046a82       ??1ParallelLoopBody@cv@@UEAA@XZ 0000000180047a82 f   opencv_core340:opencv_core340.dll
 0001:00046a88       ?parallel_for_@cv@@YAXAEBVRange@1@AEBVParallelLoopBody@1@N@Z 0000000180047a88 f   opencv_core340:opencv_core340.dll
 0001:00046a8e       ??0Mutex@cv@@QEAA@XZ       0000000180047a8e f   opencv_core340:opencv_core340.dll
 0001:00046a94       ??1Mutex@cv@@QEAA@XZ       0000000180047a94 f   opencv_core340:opencv_core340.dll
 0001:00046a9a       ?lock@Mutex@cv@@QEAAXXZ    0000000180047a9a f   opencv_core340:opencv_core340.dll
 0001:00046aa0       ?unlock@Mutex@cv@@QEAAXXZ  0000000180047aa0 f   opencv_core340:opencv_core340.dll
 0001:00046aa6       cvCreateMat                0000000180047aa6 f   opencv_core340:opencv_core340.dll
 0001:00046aac       cvCartToPolar              0000000180047aac f   opencv_core340:opencv_core340.dll
 0001:00046ab2       ??R?$DefaultDeleter@UCvMat@@@cv@@QEBAXPEAUCvMat@@@Z 0000000180047ab2 f   opencv_core340:opencv_core340.dll
 0001:00046ab8       ?getGaussianKernel@cv@@YA?AVMat@1@HNH@Z 0000000180047ab8 f   opencv_imgproc340:opencv_imgproc340.dll
 0001:00046abe       ?resize@cv@@YAXAEBV_InputArray@1@AEBV_OutputArray@1@V?$Size_@H@1@NNH@Z 0000000180047abe f   opencv_imgproc340:opencv_imgproc340.dll
 0001:00046ac4       ?integral@cv@@YAXAEBV_InputArray@1@AEBV_OutputArray@1@H@Z 0000000180047ac4 f   opencv_imgproc340:opencv_imgproc340.dll
 0001:00046aca       ?cvtColor@cv@@YAXAEBV_InputArray@1@AEBV_OutputArray@1@HH@Z 0000000180047aca f   opencv_imgproc340:opencv_imgproc340.dll
 0001:00046ad0       ??1Feature2D@cv@@UEAA@XZ   0000000180047ad0 f   opencv_features2d340:opencv_features2d340.dll
 0001:00046ad6       ?detect@Feature2D@cv@@UEAAXAEBV_InputArray@2@AEAV?$vector@VKeyPoint@cv@@V?$allocator@VKeyPoint@cv@@@std@@@std@@0@Z 0000000180047ad6 f   opencv_features2d340:opencv_features2d340.dll
 0001:00046adc       ?detect@Feature2D@cv@@UEAAXAEBV_InputArray@2@AEAV?$vector@V?$vector@VKeyPoint@cv@@V?$allocator@VKeyPoint@cv@@@std@@@std@@V?$allocator@V?$vector@VKeyPoint@cv@@V?$allocator@VKeyPoint@cv@@@std@@@std@@@2@@std@@0@Z 0000000180047adc f   opencv_features2d340:opencv_features2d340.dll
 0001:00046ae2       ?compute@Feature2D@cv@@UEAAXAEBV_InputArray@2@AEAV?$vector@VKeyPoint@cv@@V?$allocator@VKeyPoint@cv@@@std@@@std@@AEBV_OutputArray@2@@Z 0000000180047ae2 f   opencv_features2d340:opencv_features2d340.dll
 0001:00046ae8       ?compute@Feature2D@cv@@UEAAXAEBV_InputArray@2@AEAV?$vector@V?$vector@VKeyPoint@cv@@V?$allocator@VKeyPoint@cv@@@std@@@std@@V?$allocator@V?$vector@VKeyPoint@cv@@V?$allocator@VKeyPoint@cv@@@std@@@std@@@2@@std@@AEBV_OutputArray@2@@Z 0000000180047ae8 f   opencv_features2d340:opencv_features2d340.dll
 0001:00046aee       ?detectAndCompute@Feature2D@cv@@UEAAXAEBV_InputArray@2@0AEAV?$vector@VKeyPoint@cv@@V?$allocator@VKeyPoint@cv@@@std@@@std@@AEBV_OutputArray@2@_N@Z 0000000180047aee f   opencv_features2d340:opencv_features2d340.dll
 0001:00046af4       ?descriptorSize@Feature2D@cv@@UEBAHXZ 0000000180047af4 f   opencv_features2d340:opencv_features2d340.dll
 0001:00046afa       ?descriptorType@Feature2D@cv@@UEBAHXZ 0000000180047afa f   opencv_features2d340:opencv_features2d340.dll
 0001:00046b00       ?defaultNorm@Feature2D@cv@@UEBAHXZ 0000000180047b00 f   opencv_features2d340:opencv_features2d340.dll
 0001:00046b06       ?write@Feature2D@cv@@UEBAXAEAVFileStorage@2@@Z 0000000180047b06 f   opencv_features2d340:opencv_features2d340.dll
 0001:00046b0c       ?read@Feature2D@cv@@UEAAXAEBVFileNode@2@@Z 0000000180047b0c f   opencv_features2d340:opencv_features2d340.dll
 0001:00046b12       ?empty@Feature2D@cv@@UEBA_NXZ 0000000180047b12 f   opencv_features2d340:opencv_features2d340.dll
 0001:00046b18       ?getDefaultName@Feature2D@cv@@UEBA?AVString@2@XZ 0000000180047b18 f   opencv_features2d340:opencv_features2d340.dll
 0001:00046b1e       sf_load_rtw_optimization_info 0000000180047b1e f   sf_runtime:sf_runtime.dll
 0001:00046b24       sf_mex_decode              0000000180047b24 f   sf_runtime:sf_runtime.dll
 0001:00046b2a       sf_init_ChartRunTimeInfo   0000000180047b2a f   sf_runtime:sf_runtime.dll
 0001:00046b30       sf_free_ChartRunTimeInfo   0000000180047b30 f   sf_runtime:sf_runtime.dll
 0001:00046b36       sfrtGetEmlrtCtx            0000000180047b36 f   sf_runtime:sf_runtime.dll
 0001:00046b3c       sfrtGetCovrtInstance       0000000180047b3c f   sf_runtime:sf_runtime.dll
 0001:00046b42       sf_get_chart_instance_ptr  0000000180047b42 f   sf_runtime:sf_runtime.dll
 0001:00046b48       sim_mode_is_rtw_gen        0000000180047b48 f   sf_runtime:sf_runtime.dll
 0001:00046b4e       sim_mode_is_external       0000000180047b4e f   sf_runtime:sf_runtime.dll
 0001:00046b54       sf_clear_rtw_identifier    0000000180047b54 f   sf_runtime:sf_runtime.dll
 0001:00046b5a       sf_get_time                0000000180047b5a f   sf_runtime:sf_runtime.dll
 0001:00046b60       sfDoAnimationWrapper       0000000180047b60 f   sf_runtime:sf_runtime.dll
 0001:00046b66       setDataBrowseFcn           0000000180047b66 f   sf_runtime:sf_runtime.dll
 0001:00046b6c       setLegacyDebuggerFlag      0000000180047b6c f   sf_runtime:sf_runtime.dll
 0001:00046b72       setDebuggerFlag            0000000180047b72 f   sf_runtime:sf_runtime.dll
 0001:00046b78       sf_warn_if_symbolic_dimension_param_changed 0000000180047b78 f   sf_runtime:sf_runtime.dll
 0001:00046b7e       sf_set_work_widths         0000000180047b7e f   sf_runtime:sf_runtime.dll
 0001:00046b84       sfListenerInitializeUsingSimStruct 0000000180047b84 f   sf_runtime:sf_runtime.dll
 0001:00046b8a       sfListenerTerminate        0000000180047b8a f   sf_runtime:sf_runtime.dll
 0001:00046b90       sfListenerInitializeRuntimeVars 0000000180047b90 f   sf_runtime:sf_runtime.dll
 0001:00046b96       sfListenerInitializeIsStmtByStmtModeVar 0000000180047b96 f   sf_runtime:sf_runtime.dll
 0001:00046b9c       sfListenerInitializeRuntimeFcnVarsJitOff 0000000180047b9c f   sf_runtime:sf_runtime.dll
 0001:00046ba2       sfListenerReportStartingSection 0000000180047ba2 f   sf_runtime:sf_runtime.dll
 0001:00046ba8       sfListenerReportEndingSection 0000000180047ba8 f   sf_runtime:sf_runtime.dll
 0001:00046bae       sfListenerPushScopeForDynamicMatricesJitOff 0000000180047bae f   sf_runtime:sf_runtime.dll
 0001:00046bb4       sfListenerReportLineNumber 0000000180047bb4 f   sf_runtime:sf_runtime.dll
 0001:00046bba       sf_mex_call                0000000180047bba f   sf_runtime:sf_runtime.dll
 0001:00046bc0       sf_mex_error_message       0000000180047bc0 f   sf_runtime:sf_runtime.dll
 0001:00046bc6       sf_mex_check_mcos_class    0000000180047bc6 f   sf_runtime:sf_runtime.dll
 0001:00046bcc       sf_mex_create_class_instance 0000000180047bcc f   sf_runtime:sf_runtime.dll
 0001:00046bd2       sf_mex_set_all_properties  0000000180047bd2 f   sf_runtime:sf_runtime.dll
 0001:00046bd8       sf_mex_get_all_properties  0000000180047bd8 f   sf_runtime:sf_runtime.dll
 0001:00046bde       sf_mex_convert_to_redirect_target 0000000180047bde f   sf_runtime:sf_runtime.dll
 0001:00046be4       sf_mex_convert_to_redirect_source 0000000180047be4 f   sf_runtime:sf_runtime.dll
 0001:00046bea       sf_mex_create              0000000180047bea f   sf_runtime:sf_runtime.dll
 0001:00046bf0       sf_mex_createcellmatrix    0000000180047bf0 f   sf_runtime:sf_runtime.dll
 0001:00046bf6       sf_mex_setcell             0000000180047bf6 f   sf_runtime:sf_runtime.dll
 0001:00046bfc       sf_mex_getcell             0000000180047bfc f   sf_runtime:sf_runtime.dll
 0001:00046c02       sf_mex_assign              0000000180047c02 f   sf_runtime:sf_runtime.dll
 0001:00046c08       sf_mex_dup                 0000000180047c08 f   sf_runtime:sf_runtime.dll
 0001:00046c0e       sf_mex_destroy             0000000180047c0e f   sf_runtime:sf_runtime.dll
 0001:00046c14       sf_mex_import              0000000180047c14 f   sf_runtime:sf_runtime.dll
 0001:00046c1a       sf_mex_import_vs           0000000180047c1a f   sf_runtime:sf_runtime.dll
 0001:00046c20       sf_mex_get_dimension       0000000180047c20 f   sf_runtime:sf_runtime.dll
 0001:00046c26       sf_mex_lw_sub_assign_size_check_1d 0000000180047c26 f   sf_runtime:sf_runtime.dll
 0001:00046c2c       sf_mex_lw_sub_assign_size_check_nd 0000000180047c2c f   sf_runtime:sf_runtime.dll
 0001:00046c32       sf_mex_lw_non_negative_check 0000000180047c32 f   sf_runtime:sf_runtime.dll
 0001:00046c38       ssGetInputPortSignal_wrapper 0000000180047c38 f   sf_runtime:sf_runtime.dll
 0001:00046c3e       sf_eml_array_bounds_check  0000000180047c3e f   sf_runtime:sf_runtime.dll
 0001:00046c44       sf_data_saturate_error     0000000180047c44 f   sf_runtime:sf_runtime.dll
 0001:00046c4a       sf_get_ChartInfoStruct_CodeGen 0000000180047c4a f   sf_runtime:sf_runtime.dll
 0001:00046c50       sf_get_hasSeparateUpdateOutputs 0000000180047c50 f   sf_runtime:sf_runtime.dll
 0001:00046c56       callMdlMethodAndReportError 0000000180047c56 f   sf_runtime:sf_runtime.dll
 0001:00046c5c       call_sf_machine_global_method_dispatcher 0000000180047c5c f   sf_runtime:sf_runtime.dll
 0001:00046c62       getRuntimeInstanceInfoAsVoid 0000000180047c62 f   sf_runtime:sf_runtime.dll
 0001:00046c68       sf_mex_error_direct_call   0000000180047c68 f   sf_runtime:sf_runtime.dll
 0001:00046c6e       sf_clear_error_manager_info 0000000180047c6e f   sf_runtime:sf_runtime.dll
 0001:00046c74       mxIsChar_800               0000000180047c74 f   libmx:libmx.dll
 0001:00046c7a       mxGetScalar_800            0000000180047c7a f   libmx:libmx.dll
 0001:00046c80       mxGetPr_800                0000000180047c80 f   libmx:libmx.dll
 0001:00046c86       mxDestroyArray_800         0000000180047c86 f   libmx:libmx.dll
 0001:00046c8c       mxCreateDoubleMatrix_800   0000000180047c8c f   libmx:libmx.dll
 0001:00046c92       mxGetString_800            0000000180047c92 f   libmx:libmx.dll
 0001:00046c98       mxDuplicateArray_800       0000000180047c98 f   libmx:libmx.dll
 0001:00046c9e       mxSetCell_800              0000000180047c9e f   libmx:libmx.dll
 0001:00046ca4       mxSetField_800             0000000180047ca4 f   libmx:libmx.dll
 0001:00046caa       mxCreateString_800         0000000180047caa f   libmx:libmx.dll
 0001:00046cb0       mxCreateCellMatrix_800     0000000180047cb0 f   libmx:libmx.dll
 0001:00046cb6       mxCreateStructMatrix_800   0000000180047cb6 f   libmx:libmx.dll
 0001:00046cbc       mxGetInf_800               0000000180047cbc f   libmx:libmx.dll
 0001:00046cc2       mxGetNaN_800               0000000180047cc2 f   libmx:libmx.dll
 0001:00046cc8       mxCalloc_800               0000000180047cc8 f   libmx:libmx.dll
 0001:00046cce       mxGetM_800                 0000000180047cce f   libmx:libmx.dll
 0001:00046cd4       mxGetClassID_800           0000000180047cd4 f   libmx:libmx.dll
 0001:00046cda       mxIsNumeric_800            0000000180047cda f   libmx:libmx.dll
 0001:00046ce0       mxIsComplex_800            0000000180047ce0 f   libmx:libmx.dll
 0001:00046ce6       mxGetN_800                 0000000180047ce6 f   libmx:libmx.dll
 0001:00046cec       mxCreateDoubleScalar_800   0000000180047cec f   libmx:libmx.dll
 0001:00046cf2       mexMakeArrayPersistent_800 0000000180047cf2 f   libmex:libmex.dll
 0001:00046cf8       mexErrMsgTxt_800           0000000180047cf8 f   libmex:libmex.dll
 0001:00046cfe       mexWarnMsgTxt_800          0000000180047cfe f   libmex:libmex.dll
 0001:00046d04       mexCallMATLAB_800          0000000180047d04 f   libmex:libmex.dll
 0001:00046d0a       mexLock_800                0000000180047d0a f   libmex:libmex.dll
 0001:00046d10       mexUnlock_800              0000000180047d10 f   libmex:libmex.dll
 0001:00046d16       mexIsLocked_800            0000000180047d16 f   libmex:libmex.dll
 0001:00046d1c       utMalloc                   0000000180047d1c f   libut:libut.dll
 0001:00046d22       utFree                     0000000180047d22 f   libut:libut.dll
 0001:00046d28       muDoubleScalarFloor        0000000180047d28 f   libmwmathutil:libmwmathutil.dll
 0001:00046d2e       muDoubleScalarRound        0000000180047d2e f   libmwmathutil:libmwmathutil.dll
 0001:00046d34       muDoubleScalarLog          0000000180047d34 f   libmwmathutil:libmwmathutil.dll
 0001:00046d3a       muSingleScalarRound        0000000180047d3a f   libmwmathutil:libmwmathutil.dll
 0001:00046d40       muSingleScalarSqrt         0000000180047d40 f   libmwmathutil:libmwmathutil.dll
 0001:00046d46       muSingleScalarIsNaN        0000000180047d46 f   libmwmathutil:libmwmathutil.dll
 0001:00046d4c       muSingleScalarIsInf        0000000180047d4c f   libmwmathutil:libmwmathutil.dll
 0001:00046d52       emlrtLicenseCheckR2012b    0000000180047d52 f   libemlrt:libemlrt.dll
 0001:00046d58       emlrtSizeMulR2012b         0000000180047d58 f   libemlrt:libemlrt.dll
 0001:00046d5e       emlrtMallocMex             0000000180047d5e f   libemlrt:libemlrt.dll
 0001:00046d64       emlrtCallocMex             0000000180047d64 f   libemlrt:libemlrt.dll
 0001:00046d6a       emlrtFreeMex               0000000180047d6a f   libemlrt:libemlrt.dll
 0001:00046d70       emlrtHeapAllocationErrorR2012b 0000000180047d70 f   libemlrt:libemlrt.dll
 0001:00046d76       covrtCreateStateflowInstanceData 0000000180047d76 f   libcovrt:libcovrt.dll
 0001:00046d7c       covrtDeleteStateflowInstanceData 0000000180047d7c f   libcovrt:libcovrt.dll
 0001:00046d82       covrtTransInitFcn          0000000180047d82 f   libcovrt:libcovrt.dll
 0001:00046d88       covrtStateInitFcn          0000000180047d88 f   libcovrt:libcovrt.dll
 0001:00046d8e       covrtChartInitFcn          0000000180047d8e f   libcovrt:libcovrt.dll
 0001:00046d94       covrtSigUpdateFcn          0000000180047d94 f   libcovrt:libcovrt.dll
 0001:00046d9a       covrtEmlInitFcn            0000000180047d9a f   libcovrt:libcovrt.dll
 0001:00046da0       covrtEmlFcnInitFcn         0000000180047da0 f   libcovrt:libcovrt.dll
 0001:00046da6       covrtEmlFcnEval            0000000180047da6 f   libcovrt:libcovrt.dll
 0001:00046dac       __raise_securityfailure    0000000180047dac f   MSVCRT:gs_report.obj
 0001:00046de0       __report_gsfailure         0000000180047de0 f   MSVCRT:gs_report.obj
 0001:00046eb4       __report_rangecheckfailure 0000000180047eb4 f   MSVCRT:gs_report.obj
 0001:00046ec8       __report_securityfailure   0000000180047ec8 f   MSVCRT:gs_report.obj
 0001:00046f64       __report_securityfailureEx 0000000180047f64 f   MSVCRT:gs_report.obj
 0001:00047158       __GSHandlerCheck           0000000180048158 f   MSVCRT:_gshandler_.obj
 0001:00047178       __GSHandlerCheckCommon     0000000180048178 f   MSVCRT:_gshandler_.obj
 0001:000471f0       __security_check_cookie    00000001800481f0 f   MSVCRT:_amdsecgs_.obj
 0001:00047230       __chkstk                   0000000180048230 f   MSVCRT:_chkstk_.obj
 0001:00047230       _alloca_probe              0000000180048230 f   MSVCRT:_chkstk_.obj
 0001:00047284       ??2@YAPEAX_K@Z             0000000180048284 f   MSVCRT:new_scalar.obj
 0001:000472c0       ??3@YAXPEAX@Z              00000001800482c0 f   MSVCRT:delete_scalar.obj
 0001:000472c8       ??3@YAXPEAX_K@Z            00000001800482c8 f   MSVCRT:delete_scalar_size.obj
 0001:000472d0       ??$__crt_fast_decode_pointer@PEAP6AXXZ@@YAPEAP6AXXZQEAP6AXXZ@Z 00000001800482d0 f i MSVCRT:utility.obj
 0001:000472e8       ??$__crt_fast_encode_pointer@PEAP6AXXZ@@YAPEAP6AXXZQEAP6AXXZ@Z 00000001800482e8 f i MSVCRT:utility.obj
 0001:00047308       ?__crt_rotate_pointer_value@@YA_K_KH@Z 0000000180048308 f i MSVCRT:utility.obj
 0001:00047314       ?configure_argv@__scrt_narrow_argv_policy@@SAHXZ 0000000180048314 f i MSVCRT:utility.obj
 0001:000473a4       NtCurrentTeb               00000001800483a4 f i MSVCRT:utility.obj
 0001:000473b0       __scrt_acquire_startup_lock 00000001800483b0 f   MSVCRT:utility.obj
 0001:000473ec       __scrt_dllmain_after_initialize_c 00000001800483ec f   MSVCRT:utility.obj
 0001:00047420       __scrt_dllmain_before_initialize_c 0000000180048420 f   MSVCRT:utility.obj
 0001:00047438       __scrt_dllmain_crt_thread_attach 0000000180048438 f   MSVCRT:utility.obj
 0001:00047460       __scrt_dllmain_crt_thread_detach 0000000180048460 f   MSVCRT:utility.obj
 0001:00047478       __scrt_dllmain_exception_filter 0000000180048478 f   MSVCRT:utility.obj
 0001:000474dc       __scrt_dllmain_uninitialize_c 00000001800484dc f   MSVCRT:utility.obj
 0001:0004750c       __scrt_dllmain_uninitialize_critical 000000018004850c f   MSVCRT:utility.obj
 0001:00047520       __scrt_initialize_crt      0000000180048520 f   MSVCRT:utility.obj
 0001:0004756c       __scrt_initialize_onexit_tables 000000018004856c f   MSVCRT:utility.obj
 0001:0004764c       __scrt_is_nonwritable_in_current_image 000000018004864c f   MSVCRT:utility.obj
 0001:000476e8       __scrt_release_startup_lock 00000001800486e8 f   MSVCRT:utility.obj
 0001:0004770c       __scrt_uninitialize_crt    000000018004870c f   MSVCRT:utility.obj
 0001:00047738       _onexit                    0000000180048738 f   MSVCRT:utility.obj
 0001:00047788       at_quick_exit              0000000180048788 f   MSVCRT:utility.obj
 0001:000477c0       atexit                     00000001800487c0 f   MSVCRT:utility.obj
 0001:000477d8       __GSHandlerCheck_EH        00000001800487d8 f   MSVCRT:gshandlereh.obj
 0001:00047858       ??1type_info@@UEAA@XZ      0000000180048858 f   MSVCRT:std_type_info_static.obj
 0001:00047864       ??_Gtype_info@@UEAAPEAXI@Z 0000000180048864 f i MSVCRT:std_type_info_static.obj
 0001:00047864       ??_Etype_info@@UEAAPEAXI@Z 0000000180048864 f i MSVCRT:std_type_info_static.obj
 0001:00047bcc       _CRT_INIT                  0000000180048bcc f   MSVCRT:dll_dllmain.obj
 0001:00047bd4       _DllMainCRTStartup         0000000180048bd4 f   MSVCRT:dll_dllmain.obj
 0001:00047c14       ??0bad_alloc@std@@AEAA@QEBD@Z 0000000180048c14 f i MSVCRT:throw_bad_alloc.obj
 0001:00047c2c       ??0bad_alloc@std@@QEAA@AEBV01@@Z 0000000180048c2c f i MSVCRT:throw_bad_alloc.obj
 0001:00047c6c       ??0bad_alloc@std@@QEAA@XZ  0000000180048c6c f i MSVCRT:throw_bad_alloc.obj
 0001:00047c8c       ??0bad_array_new_length@std@@QEAA@AEBV01@@Z 0000000180048c8c f i MSVCRT:throw_bad_alloc.obj
 0001:00047ccc       ??0bad_array_new_length@std@@QEAA@XZ 0000000180048ccc f i MSVCRT:throw_bad_alloc.obj
 0001:00047cec       ??0exception@std@@QEAA@AEBV01@@Z 0000000180048cec f i MSVCRT:throw_bad_alloc.obj
 0001:00047d24       ??0exception@std@@QEAA@QEBDH@Z 0000000180048d24 f i MSVCRT:throw_bad_alloc.obj
 0001:00047d3c       ??1bad_alloc@std@@UEAA@XZ  0000000180048d3c f i MSVCRT:throw_bad_alloc.obj
 0001:00047d50       ??1bad_array_new_length@std@@UEAA@XZ 0000000180048d50 f i MSVCRT:throw_bad_alloc.obj
 0001:00047d64       ??1exception@std@@UEAA@XZ  0000000180048d64 f i MSVCRT:throw_bad_alloc.obj
 0001:00047d78       ??_Gbad_alloc@std@@UEAAPEAXI@Z 0000000180048d78 f i MSVCRT:throw_bad_alloc.obj
 0001:00047d78       ??_Ebad_alloc@std@@UEAAPEAXI@Z 0000000180048d78 f i MSVCRT:throw_bad_alloc.obj
 0001:00047dbc       ??_Ebad_array_new_length@std@@UEAAPEAXI@Z 0000000180048dbc f i MSVCRT:throw_bad_alloc.obj
 0001:00047dbc       ??_Gbad_array_new_length@std@@UEAAPEAXI@Z 0000000180048dbc f i MSVCRT:throw_bad_alloc.obj
 0001:00047e00       ??_Gexception@std@@UEAAPEAXI@Z 0000000180048e00 f i MSVCRT:throw_bad_alloc.obj
 0001:00047e00       ??_Eexception@std@@UEAAPEAXI@Z 0000000180048e00 f i MSVCRT:throw_bad_alloc.obj
 0001:00047e44       ?__scrt_throw_std_bad_alloc@@YAXXZ 0000000180048e44 f   MSVCRT:throw_bad_alloc.obj
 0001:00047e64       ?__scrt_throw_std_bad_array_new_length@@YAXXZ 0000000180048e64 f   MSVCRT:throw_bad_alloc.obj
 0001:00047e84       ?what@exception@std@@UEBAPEBDXZ 0000000180048e84 f i MSVCRT:throw_bad_alloc.obj
 0001:00047e98       __isa_available_init       0000000180048e98 f   MSVCRT:_cpu_disp_.obj
 0001:00048054       _get_startup_argv_mode     0000000180049054 f   MSVCRT:argv_mode.obj
 0001:0004805c       __scrt_is_ucrt_dll_in_use  000000018004905c f   MSVCRT:ucrt_detection.obj
 0001:00048068       __crt_debugger_hook        0000000180049068 f   MSVCRT:utility_desktop.obj
 0001:00048070       __scrt_fastfail            0000000180049070 f   MSVCRT:utility_desktop.obj
 0001:000481b8       __scrt_get_show_window_mode 00000001800491b8 f   MSVCRT:utility_desktop.obj
 0001:000481f4       __scrt_initialize_winrt    00000001800491f4 f   MSVCRT:utility_desktop.obj
 0001:000481f8       __scrt_is_managed_app      00000001800491f8 f   MSVCRT:utility_desktop.obj
 0001:0004824c       __scrt_set_unhandled_exception_filter 000000018004924c f   MSVCRT:utility_desktop.obj
 0001:0004825c       __scrt_unhandled_exception_filter 000000018004925c f   MSVCRT:utility_desktop.obj
 0001:00048294       _guard_check_icall         0000000180049294 f i MSVCRT:checkcfg.obj
 0001:0004829c       __security_init_cookie     000000018004929c f   MSVCRT:gs_support.obj
 0001:00048348       DllMain                    0000000180049348 f   MSVCRT:dll_dllmain_stub.obj
 0001:0004836c       ?__scrt_initialize_type_info@@YAXXZ 000000018004936c f   MSVCRT:tncleanup.obj
 0001:0004837c       ?__scrt_uninitialize_type_info@@YAXXZ 000000018004937c f   MSVCRT:tncleanup.obj
 0001:00048388       __local_stdio_scanf_options 0000000180049388 f i MSVCRT:default_local_stdio_options.obj
 0001:00048390       __scrt_initialize_default_local_stdio_options 0000000180049390 f   MSVCRT:default_local_stdio_options.obj
 0001:000483ac       __scrt_get_dyn_tls_init_callback 00000001800493ac f   MSVCRT:dyn_tls_init.obj
 0001:000483b4       _RTC_Initialize            00000001800493b4 f   MSVCRT:_initsect_.obj
 0001:00048400       _RTC_Terminate             0000000180049400 f   MSVCRT:_initsect_.obj
 0001:0004844c       _guard_check_icall_nop     000000018004944c f i MSVCRT:guard_support.obj
 0001:00048450       _guard_icall_checks_enforced 0000000180049450 f i MSVCRT:guard_support.obj
 0001:00048470       ?uncaught_exception@std@@YA_NXZ 0000000180049470 f   msvcprt:MSVCP140.dll
 0001:00048476       ?_Xbad_alloc@std@@YAXXZ    0000000180049476 f   msvcprt:MSVCP140.dll
 0001:0004847c       ?_Xlength_error@std@@YAXPEBD@Z 000000018004947c f   msvcprt:MSVCP140.dll
 0001:00048482       ?good@ios_base@std@@QEBA_NXZ 0000000180049482 f   msvcprt:MSVCP140.dll
 0001:00048488       ?flags@ios_base@std@@QEBAHXZ 0000000180049488 f   msvcprt:MSVCP140.dll
 0001:0004848e       ?width@ios_base@std@@QEBA_JXZ 000000018004948e f   msvcprt:MSVCP140.dll
 0001:00048494       ?width@ios_base@std@@QEAA_J_J@Z 0000000180049494 f   msvcprt:MSVCP140.dll
 0001:0004849a       ?sputc@?$basic_streambuf@DU?$char_traits@D@std@@@std@@QEAAHD@Z 000000018004949a f   msvcprt:MSVCP140.dll
 0001:000484a0       ?sputn@?$basic_streambuf@DU?$char_traits@D@std@@@std@@QEAA_JPEBD_J@Z 00000001800494a0 f   msvcprt:MSVCP140.dll
 0001:000484a6       ?setstate@?$basic_ios@DU?$char_traits@D@std@@@std@@QEAAXH_N@Z 00000001800494a6 f   msvcprt:MSVCP140.dll
 0001:000484ac       ?tie@?$basic_ios@DU?$char_traits@D@std@@@std@@QEBAPEAV?$basic_ostream@DU?$char_traits@D@std@@@2@XZ 00000001800494ac f   msvcprt:MSVCP140.dll
 0001:000484b2       ?rdbuf@?$basic_ios@DU?$char_traits@D@std@@@std@@QEBAPEAV?$basic_streambuf@DU?$char_traits@D@std@@@2@XZ 00000001800494b2 f   msvcprt:MSVCP140.dll
 0001:000484b8       ?fill@?$basic_ios@DU?$char_traits@D@std@@@std@@QEBADXZ 00000001800494b8 f   msvcprt:MSVCP140.dll
 0001:000484be       ?_Osfx@?$basic_ostream@DU?$char_traits@D@std@@@std@@QEAAXXZ 00000001800494be f   msvcprt:MSVCP140.dll
 0001:000484c4       ??6?$basic_ostream@DU?$char_traits@D@std@@@std@@QEAAAEAV01@_N@Z 00000001800494c4 f   msvcprt:MSVCP140.dll
 0001:000484ca       ??6?$basic_ostream@DU?$char_traits@D@std@@@std@@QEAAAEAV01@H@Z 00000001800494ca f   msvcprt:MSVCP140.dll
 0001:000484d0       ??6?$basic_ostream@DU?$char_traits@D@std@@@std@@QEAAAEAV01@I@Z 00000001800494d0 f   msvcprt:MSVCP140.dll
 0001:000484d6       ??6?$basic_ostream@DU?$char_traits@D@std@@@std@@QEAAAEAV01@M@Z 00000001800494d6 f   msvcprt:MSVCP140.dll
 0001:000484dc       ?flush@?$basic_ostream@DU?$char_traits@D@std@@@std@@QEAAAEAV12@XZ 00000001800494dc f   msvcprt:MSVCP140.dll
 0001:000484e2       RtlCaptureContext          00000001800494e2 f   kernel32:KERNEL32.dll
 0001:000484e8       RtlLookupFunctionEntry     00000001800494e8 f   kernel32:KERNEL32.dll
 0001:000484ee       RtlVirtualUnwind           00000001800494ee f   kernel32:KERNEL32.dll
 0001:000484f4       UnhandledExceptionFilter   00000001800494f4 f   kernel32:KERNEL32.dll
 0001:000484fa       SetUnhandledExceptionFilter 00000001800494fa f   kernel32:KERNEL32.dll
 0001:00048500       GetCurrentProcess          0000000180049500 f   kernel32:KERNEL32.dll
 0001:00048506       TerminateProcess           0000000180049506 f   kernel32:KERNEL32.dll
 0001:0004850c       IsProcessorFeaturePresent  000000018004950c f   kernel32:KERNEL32.dll
 0001:00048512       IsDebuggerPresent          0000000180049512 f   kernel32:KERNEL32.dll
 0001:00048518       GetStartupInfoW            0000000180049518 f   kernel32:KERNEL32.dll
 0001:0004851e       GetModuleHandleW           000000018004951e f   kernel32:KERNEL32.dll
 0001:00048524       QueryPerformanceCounter    0000000180049524 f   kernel32:KERNEL32.dll
 0001:0004852a       GetCurrentProcessId        000000018004952a f   kernel32:KERNEL32.dll
 0001:00048530       GetCurrentThreadId         0000000180049530 f   kernel32:KERNEL32.dll
 0001:00048536       GetSystemTimeAsFileTime    0000000180049536 f   kernel32:KERNEL32.dll
 0001:0004853c       DisableThreadLibraryCalls  000000018004953c f   kernel32:KERNEL32.dll
 0001:00048542       InitializeSListHead        0000000180049542 f   kernel32:KERNEL32.dll
 0001:00048548       memcpy                     0000000180049548 f   vcruntime:VCRUNTIME140.dll
 0001:0004854e       memset                     000000018004954e f   vcruntime:VCRUNTIME140.dll
 0001:00048554       _purecall                  0000000180049554 f   vcruntime:VCRUNTIME140.dll
 0001:0004855a       _CxxThrowException         000000018004955a f   vcruntime:VCRUNTIME140.dll
 0001:00048560       __CxxFrameHandler3         0000000180049560 f   vcruntime:VCRUNTIME140.dll
 0001:00048566       memmove                    0000000180049566 f   vcruntime:VCRUNTIME140.dll
 0001:0004856c       __C_specific_handler       000000018004956c f   vcruntime:VCRUNTIME140.dll
 0001:00048572       __std_exception_copy       0000000180049572 f   vcruntime:VCRUNTIME140.dll
 0001:00048578       __std_exception_destroy    0000000180049578 f   vcruntime:VCRUNTIME140.dll
 0001:0004857e       __std_type_info_destroy_list 000000018004957e f   vcruntime:VCRUNTIME140.dll
 0001:00048584       strcmp                     0000000180049584 f   ucrt:api-ms-win-crt-string-l1-1-0.dll
 0001:0004858a       strcat                     000000018004958a f   ucrt:api-ms-win-crt-string-l1-1-0.dll
 0001:00048590       frexp                      0000000180049590 f   ucrt:api-ms-win-crt-math-l1-1-0.dll
 0001:00048596       __stdio_common_vsprintf    0000000180049596 f   ucrt:api-ms-win-crt-stdio-l1-1-0.dll
 0001:0004859c       free                       000000018004959c f   ucrt:api-ms-win-crt-heap-l1-1-0.dll
 0001:000485a2       malloc                     00000001800495a2 f   ucrt:api-ms-win-crt-heap-l1-1-0.dll
 0001:000485a8       strlen                     00000001800495a8 f   ucrt:api-ms-win-crt-string-l1-1-0.dll
 0001:000485ae       _invalid_parameter_noinfo_noreturn 00000001800495ae f   ucrt:api-ms-win-crt-runtime-l1-1-0.dll
 0001:000485b4       abs                        00000001800495b4 f   ucrt:api-ms-win-crt-utility-l1-1-0.dll
 0001:000485ba       fabs                       00000001800495ba f   ucrt:api-ms-win-crt-math-l1-1-0.dll
 0001:000485c0       sqrt                       00000001800495c0 f   ucrt:api-ms-win-crt-math-l1-1-0.dll
 0001:000485c6       cosf                       00000001800495c6 f   ucrt:api-ms-win-crt-math-l1-1-0.dll
 0001:000485cc       sinf                       00000001800495cc f   ucrt:api-ms-win-crt-math-l1-1-0.dll
 0001:000485d2       _wassert                   00000001800495d2 f   ucrt:api-ms-win-crt-runtime-l1-1-0.dll
 0001:000485d8       _callnewh                  00000001800495d8 f   ucrt:api-ms-win-crt-heap-l1-1-0.dll
 0001:000485de       _seh_filter_dll            00000001800495de f   ucrt:api-ms-win-crt-runtime-l1-1-0.dll
 0001:000485e4       _configure_narrow_argv     00000001800495e4 f   ucrt:api-ms-win-crt-runtime-l1-1-0.dll
 0001:000485ea       _initialize_narrow_environment 00000001800495ea f   ucrt:api-ms-win-crt-runtime-l1-1-0.dll
 0001:000485f0       _initialize_onexit_table   00000001800495f0 f   ucrt:api-ms-win-crt-runtime-l1-1-0.dll
 0001:000485f6       _register_onexit_function  00000001800495f6 f   ucrt:api-ms-win-crt-runtime-l1-1-0.dll
 0001:000485fc       _execute_onexit_table      00000001800495fc f   ucrt:api-ms-win-crt-runtime-l1-1-0.dll
 0001:00048602       _crt_atexit                0000000180049602 f   ucrt:api-ms-win-crt-runtime-l1-1-0.dll
 0001:00048608       _crt_at_quick_exit         0000000180049608 f   ucrt:api-ms-win-crt-runtime-l1-1-0.dll
 0001:0004860e       _cexit                     000000018004960e f   ucrt:api-ms-win-crt-runtime-l1-1-0.dll
 0001:00048614       _initterm                  0000000180049614 f   ucrt:api-ms-win-crt-runtime-l1-1-0.dll
 0001:0004861a       _initterm_e                000000018004961a f   ucrt:api-ms-win-crt-runtime-l1-1-0.dll
 0001:00048620       terminate                  0000000180049620 f   ucrt:api-ms-win-crt-runtime-l1-1-0.dll
 0001:00048628       __scrt_stub_for_acrt_initialize 0000000180049628 f   MSVCRT:ucrt_stubs.obj
 0001:00048628       __acrt_initialize          0000000180049628 f   MSVCRT:ucrt_stubs.obj
 0001:00048628       __vcrt_initialize          0000000180049628 f   MSVCRT:ucrt_stubs.obj
 0001:0004862c       __vcrt_thread_attach       000000018004962c f   MSVCRT:ucrt_stubs.obj
 0001:0004862c       __acrt_thread_attach       000000018004962c f   MSVCRT:ucrt_stubs.obj
 0001:0004862c       __scrt_stub_for_acrt_thread_attach 000000018004962c f   MSVCRT:ucrt_stubs.obj
 0001:00048630       __vcrt_thread_detach       0000000180049630 f   MSVCRT:ucrt_stubs.obj
 0001:00048630       __scrt_stub_for_acrt_thread_detach 0000000180049630 f   MSVCRT:ucrt_stubs.obj
 0001:00048630       __acrt_thread_detach       0000000180049630 f   MSVCRT:ucrt_stubs.obj
 0001:00048634       __acrt_uninitialize        0000000180049634 f   MSVCRT:ucrt_stubs.obj
 0001:00048634       __vcrt_uninitialize        0000000180049634 f   MSVCRT:ucrt_stubs.obj
 0001:00048634       __scrt_stub_for_acrt_uninitialize 0000000180049634 f   MSVCRT:ucrt_stubs.obj
 0001:00048638       __vcrt_uninitialize_critical 0000000180049638 f   MSVCRT:ucrt_stubs.obj
 0001:00048638       __scrt_stub_for_acrt_uninitialize_critical 0000000180049638 f   MSVCRT:ucrt_stubs.obj
 0001:00048638       __acrt_uninitialize_critical 0000000180049638 f   MSVCRT:ucrt_stubs.obj
 0001:0004863c       __scrt_stub_for_is_c_termination_complete 000000018004963c f   MSVCRT:ucrt_stubs.obj
 0001:0004863c       _is_c_termination_complete 000000018004963c f   MSVCRT:ucrt_stubs.obj
 0001:00048650       _guard_dispatch_icall_nop  0000000180049650 f   MSVCRT:_guard_dispatch_.obj
 0002:00000000       __imp_GetCurrentProcess    000000018004b000     kernel32:KERNEL32.dll
 0002:00000008       __imp_InitializeSListHead  000000018004b008     kernel32:KERNEL32.dll
 0002:00000010       __imp_DisableThreadLibraryCalls 000000018004b010     kernel32:KERNEL32.dll
 0002:00000018       __imp_GetSystemTimeAsFileTime 000000018004b018     kernel32:KERNEL32.dll
 0002:00000020       __imp_GetCurrentThreadId   000000018004b020     kernel32:KERNEL32.dll
 0002:00000028       __imp_GetCurrentProcessId  000000018004b028     kernel32:KERNEL32.dll
 0002:00000030       __imp_QueryPerformanceCounter 000000018004b030     kernel32:KERNEL32.dll
 0002:00000038       __imp_GetModuleHandleW     000000018004b038     kernel32:KERNEL32.dll
 0002:00000040       __imp_GetStartupInfoW      000000018004b040     kernel32:KERNEL32.dll
 0002:00000048       __imp_IsDebuggerPresent    000000018004b048     kernel32:KERNEL32.dll
 0002:00000050       __imp_IsProcessorFeaturePresent 000000018004b050     kernel32:KERNEL32.dll
 0002:00000058       __imp_TerminateProcess     000000018004b058     kernel32:KERNEL32.dll
 0002:00000060       __imp_SetUnhandledExceptionFilter 000000018004b060     kernel32:KERNEL32.dll
 0002:00000068       __imp_UnhandledExceptionFilter 000000018004b068     kernel32:KERNEL32.dll
 0002:00000070       __imp_RtlVirtualUnwind     000000018004b070     kernel32:KERNEL32.dll
 0002:00000078       __imp_RtlLookupFunctionEntry 000000018004b078     kernel32:KERNEL32.dll
 0002:00000080       __imp_RtlCaptureContext    000000018004b080     kernel32:KERNEL32.dll
 0002:00000088       \177KERNEL32_NULL_THUNK_DATA 000000018004b088     kernel32:KERNEL32.dll
 0002:00000090       __imp_??6?$basic_ostream@DU?$char_traits@D@std@@@std@@QEAAAEAV01@M@Z 000000018004b090     msvcprt:MSVCP140.dll
 0002:00000098       __imp_??6?$basic_ostream@DU?$char_traits@D@std@@@std@@QEAAAEAV01@I@Z 000000018004b098     msvcprt:MSVCP140.dll
 0002:000000a0       __imp_??6?$basic_ostream@DU?$char_traits@D@std@@@std@@QEAAAEAV01@H@Z 000000018004b0a0     msvcprt:MSVCP140.dll
 0002:000000a8       __imp_??6?$basic_ostream@DU?$char_traits@D@std@@@std@@QEAAAEAV01@_N@Z 000000018004b0a8     msvcprt:MSVCP140.dll
 0002:000000b0       __imp_?_Osfx@?$basic_ostream@DU?$char_traits@D@std@@@std@@QEAAXXZ 000000018004b0b0     msvcprt:MSVCP140.dll
 0002:000000b8       __imp_?fill@?$basic_ios@DU?$char_traits@D@std@@@std@@QEBADXZ 000000018004b0b8     msvcprt:MSVCP140.dll
 0002:000000c0       __imp_?rdbuf@?$basic_ios@DU?$char_traits@D@std@@@std@@QEBAPEAV?$basic_streambuf@DU?$char_traits@D@std@@@2@XZ 000000018004b0c0     msvcprt:MSVCP140.dll
 0002:000000c8       __imp_?tie@?$basic_ios@DU?$char_traits@D@std@@@std@@QEBAPEAV?$basic_ostream@DU?$char_traits@D@std@@@2@XZ 000000018004b0c8     msvcprt:MSVCP140.dll
 0002:000000d0       __imp_?setstate@?$basic_ios@DU?$char_traits@D@std@@@std@@QEAAXH_N@Z 000000018004b0d0     msvcprt:MSVCP140.dll
 0002:000000d8       __imp_?sputn@?$basic_streambuf@DU?$char_traits@D@std@@@std@@QEAA_JPEBD_J@Z 000000018004b0d8     msvcprt:MSVCP140.dll
 0002:000000e0       __imp_?sputc@?$basic_streambuf@DU?$char_traits@D@std@@@std@@QEAAHD@Z 000000018004b0e0     msvcprt:MSVCP140.dll
 0002:000000e8       __imp_?width@ios_base@std@@QEAA_J_J@Z 000000018004b0e8     msvcprt:MSVCP140.dll
 0002:000000f0       __imp_?width@ios_base@std@@QEBA_JXZ 000000018004b0f0     msvcprt:MSVCP140.dll
 0002:000000f8       __imp_?flags@ios_base@std@@QEBAHXZ 000000018004b0f8     msvcprt:MSVCP140.dll
 0002:00000100       __imp_?_Xlength_error@std@@YAXPEBD@Z 000000018004b100     msvcprt:MSVCP140.dll
 0002:00000108       __imp_?_Xbad_alloc@std@@YAXXZ 000000018004b108     msvcprt:MSVCP140.dll
 0002:00000110       __imp_?uncaught_exception@std@@YA_NXZ 000000018004b110     msvcprt:MSVCP140.dll
 0002:00000118       __imp_?flush@?$basic_ostream@DU?$char_traits@D@std@@@std@@QEAAAEAV12@XZ 000000018004b118     msvcprt:MSVCP140.dll
 0002:00000120       __imp_?good@ios_base@std@@QEBA_NXZ 000000018004b120     msvcprt:MSVCP140.dll
 0002:00000128       \177MSVCP140_NULL_THUNK_DATA 000000018004b128     msvcprt:MSVCP140.dll
 0002:00000130       __imp___std_exception_destroy 000000018004b130     vcruntime:VCRUNTIME140.dll
 0002:00000138       __imp___std_exception_copy 000000018004b138     vcruntime:VCRUNTIME140.dll
 0002:00000140       __imp___C_specific_handler 000000018004b140     vcruntime:VCRUNTIME140.dll
 0002:00000148       __imp___std_type_info_destroy_list 000000018004b148     vcruntime:VCRUNTIME140.dll
 0002:00000150       __imp___CxxFrameHandler3   000000018004b150     vcruntime:VCRUNTIME140.dll
 0002:00000158       __imp__CxxThrowException   000000018004b158     vcruntime:VCRUNTIME140.dll
 0002:00000160       __imp__purecall            000000018004b160     vcruntime:VCRUNTIME140.dll
 0002:00000168       __imp_memset               000000018004b168     vcruntime:VCRUNTIME140.dll
 0002:00000170       __imp_memcpy               000000018004b170     vcruntime:VCRUNTIME140.dll
 0002:00000178       __imp_memmove              000000018004b178     vcruntime:VCRUNTIME140.dll
 0002:00000180       \177VCRUNTIME140_NULL_THUNK_DATA 000000018004b180     vcruntime:VCRUNTIME140.dll
 0002:00000188       __imp_malloc               000000018004b188     ucrt:api-ms-win-crt-heap-l1-1-0.dll
 0002:00000190       __imp_free                 000000018004b190     ucrt:api-ms-win-crt-heap-l1-1-0.dll
 0002:00000198       __imp__callnewh            000000018004b198     ucrt:api-ms-win-crt-heap-l1-1-0.dll
 0002:000001a0       \177api-ms-win-crt-heap-l1-1-0_NULL_THUNK_DATA 000000018004b1a0     ucrt:api-ms-win-crt-heap-l1-1-0.dll
 0002:000001a8       __imp_sinf                 000000018004b1a8     ucrt:api-ms-win-crt-math-l1-1-0.dll
 0002:000001b0       __imp_frexp                000000018004b1b0     ucrt:api-ms-win-crt-math-l1-1-0.dll
 0002:000001b8       __imp_sqrt                 000000018004b1b8     ucrt:api-ms-win-crt-math-l1-1-0.dll
 0002:000001c0       __imp_fabs                 000000018004b1c0     ucrt:api-ms-win-crt-math-l1-1-0.dll
 0002:000001c8       __imp_cosf                 000000018004b1c8     ucrt:api-ms-win-crt-math-l1-1-0.dll
 0002:000001d0       \177api-ms-win-crt-math-l1-1-0_NULL_THUNK_DATA 000000018004b1d0     ucrt:api-ms-win-crt-math-l1-1-0.dll
 0002:000001d8       __imp__initterm_e          000000018004b1d8     ucrt:api-ms-win-crt-runtime-l1-1-0.dll
 0002:000001e0       __imp__wassert             000000018004b1e0     ucrt:api-ms-win-crt-runtime-l1-1-0.dll
 0002:000001e8       __imp_terminate            000000018004b1e8     ucrt:api-ms-win-crt-runtime-l1-1-0.dll
 0002:000001f0       __imp__invalid_parameter_noinfo_noreturn 000000018004b1f0     ucrt:api-ms-win-crt-runtime-l1-1-0.dll
 0002:000001f8       __imp__seh_filter_dll      000000018004b1f8     ucrt:api-ms-win-crt-runtime-l1-1-0.dll
 0002:00000200       __imp__configure_narrow_argv 000000018004b200     ucrt:api-ms-win-crt-runtime-l1-1-0.dll
 0002:00000208       __imp__initialize_narrow_environment 000000018004b208     ucrt:api-ms-win-crt-runtime-l1-1-0.dll
 0002:00000210       __imp__initialize_onexit_table 000000018004b210     ucrt:api-ms-win-crt-runtime-l1-1-0.dll
 0002:00000218       __imp__register_onexit_function 000000018004b218     ucrt:api-ms-win-crt-runtime-l1-1-0.dll
 0002:00000220       __imp__execute_onexit_table 000000018004b220     ucrt:api-ms-win-crt-runtime-l1-1-0.dll
 0002:00000228       __imp__crt_atexit          000000018004b228     ucrt:api-ms-win-crt-runtime-l1-1-0.dll
 0002:00000230       __imp__crt_at_quick_exit   000000018004b230     ucrt:api-ms-win-crt-runtime-l1-1-0.dll
 0002:00000238       __imp__cexit               000000018004b238     ucrt:api-ms-win-crt-runtime-l1-1-0.dll
 0002:00000240       __imp__initterm            000000018004b240     ucrt:api-ms-win-crt-runtime-l1-1-0.dll
 0002:00000248       \177api-ms-win-crt-runtime-l1-1-0_NULL_THUNK_DATA 000000018004b248     ucrt:api-ms-win-crt-runtime-l1-1-0.dll
 0002:00000250       __imp___stdio_common_vsprintf 000000018004b250     ucrt:api-ms-win-crt-stdio-l1-1-0.dll
 0002:00000258       \177api-ms-win-crt-stdio-l1-1-0_NULL_THUNK_DATA 000000018004b258     ucrt:api-ms-win-crt-stdio-l1-1-0.dll
 0002:00000260       __imp_strcat               000000018004b260     ucrt:api-ms-win-crt-string-l1-1-0.dll
 0002:00000268       __imp_strlen               000000018004b268     ucrt:api-ms-win-crt-string-l1-1-0.dll
 0002:00000270       __imp_strcmp               000000018004b270     ucrt:api-ms-win-crt-string-l1-1-0.dll
 0002:00000278       \177api-ms-win-crt-string-l1-1-0_NULL_THUNK_DATA 000000018004b278     ucrt:api-ms-win-crt-string-l1-1-0.dll
 0002:00000280       __imp_abs                  000000018004b280     ucrt:api-ms-win-crt-utility-l1-1-0.dll
 0002:00000288       \177api-ms-win-crt-utility-l1-1-0_NULL_THUNK_DATA 000000018004b288     ucrt:api-ms-win-crt-utility-l1-1-0.dll
 0002:00000290       __imp_covrtTransInitFcn    000000018004b290     libcovrt:libcovrt.dll
 0002:00000298       __imp_covrtDeleteStateflowInstanceData 000000018004b298     libcovrt:libcovrt.dll
 0002:000002a0       __imp_covrtStateInitFcn    000000018004b2a0     libcovrt:libcovrt.dll
 0002:000002a8       __imp_covrtEmlFcnEval      000000018004b2a8     libcovrt:libcovrt.dll
 0002:000002b0       __imp_covrtEmlFcnInitFcn   000000018004b2b0     libcovrt:libcovrt.dll
 0002:000002b8       __imp_covrtEmlInitFcn      000000018004b2b8     libcovrt:libcovrt.dll
 0002:000002c0       __imp_covrtSigUpdateFcn    000000018004b2c0     libcovrt:libcovrt.dll
 0002:000002c8       __imp_covrtChartInitFcn    000000018004b2c8     libcovrt:libcovrt.dll
 0002:000002d0       __imp_covrtCreateStateflowInstanceData 000000018004b2d0     libcovrt:libcovrt.dll
 0002:000002d8       \177libcovrt_NULL_THUNK_DATA 000000018004b2d8     libcovrt:libcovrt.dll
 0002:000002e0       __imp_emlrtMallocMex       000000018004b2e0     libemlrt:libemlrt.dll
 0002:000002e8       __imp_emlrtSizeMulR2012b   000000018004b2e8     libemlrt:libemlrt.dll
 0002:000002f0       __imp_emlrtCallocMex       000000018004b2f0     libemlrt:libemlrt.dll
 0002:000002f8       __imp_emlrtHeapAllocationErrorR2012b 000000018004b2f8     libemlrt:libemlrt.dll
 0002:00000300       __imp_emlrtFreeMex         000000018004b300     libemlrt:libemlrt.dll
 0002:00000308       __imp_emlrtLicenseCheckR2012b 000000018004b308     libemlrt:libemlrt.dll
 0002:00000310       \177libemlrt_NULL_THUNK_DATA 000000018004b310     libemlrt:libemlrt.dll
 0002:00000318       __imp_mexMakeArrayPersistent_800 000000018004b318     libmex:libmex.dll
 0002:00000320       __imp_mexErrMsgTxt_800     000000018004b320     libmex:libmex.dll
 0002:00000328       __imp_mexWarnMsgTxt_800    000000018004b328     libmex:libmex.dll
 0002:00000330       __imp_mexCallMATLAB_800    000000018004b330     libmex:libmex.dll
 0002:00000338       __imp_mexLock_800          000000018004b338     libmex:libmex.dll
 0002:00000340       __imp_mexUnlock_800        000000018004b340     libmex:libmex.dll
 0002:00000348       __imp_mexIsLocked_800      000000018004b348     libmex:libmex.dll
 0002:00000350       \177libmex_NULL_THUNK_DATA 000000018004b350     libmex:libmex.dll
 0002:00000358       __imp_ComputeMetric_ssd_single 000000018004b358     libmwComputeMetric:libmwComputeMetric.dll
 0002:00000360       \177libmwComputeMetric_NULL_THUNK_DATA 000000018004b360     libmwComputeMetric:libmwComputeMetric.dll
 0002:00000368       __imp_muSingleScalarRound  000000018004b368     libmwmathutil:libmwmathutil.dll
 0002:00000370       __imp_muDoubleScalarRound  000000018004b370     libmwmathutil:libmwmathutil.dll
 0002:00000378       __imp_muSingleScalarIsNaN  000000018004b378     libmwmathutil:libmwmathutil.dll
 0002:00000380       __imp_muSingleScalarIsInf  000000018004b380     libmwmathutil:libmwmathutil.dll
 0002:00000388       __imp_muSingleScalarSqrt   000000018004b388     libmwmathutil:libmwmathutil.dll
 0002:00000390       __imp_muDoubleScalarFloor  000000018004b390     libmwmathutil:libmwmathutil.dll
 0002:00000398       __imp_muDoubleScalarLog    000000018004b398     libmwmathutil:libmwmathutil.dll
 0002:000003a0       \177libmwmathutil_NULL_THUNK_DATA 000000018004b3a0     libmwmathutil:libmwmathutil.dll
 0002:000003a8       __imp_rgb2gray_tbb_uint8   000000018004b3a8     libmwrgb2gray_tbb:libmwrgb2gray_tbb.dll
 0002:000003b0       \177libmwrgb2gray_tbb_NULL_THUNK_DATA 000000018004b3b0     libmwrgb2gray_tbb:libmwrgb2gray_tbb.dll
 0002:000003b8       __imp_mxDuplicateArray_800 000000018004b3b8     libmx:libmx.dll
 0002:000003c0       __imp_mxSetCell_800        000000018004b3c0     libmx:libmx.dll
 0002:000003c8       __imp_mxSetField_800       000000018004b3c8     libmx:libmx.dll
 0002:000003d0       __imp_mxCreateString_800   000000018004b3d0     libmx:libmx.dll
 0002:000003d8       __imp_mxCreateCellMatrix_800 000000018004b3d8     libmx:libmx.dll
 0002:000003e0       __imp_mxCreateStructMatrix_800 000000018004b3e0     libmx:libmx.dll
 0002:000003e8       __imp_mxGetInf_800         000000018004b3e8     libmx:libmx.dll
 0002:000003f0       __imp_mxGetString_800      000000018004b3f0     libmx:libmx.dll
 0002:000003f8       __imp_mxCalloc_800         000000018004b3f8     libmx:libmx.dll
 0002:00000400       __imp_mxGetM_800           000000018004b400     libmx:libmx.dll
 0002:00000408       __imp_mxGetClassID_800     000000018004b408     libmx:libmx.dll
 0002:00000410       __imp_mxIsNumeric_800      000000018004b410     libmx:libmx.dll
 0002:00000418       __imp_mxIsComplex_800      000000018004b418     libmx:libmx.dll
 0002:00000420       __imp_mxGetN_800           000000018004b420     libmx:libmx.dll
 0002:00000428       __imp_mxCreateDoubleScalar_800 000000018004b428     libmx:libmx.dll
 0002:00000430       __imp_mxCreateDoubleMatrix_800 000000018004b430     libmx:libmx.dll
 0002:00000438       __imp_mxDestroyArray_800   000000018004b438     libmx:libmx.dll
 0002:00000440       __imp_mxGetPr_800          000000018004b440     libmx:libmx.dll
 0002:00000448       __imp_mxGetScalar_800      000000018004b448     libmx:libmx.dll
 0002:00000450       __imp_mxIsChar_800         000000018004b450     libmx:libmx.dll
 0002:00000458       __imp_mxGetNaN_800         000000018004b458     libmx:libmx.dll
 0002:00000460       \177libmx_NULL_THUNK_DATA  000000018004b460     libmx:libmx.dll
 0002:00000468       __imp_utFree               000000018004b468     libut:libut.dll
 0002:00000470       __imp_utMalloc             000000018004b470     libut:libut.dll
 0002:00000478       \177libut_NULL_THUNK_DATA  000000018004b478     libut:libut.dll
 0002:00000480       __imp_?deallocate@String@cv@@AEAAXXZ 000000018004b480     opencv_core340:opencv_core340.dll
 0002:00000488       __imp_?fastFree@cv@@YAXPEAX@Z 000000018004b488     opencv_core340:opencv_core340.dll
 0002:00000490       __imp_?error@cv@@YAXHAEBVString@1@PEBD1H@Z 000000018004b490     opencv_core340:opencv_core340.dll
 0002:00000498       __imp_?deallocate@Mat@cv@@QEAAXXZ 000000018004b498     opencv_core340:opencv_core340.dll
 0002:000004a0       __imp_?copySize@Mat@cv@@QEAAXAEBV12@@Z 000000018004b4a0     opencv_core340:opencv_core340.dll
 0002:000004a8       __imp_?fastAtan2@cv@@YAMMM@Z 000000018004b4a8     opencv_core340:opencv_core340.dll
 0002:000004b0       __imp_?getMat_@_InputArray@cv@@QEBA?AVMat@2@H@Z 000000018004b4b0     opencv_core340:opencv_core340.dll
 0002:000004b8       __imp_?kind@_InputArray@cv@@QEBAHXZ 000000018004b4b8     opencv_core340:opencv_core340.dll
 0002:000004c0       __imp_?type@_InputArray@cv@@QEBAHH@Z 000000018004b4c0     opencv_core340:opencv_core340.dll
 0002:000004c8       __imp_?needed@_OutputArray@cv@@QEBA_NXZ 000000018004b4c8     opencv_core340:opencv_core340.dll
 0002:000004d0       __imp_?create@_OutputArray@cv@@QEBAXHHHH_NH@Z 000000018004b4d0     opencv_core340:opencv_core340.dll
 0002:000004d8       __imp_?noArray@cv@@YAAEBV_InputOutputArray@1@XZ 000000018004b4d8     opencv_core340:opencv_core340.dll
 0002:000004e0       __imp_??0Mat@cv@@QEAA@AEBV01@AEBVRange@1@1@Z 000000018004b4e0     opencv_core340:opencv_core340.dll
 0002:000004e8       __imp_?copyTo@Mat@cv@@QEBAXAEBV_OutputArray@2@@Z 000000018004b4e8     opencv_core340:opencv_core340.dll
 0002:000004f0       __imp_?reshape@Mat@cv@@QEBA?AV12@HH@Z 000000018004b4f0     opencv_core340:opencv_core340.dll
 0002:000004f8       __imp_?create@Mat@cv@@QEAAXHPEBHH@Z 000000018004b4f8     opencv_core340:opencv_core340.dll
 0002:00000500       __imp_?min@cv@@YAXAEBV_InputArray@1@0AEBV_OutputArray@1@@Z 000000018004b500     opencv_core340:opencv_core340.dll
 0002:00000508       __imp_?solve@cv@@YA_NAEBV_InputArray@1@0AEBV_OutputArray@1@H@Z 000000018004b508     opencv_core340:opencv_core340.dll
 0002:00000510       __imp_??0Algorithm@cv@@QEAA@XZ 000000018004b510     opencv_core340:opencv_core340.dll
 0002:00000518       __imp_??1Algorithm@cv@@UEAA@XZ 000000018004b518     opencv_core340:opencv_core340.dll
 0002:00000520       __imp_?save@Algorithm@cv@@UEBAXAEBVString@2@@Z 000000018004b520     opencv_core340:opencv_core340.dll
 0002:00000528       __imp_??1ParallelLoopBody@cv@@UEAA@XZ 000000018004b528     opencv_core340:opencv_core340.dll
 0002:00000530       __imp_?parallel_for_@cv@@YAXAEBVRange@1@AEBVParallelLoopBody@1@N@Z 000000018004b530     opencv_core340:opencv_core340.dll
 0002:00000538       __imp_??0Mutex@cv@@QEAA@XZ 000000018004b538     opencv_core340:opencv_core340.dll
 0002:00000540       __imp_??1Mutex@cv@@QEAA@XZ 000000018004b540     opencv_core340:opencv_core340.dll
 0002:00000548       __imp_?lock@Mutex@cv@@QEAAXXZ 000000018004b548     opencv_core340:opencv_core340.dll
 0002:00000550       __imp_?unlock@Mutex@cv@@QEAAXXZ 000000018004b550     opencv_core340:opencv_core340.dll
 0002:00000558       __imp_cvCreateMat          000000018004b558     opencv_core340:opencv_core340.dll
 0002:00000560       __imp_cvCartToPolar        000000018004b560     opencv_core340:opencv_core340.dll
 0002:00000568       __imp_??R?$DefaultDeleter@UCvMat@@@cv@@QEBAXPEAUCvMat@@@Z 000000018004b568     opencv_core340:opencv_core340.dll
 0002:00000570       __imp_?allocate@String@cv@@AEAAPEAD_K@Z 000000018004b570     opencv_core340:opencv_core340.dll
 0002:00000578       \177opencv_core340_NULL_THUNK_DATA 000000018004b578     opencv_core340:opencv_core340.dll
 0002:00000580       __imp_?detect@Feature2D@cv@@UEAAXAEBV_InputArray@2@AEAV?$vector@VKeyPoint@cv@@V?$allocator@VKeyPoint@cv@@@std@@@std@@0@Z 000000018004b580     opencv_features2d340:opencv_features2d340.dll
 0002:00000588       __imp_?getDefaultName@Feature2D@cv@@UEBA?AVString@2@XZ 000000018004b588     opencv_features2d340:opencv_features2d340.dll
 0002:00000590       __imp_?empty@Feature2D@cv@@UEBA_NXZ 000000018004b590     opencv_features2d340:opencv_features2d340.dll
 0002:00000598       __imp_?read@Feature2D@cv@@UEAAXAEBVFileNode@2@@Z 000000018004b598     opencv_features2d340:opencv_features2d340.dll
 0002:000005a0       __imp_?write@Feature2D@cv@@UEBAXAEAVFileStorage@2@@Z 000000018004b5a0     opencv_features2d340:opencv_features2d340.dll
 0002:000005a8       __imp_??1Feature2D@cv@@UEAA@XZ 000000018004b5a8     opencv_features2d340:opencv_features2d340.dll
 0002:000005b0       __imp_?detect@Feature2D@cv@@UEAAXAEBV_InputArray@2@AEAV?$vector@V?$vector@VKeyPoint@cv@@V?$allocator@VKeyPoint@cv@@@std@@@std@@V?$allocator@V?$vector@VKeyPoint@cv@@V?$allocator@VKeyPoint@cv@@@std@@@std@@@2@@std@@0@Z 000000018004b5b0     opencv_features2d340:opencv_features2d340.dll
 0002:000005b8       __imp_?compute@Feature2D@cv@@UEAAXAEBV_InputArray@2@AEAV?$vector@VKeyPoint@cv@@V?$allocator@VKeyPoint@cv@@@std@@@std@@AEBV_OutputArray@2@@Z 000000018004b5b8     opencv_features2d340:opencv_features2d340.dll
 0002:000005c0       __imp_?compute@Feature2D@cv@@UEAAXAEBV_InputArray@2@AEAV?$vector@V?$vector@VKeyPoint@cv@@V?$allocator@VKeyPoint@cv@@@std@@@std@@V?$allocator@V?$vector@VKeyPoint@cv@@V?$allocator@VKeyPoint@cv@@@std@@@std@@@2@@std@@AEBV_OutputArray@2@@Z 000000018004b5c0     opencv_features2d340:opencv_features2d340.dll
 0002:000005c8       __imp_?detectAndCompute@Feature2D@cv@@UEAAXAEBV_InputArray@2@0AEAV?$vector@VKeyPoint@cv@@V?$allocator@VKeyPoint@cv@@@std@@@std@@AEBV_OutputArray@2@_N@Z 000000018004b5c8     opencv_features2d340:opencv_features2d340.dll
 0002:000005d0       __imp_?descriptorSize@Feature2D@cv@@UEBAHXZ 000000018004b5d0     opencv_features2d340:opencv_features2d340.dll
 0002:000005d8       __imp_?descriptorType@Feature2D@cv@@UEBAHXZ 000000018004b5d8     opencv_features2d340:opencv_features2d340.dll
 0002:000005e0       __imp_?defaultNorm@Feature2D@cv@@UEBAHXZ 000000018004b5e0     opencv_features2d340:opencv_features2d340.dll
 0002:000005e8       \177opencv_features2d340_NULL_THUNK_DATA 000000018004b5e8     opencv_features2d340:opencv_features2d340.dll
 0002:000005f0       __imp_?integral@cv@@YAXAEBV_InputArray@1@AEBV_OutputArray@1@H@Z 000000018004b5f0     opencv_imgproc340:opencv_imgproc340.dll
 0002:000005f8       __imp_?resize@cv@@YAXAEBV_InputArray@1@AEBV_OutputArray@1@V?$Size_@H@1@NNH@Z 000000018004b5f8     opencv_imgproc340:opencv_imgproc340.dll
 0002:00000600       __imp_?cvtColor@cv@@YAXAEBV_InputArray@1@AEBV_OutputArray@1@HH@Z 000000018004b600     opencv_imgproc340:opencv_imgproc340.dll
 0002:00000608       __imp_?getGaussianKernel@cv@@YA?AVMat@1@HNH@Z 000000018004b608     opencv_imgproc340:opencv_imgproc340.dll
 0002:00000610       \177opencv_imgproc340_NULL_THUNK_DATA 000000018004b610     opencv_imgproc340:opencv_imgproc340.dll
 0002:00000618       __imp_sfrtGetCovrtInstance 000000018004b618     sf_runtime:sf_runtime.dll
 0002:00000620       __imp_sfListenerReportLineNumber 000000018004b620     sf_runtime:sf_runtime.dll
 0002:00000628       __imp_sf_free_ChartRunTimeInfo 000000018004b628     sf_runtime:sf_runtime.dll
 0002:00000630       __imp_sf_get_chart_instance_ptr 000000018004b630     sf_runtime:sf_runtime.dll
 0002:00000638       __imp_sf_mex_decode        000000018004b638     sf_runtime:sf_runtime.dll
 0002:00000640       __imp_sf_load_rtw_optimization_info 000000018004b640     sf_runtime:sf_runtime.dll
 0002:00000648       __imp_sim_mode_is_rtw_gen  000000018004b648     sf_runtime:sf_runtime.dll
 0002:00000650       __imp_sim_mode_is_external 000000018004b650     sf_runtime:sf_runtime.dll
 0002:00000658       __imp_sf_clear_rtw_identifier 000000018004b658     sf_runtime:sf_runtime.dll
 0002:00000660       __imp_sf_get_time          000000018004b660     sf_runtime:sf_runtime.dll
 0002:00000668       __imp_sfDoAnimationWrapper 000000018004b668     sf_runtime:sf_runtime.dll
 0002:00000670       __imp_setDataBrowseFcn     000000018004b670     sf_runtime:sf_runtime.dll
 0002:00000678       __imp_setLegacyDebuggerFlag 000000018004b678     sf_runtime:sf_runtime.dll
 0002:00000680       __imp_sf_warn_if_symbolic_dimension_param_changed 000000018004b680     sf_runtime:sf_runtime.dll
 0002:00000688       __imp_sf_set_work_widths   000000018004b688     sf_runtime:sf_runtime.dll
 0002:00000690       __imp_sfListenerInitializeUsingSimStruct 000000018004b690     sf_runtime:sf_runtime.dll
 0002:00000698       __imp_sfListenerTerminate  000000018004b698     sf_runtime:sf_runtime.dll
 0002:000006a0       __imp_sfListenerPushScopeForDynamicMatricesJitOff 000000018004b6a0     sf_runtime:sf_runtime.dll
 0002:000006a8       __imp_sfListenerInitializeRuntimeVars 000000018004b6a8     sf_runtime:sf_runtime.dll
 0002:000006b0       __imp_sfListenerInitializeIsStmtByStmtModeVar 000000018004b6b0     sf_runtime:sf_runtime.dll
 0002:000006b8       __imp_sfListenerInitializeRuntimeFcnVarsJitOff 000000018004b6b8     sf_runtime:sf_runtime.dll
 0002:000006c0       __imp_sfListenerReportStartingSection 000000018004b6c0     sf_runtime:sf_runtime.dll
 0002:000006c8       __imp_sfListenerReportEndingSection 000000018004b6c8     sf_runtime:sf_runtime.dll
 0002:000006d0       __imp_sf_init_ChartRunTimeInfo 000000018004b6d0     sf_runtime:sf_runtime.dll
 0002:000006d8       __imp_sf_mex_call          000000018004b6d8     sf_runtime:sf_runtime.dll
 0002:000006e0       __imp_sf_mex_error_message 000000018004b6e0     sf_runtime:sf_runtime.dll
 0002:000006e8       __imp_sf_mex_check_mcos_class 000000018004b6e8     sf_runtime:sf_runtime.dll
 0002:000006f0       __imp_sf_mex_create_class_instance 000000018004b6f0     sf_runtime:sf_runtime.dll
 0002:000006f8       __imp_sf_mex_set_all_properties 000000018004b6f8     sf_runtime:sf_runtime.dll
 0002:00000700       __imp_sf_mex_get_all_properties 000000018004b700     sf_runtime:sf_runtime.dll
 0002:00000708       __imp_sf_mex_convert_to_redirect_target 000000018004b708     sf_runtime:sf_runtime.dll
 0002:00000710       __imp_sf_mex_convert_to_redirect_source 000000018004b710     sf_runtime:sf_runtime.dll
 0002:00000718       __imp_sf_mex_create        000000018004b718     sf_runtime:sf_runtime.dll
 0002:00000720       __imp_sf_mex_createcellmatrix 000000018004b720     sf_runtime:sf_runtime.dll
 0002:00000728       __imp_sf_mex_setcell       000000018004b728     sf_runtime:sf_runtime.dll
 0002:00000730       __imp_sf_mex_getcell       000000018004b730     sf_runtime:sf_runtime.dll
 0002:00000738       __imp_sf_mex_assign        000000018004b738     sf_runtime:sf_runtime.dll
 0002:00000740       __imp_sf_mex_dup           000000018004b740     sf_runtime:sf_runtime.dll
 0002:00000748       __imp_sf_mex_destroy       000000018004b748     sf_runtime:sf_runtime.dll
 0002:00000750       __imp_sf_mex_import        000000018004b750     sf_runtime:sf_runtime.dll
 0002:00000758       __imp_sf_mex_import_vs     000000018004b758     sf_runtime:sf_runtime.dll
 0002:00000760       __imp_sf_mex_get_dimension 000000018004b760     sf_runtime:sf_runtime.dll
 0002:00000768       __imp_sf_mex_lw_sub_assign_size_check_1d 000000018004b768     sf_runtime:sf_runtime.dll
 0002:00000770       __imp_sf_mex_lw_sub_assign_size_check_nd 000000018004b770     sf_runtime:sf_runtime.dll
 0002:00000778       __imp_sf_mex_lw_non_negative_check 000000018004b778     sf_runtime:sf_runtime.dll
 0002:00000780       __imp_ssGetInputPortSignal_wrapper 000000018004b780     sf_runtime:sf_runtime.dll
 0002:00000788       __imp_sf_eml_array_bounds_check 000000018004b788     sf_runtime:sf_runtime.dll
 0002:00000790       __imp_sf_data_saturate_error 000000018004b790     sf_runtime:sf_runtime.dll
 0002:00000798       __imp_sf_get_ChartInfoStruct_CodeGen 000000018004b798     sf_runtime:sf_runtime.dll
 0002:000007a0       __imp_sf_get_hasSeparateUpdateOutputs 000000018004b7a0     sf_runtime:sf_runtime.dll
 0002:000007a8       __imp_callMdlMethodAndReportError 000000018004b7a8     sf_runtime:sf_runtime.dll
 0002:000007b0       __imp_call_sf_machine_global_method_dispatcher 000000018004b7b0     sf_runtime:sf_runtime.dll
 0002:000007b8       __imp_getRuntimeInstanceInfoAsVoid 000000018004b7b8     sf_runtime:sf_runtime.dll
 0002:000007c0       __imp_sf_mex_error_direct_call 000000018004b7c0     sf_runtime:sf_runtime.dll
 0002:000007c8       __imp_sfrtGetEmlrtCtx      000000018004b7c8     sf_runtime:sf_runtime.dll
 0002:000007d0       __imp_sf_clear_error_manager_info 000000018004b7d0     sf_runtime:sf_runtime.dll
 0002:000007d8       __imp_setDebuggerFlag      000000018004b7d8     sf_runtime:sf_runtime.dll
 0002:000007e0       \177sf_runtime_NULL_THUNK_DATA 000000018004b7e0     sf_runtime:sf_runtime.dll
 0002:000007e8       __guard_check_icall_fptr   000000018004b7e8     MSVCRT:guard_support.obj
 0002:000007f0       __guard_dispatch_icall_fptr 000000018004b7f0     MSVCRT:guard_support.obj
 0002:000007f8       __xc_a                     000000018004b7f8     MSVCRT:initializers.obj
 0002:00000850       __xc_z                     000000018004b850     MSVCRT:initializers.obj
 0002:00000858       __xi_a                     000000018004b858     MSVCRT:initializers.obj
 0002:00000860       __xi_z                     000000018004b860     MSVCRT:initializers.obj
 0002:00000868       __xp_a                     000000018004b868     MSVCRT:initializers.obj
 0002:00000870       __xp_z                     000000018004b870     MSVCRT:initializers.obj
 0002:00000878       __xt_a                     000000018004b878     MSVCRT:initializers.obj
 0002:00000880       __xt_z                     000000018004b880     MSVCRT:initializers.obj
 0002:00000890       __real@41b73216e0000000    000000018004b890     MotionObjectDetector_sfun.obj
 0002:00000898       __real@41be7945e7000000    000000018004b898     MotionObjectDetector_sfun.obj
 0002:000008a0       __real@41c9bbb95c800000    000000018004b8a0     MotionObjectDetector_sfun.obj
 0002:000008a8       __real@41cc4c84ba000000    000000018004b8a8     MotionObjectDetector_sfun.obj
 0002:000008b0       __real@41d01ca5e4000000    000000018004b8b0     MotionObjectDetector_sfun.obj
 0002:000008b8       __real@41d778cd59400000    000000018004b8b8     MotionObjectDetector_sfun.obj
 0002:000008c0       __real@41dbed9584800000    000000018004b8c0     MotionObjectDetector_sfun.obj
 0002:000008c8       __real@41e035b0b6400000    000000018004b8c8     MotionObjectDetector_sfun.obj
 0002:000008d0       __real@41e03f4e5de00000    000000018004b8d0     MotionObjectDetector_sfun.obj
 0002:000008d8       __real@41e35127f6200000    000000018004b8d8     MotionObjectDetector_sfun.obj
 0002:000008e0       __real@41eade64d8800000    000000018004b8e0     MotionObjectDetector_sfun.obj
 0002:000008e8       __real@41ec7a5d51800000    000000018004b8e8     MotionObjectDetector_sfun.obj
 0002:00000a88       __real@0000000000000000    000000018004ba88     c3_MotionObjectDetector.obj
 0002:00000a90       __real@34000000            000000018004ba90     c3_MotionObjectDetector.obj
 0002:00000a94       __real@358637bd            000000018004ba94     c3_MotionObjectDetector.obj
 0002:00000a98       __real@3d23d70a            000000018004ba98     c3_MotionObjectDetector.obj
 0002:00000a9c       __real@3f800000            000000018004ba9c     c3_MotionObjectDetector.obj
 0002:00000aa0       __real@3fe0000000000000    000000018004baa0     c3_MotionObjectDetector.obj
 0002:00000aa8       __real@3fe3333333333333    000000018004baa8     c3_MotionObjectDetector.obj
 0002:00000ab0       __real@3fe62e42fefa39ef    000000018004bab0     c3_MotionObjectDetector.obj
 0002:00000ab8       __real@3fe8000000000000    000000018004bab8     c3_MotionObjectDetector.obj
 0002:00000ac0       __real@3ff0000000000000    000000018004bac0     c3_MotionObjectDetector.obj
 0002:00000ac8       __real@3ff999999999999a    000000018004bac8     c3_MotionObjectDetector.obj
 0002:00000ad0       __real@4000000000000000    000000018004bad0     c3_MotionObjectDetector.obj
 0002:00000ad8       __real@40c90fdb            000000018004bad8     c3_MotionObjectDetector.obj
 0002:00000ae0       __real@40e8a3e000000000    000000018004bae0     c3_MotionObjectDetector.obj
 0002:00000ae8       __real@410e848000000000    000000018004bae8     c3_MotionObjectDetector.obj
 0002:00000af0       __real@41c5ab1d54000000    000000018004baf0     c3_MotionObjectDetector.obj
 0002:00000af8       __real@41d1da0cc1000000    000000018004baf8     c3_MotionObjectDetector.obj
 0002:00000b00       __real@41e98d6851600000    000000018004bb00     c3_MotionObjectDetector.obj
 0002:00000b08       __real@41ec014355600000    000000018004bb08     c3_MotionObjectDetector.obj
 0002:00000b10       __real@41f0000000000000    000000018004bb10     c3_MotionObjectDetector.obj
 0002:00000b18       __real@43000000            000000018004bb18     c3_MotionObjectDetector.obj
 0002:00000b20       __real@bff0000000000000    000000018004bb20     c3_MotionObjectDetector.obj
 0002:00000b28       __real@c3000000            000000018004bb28     c3_MotionObjectDetector.obj
 0002:00000b30       __xmm@80000000000000008000000000000000 000000018004bb30     c3_MotionObjectDetector.obj
 0002:00000b40       DYNAMIC_DIMENSION_DEF      000000018004bb40     MotionObjectDetector_sfun_registry.obj
 0002:00000b58       __real@4010000000000000    000000018004bb58     MotionObjectDetector_sfun_registry.obj
 0002:00000b60       __real@41602cbca0000000    000000018004bb60     MotionObjectDetector_sfun_registry.obj
 0002:00002810       ??_C@_00CNPNBAHC@?$AA@     000000018004d810     extractSurfCore.obj
 0002:00002820       ??_7PtrOwner@detail@cv@@6B@ 000000018004d820     extractSurfCore.obj
 0002:00002830       ??_C@_0GJ@EIELBOOI@C?3?2Program?5Files?2MATLAB?2R2019b?2t@ 000000018004d830     extractSurfCore.obj
 0002:000028a0       ??_C@_0N@DDCCIDDE@cv?3?3Mat?3?3Mat?$AA@ 000000018004d8a0     extractSurfCore.obj
 0002:000028b0       ??_C@_0BK@EDJAKFJH@total?$CI?$CJ?5?$DN?$DN?50?5?$HM?$HM?5data?5?$CB?$DN?50?$AA@ 000000018004d8b0     extractSurfCore.obj
 0002:000028d0       ??_C@_0CA@LBFJDOIG@Step?5must?5be?5a?5multiple?5of?5esz1?$AA@ 000000018004d8d0     extractSurfCore.obj
 0002:000028f0       ??_C@_0M@LLFGKPEG@?$FLempty_any?$FN?$AA@ 000000018004d8f0     extractSurfCore.obj
 0002:00002908       ??_7base_any_policy@anyimpl@cvflann@@6B@ 000000018004d908     extractSurfCore.obj
 0002:00002960       ??_7?$typed_base_any_policy@W4flann_centers_init_t@cvflann@@@anyimpl@cvflann@@6B@ 000000018004d960     extractSurfCore.obj
 0002:000029b8       ??_7?$big_any_policy@W4flann_centers_init_t@cvflann@@@anyimpl@cvflann@@6B@ 000000018004d9b8     extractSurfCore.obj
 0002:00002a10       ??_7?$typed_base_any_policy@W4flann_algorithm_t@cvflann@@@anyimpl@cvflann@@6B@ 000000018004da10     extractSurfCore.obj
 0002:00002a68       ??_7?$big_any_policy@W4flann_algorithm_t@cvflann@@@anyimpl@cvflann@@6B@ 000000018004da68     extractSurfCore.obj
 0002:00002ac0       ??_7?$typed_base_any_policy@VString@cv@@@anyimpl@cvflann@@6B@ 000000018004dac0     extractSurfCore.obj
 0002:00002b18       ??_7?$big_any_policy@VString@cv@@@anyimpl@cvflann@@6B@ 000000018004db18     extractSurfCore.obj
 0002:00002b68       ??_C@_0BD@OLBABOEK@vector?$DMT?$DO?5too?5long?$AA@ 000000018004db68     extractSurfCore.obj
 0002:00002b88       ??_7?$typed_base_any_policy@Uempty_any@anyimpl@cvflann@@@anyimpl@cvflann@@6B@ 000000018004db88     extractSurfCore.obj
 0002:00002be0       ??_7?$big_any_policy@Uempty_any@anyimpl@cvflann@@@anyimpl@cvflann@@6B@ 000000018004dbe0     extractSurfCore.obj
 0002:00002c38       ??_7?$typed_base_any_policy@PEBD@anyimpl@cvflann@@6B@ 000000018004dc38     extractSurfCore.obj
 0002:00002c90       ??_7?$small_any_policy@PEBD@anyimpl@cvflann@@6B@ 000000018004dc90     extractSurfCore.obj
 0002:00002ce8       ??_7?$PtrOwnerImpl@VMWSURF@cv@@U?$DefaultDeleter@VMWSURF@cv@@@2@@detail@cv@@6B@ 000000018004dce8     extractSurfCore.obj
 0002:00002d00       ??_7?$typed_base_any_policy@H@anyimpl@cvflann@@6B@ 000000018004dd00     extractSurfCore.obj
 0002:00002d58       ??_7?$small_any_policy@H@anyimpl@cvflann@@6B@ 000000018004dd58     extractSurfCore.obj
 0002:00002db0       ??_7?$typed_base_any_policy@M@anyimpl@cvflann@@6B@ 000000018004ddb0     extractSurfCore.obj
 0002:00002e08       ??_7?$small_any_policy@M@anyimpl@cvflann@@6B@ 000000018004de08     extractSurfCore.obj
 0002:00002e60       ??_7?$typed_base_any_policy@_N@anyimpl@cvflann@@6B@ 000000018004de60     extractSurfCore.obj
 0002:00002eb8       ??_7?$small_any_policy@_N@anyimpl@cvflann@@6B@ 000000018004deb8     extractSurfCore.obj
 0002:00002f10       ??_7?$typed_base_any_policy@I@anyimpl@cvflann@@6B@ 000000018004df10     extractSurfCore.obj
 0002:00002f68       ??_7?$small_any_policy@I@anyimpl@cvflann@@6B@ 000000018004df68     extractSurfCore.obj
 0002:00002fb8       __real@00000000            000000018004dfb8     extractSurfCore.obj
 0002:00002fbc       __real@3c8efa35            000000018004dfbc     extractSurfCore.obj
 0002:00002fc0       __real@3e088889            000000018004dfc0     extractSurfCore.obj
 0002:00006048       ??_7ParallelLoopBody@cv@@6B@ 0000000180051048     mwsurf.obj
 0002:00006060       ??_7Feature2D@cv@@6B01@@   0000000180051060     mwsurf.obj
 0002:000060a8       ??_7Feature2D@cv@@6BAlgorithm@1@@ 00000001800510a8     mwsurf.obj
 0002:000060e0       ??_8Feature2D@cv@@7B@      00000001800510e0     mwsurf.obj
 0002:000060f0       ??_7MWSURF@cv@@6BFeature2D@1@@ 00000001800510f0     mwsurf.obj
 0002:00006138       ??_7MWSURF@cv@@6BAlgorithm@1@@ 0000000180051138     mwsurf.obj
 0002:00006170       ??_8MWSURF@cv@@7B@         0000000180051170     mwsurf.obj
 0002:00006180       ??_7MWSURFBuildInvoker@cv@@6B@ 0000000180051180     mwsurf.obj
 0002:00006198       ??_7MWSURFFindInvoker@cv@@6B@ 0000000180051198     mwsurf.obj
 0002:000061b0       ??_7MWSURFInvoker@cv@@6B@  00000001800511b0     mwsurf.obj
 0002:000061c0       ??_C@_0EK@BFEMMECN@c?3?2program?5files?2matlab?2r2019b?2t@ 00000001800511c0     mwsurf.obj
 0002:00006210       ??_C@_0CB@LLEJHCBJ@cv?3?3MWSURFInvoker?3?3MWSURFInvoker@ 0000000180051210     mwsurf.obj
 0002:00006238       ??_C@_0BP@PPFGGEHI@nOriSamples?5?$DM?$DN?5nOriSampleBound?$AA@ 0000000180051238     mwsurf.obj
 0002:00006258       ??_C@_0BP@HLCNBEFL@cv?3?3MWSURFInvoker?3?3operator?5?$CI?$CJ?$AA@ 0000000180051258     mwsurf.obj
 0002:00006278       ??_C@_0CC@EEHLCAKH@winbuf?9?$DOcols?5?$DO?$DN?5win_size?$CKwin_siz@ 0000000180051278     mwsurf.obj
 0002:000062a8       ??_7?$PtrOwnerImpl@UCvMat@@U?$DefaultDeleter@UCvMat@@@cv@@@detail@cv@@6B@ 00000001800512a8     mwsurf.obj
 0002:000062b8       __real@3cb0000000000000    00000001800512b8     mwsurf.obj
 0002:000062c0       __real@3f000000            00000001800512c0     mwsurf.obj
 0002:000062c4       __real@3f4f5c29            00000001800512c4     mwsurf.obj
 0002:000062c8       __real@3f99999a            00000001800512c8     mwsurf.obj
 0002:000062cc       __real@40000000            00000001800512cc     mwsurf.obj
 0002:000062d0       __real@4004000000000000    00000001800512d0     mwsurf.obj
 0002:000062d8       __real@400a666660000000    00000001800512d8     mwsurf.obj
 0002:000062e0       __real@4059000000000000    00000001800512e0     mwsurf.obj
 0002:000062e8       __real@40800000            00000001800512e8     mwsurf.obj
 0002:000062ec       __real@41100000            00000001800512ec     mwsurf.obj
 0002:000062f0       __real@41a80000            00000001800512f0     mwsurf.obj
 0002:000062f4       __real@43870000            00000001800512f4     mwsurf.obj
 0002:000062f8       __real@bf000000            00000001800512f8     mwsurf.obj
 0002:000062fc       __real@bf800000            00000001800512fc     mwsurf.obj
 0002:00006300       __xmm@80000000800000008000000080000000 0000000180051300     mwsurf.obj
 0002:00007bd0       ??_7type_info@@6B@         0000000180052bd0     MSVCRT:std_type_info_static.obj
 0002:00007bd8       _pDefaultRawDllMain        0000000180052bd8     MSVCRT:dll_dllmain.obj
 0002:00007bd8       _pRawDllMain               0000000180052bd8     MSVCRT:dll_dllmain.obj
 0002:00007be8       ??_7exception@std@@6B@     0000000180052be8     MSVCRT:throw_bad_alloc.obj
 0002:00007bf8       ??_C@_0BC@EOODALEL@Unknown?5exception?$AA@ 0000000180052bf8     MSVCRT:throw_bad_alloc.obj
 0002:00007c18       ??_7bad_alloc@std@@6B@     0000000180052c18     MSVCRT:throw_bad_alloc.obj
 0002:00007c28       ??_C@_0P@GHFPNOJB@bad?5allocation?$AA@ 0000000180052c28     MSVCRT:throw_bad_alloc.obj
 0002:00007c40       ??_7bad_array_new_length@std@@6B@ 0000000180052c40     MSVCRT:throw_bad_alloc.obj
 0002:00007c50       ??_C@_0BF@KINCDENJ@bad?5array?5new?5length?$AA@ 0000000180052c50     MSVCRT:throw_bad_alloc.obj
 0002:00007c90       _load_config_used          0000000180052c90     MSVCRT:loadcfg.obj
 0002:00007d30       ??_R4PtrOwner@detail@cv@@6B@ 0000000180052d30     extractSurfCore.obj
 0002:00007d58       ??_R3PtrOwner@detail@cv@@8 0000000180052d58     extractSurfCore.obj
 0002:00007d70       ??_R2PtrOwner@detail@cv@@8 0000000180052d70     extractSurfCore.obj
 0002:00007d80       ??_R1A@?0A@EA@PtrOwner@detail@cv@@8 0000000180052d80     extractSurfCore.obj
 0002:00007da8       ??_R4base_any_policy@anyimpl@cvflann@@6B@ 0000000180052da8     extractSurfCore.obj
 0002:00007dd0       ??_R3base_any_policy@anyimpl@cvflann@@8 0000000180052dd0     extractSurfCore.obj
 0002:00007de8       ??_R2base_any_policy@anyimpl@cvflann@@8 0000000180052de8     extractSurfCore.obj
 0002:00007df8       ??_R1A@?0A@EA@base_any_policy@anyimpl@cvflann@@8 0000000180052df8     extractSurfCore.obj
 0002:00007e20       ??_R4?$big_any_policy@W4flann_centers_init_t@cvflann@@@anyimpl@cvflann@@6B@ 0000000180052e20     extractSurfCore.obj
 0002:00007e48       ??_R3?$big_any_policy@W4flann_centers_init_t@cvflann@@@anyimpl@cvflann@@8 0000000180052e48     extractSurfCore.obj
 0002:00007e60       ??_R2?$big_any_policy@W4flann_centers_init_t@cvflann@@@anyimpl@cvflann@@8 0000000180052e60     extractSurfCore.obj
 0002:00007e80       ??_R1A@?0A@EA@?$big_any_policy@W4flann_centers_init_t@cvflann@@@anyimpl@cvflann@@8 0000000180052e80     extractSurfCore.obj
 0002:00007ea8       ??_R1A@?0A@EA@?$typed_base_any_policy@W4flann_centers_init_t@cvflann@@@anyimpl@cvflann@@8 0000000180052ea8     extractSurfCore.obj
 0002:00007ed0       ??_R3?$typed_base_any_policy@W4flann_centers_init_t@cvflann@@@anyimpl@cvflann@@8 0000000180052ed0     extractSurfCore.obj
 0002:00007ee8       ??_R2?$typed_base_any_policy@W4flann_centers_init_t@cvflann@@@anyimpl@cvflann@@8 0000000180052ee8     extractSurfCore.obj
 0002:00007f00       ??_R4?$typed_base_any_policy@W4flann_centers_init_t@cvflann@@@anyimpl@cvflann@@6B@ 0000000180052f00     extractSurfCore.obj
 0002:00007f28       ??_R4?$big_any_policy@W4flann_algorithm_t@cvflann@@@anyimpl@cvflann@@6B@ 0000000180052f28     extractSurfCore.obj
 0002:00007f50       ??_R3?$big_any_policy@W4flann_algorithm_t@cvflann@@@anyimpl@cvflann@@8 0000000180052f50     extractSurfCore.obj
 0002:00007f68       ??_R2?$big_any_policy@W4flann_algorithm_t@cvflann@@@anyimpl@cvflann@@8 0000000180052f68     extractSurfCore.obj
 0002:00007f88       ??_R1A@?0A@EA@?$big_any_policy@W4flann_algorithm_t@cvflann@@@anyimpl@cvflann@@8 0000000180052f88     extractSurfCore.obj
 0002:00007fb0       ??_R1A@?0A@EA@?$typed_base_any_policy@W4flann_algorithm_t@cvflann@@@anyimpl@cvflann@@8 0000000180052fb0     extractSurfCore.obj
 0002:00007fd8       ??_R3?$typed_base_any_policy@W4flann_algorithm_t@cvflann@@@anyimpl@cvflann@@8 0000000180052fd8     extractSurfCore.obj
 0002:00007ff0       ??_R2?$typed_base_any_policy@W4flann_algorithm_t@cvflann@@@anyimpl@cvflann@@8 0000000180052ff0     extractSurfCore.obj
 0002:00008008       ??_R4?$typed_base_any_policy@W4flann_algorithm_t@cvflann@@@anyimpl@cvflann@@6B@ 0000000180053008     extractSurfCore.obj
 0002:00008030       ??_R4?$big_any_policy@VString@cv@@@anyimpl@cvflann@@6B@ 0000000180053030     extractSurfCore.obj
 0002:00008058       ??_R3?$big_any_policy@VString@cv@@@anyimpl@cvflann@@8 0000000180053058     extractSurfCore.obj
 0002:00008070       ??_R2?$big_any_policy@VString@cv@@@anyimpl@cvflann@@8 0000000180053070     extractSurfCore.obj
 0002:00008090       ??_R1A@?0A@EA@?$big_any_policy@VString@cv@@@anyimpl@cvflann@@8 0000000180053090     extractSurfCore.obj
 0002:000080b8       ??_R1A@?0A@EA@?$typed_base_any_policy@VString@cv@@@anyimpl@cvflann@@8 00000001800530b8     extractSurfCore.obj
 0002:000080e0       ??_R3?$typed_base_any_policy@VString@cv@@@anyimpl@cvflann@@8 00000001800530e0     extractSurfCore.obj
 0002:000080f8       ??_R2?$typed_base_any_policy@VString@cv@@@anyimpl@cvflann@@8 00000001800530f8     extractSurfCore.obj
 0002:00008110       ??_R4?$typed_base_any_policy@VString@cv@@@anyimpl@cvflann@@6B@ 0000000180053110     extractSurfCore.obj
 0002:00008138       ??_R4?$small_any_policy@H@anyimpl@cvflann@@6B@ 0000000180053138     extractSurfCore.obj
 0002:00008160       ??_R3?$small_any_policy@H@anyimpl@cvflann@@8 0000000180053160     extractSurfCore.obj
 0002:00008178       ??_R2?$small_any_policy@H@anyimpl@cvflann@@8 0000000180053178     extractSurfCore.obj
 0002:00008198       ??_R1A@?0A@EA@?$small_any_policy@H@anyimpl@cvflann@@8 0000000180053198     extractSurfCore.obj
 0002:000081c0       ??_R1A@?0A@EA@?$typed_base_any_policy@H@anyimpl@cvflann@@8 00000001800531c0     extractSurfCore.obj
 0002:000081e8       ??_R3?$typed_base_any_policy@H@anyimpl@cvflann@@8 00000001800531e8     extractSurfCore.obj
 0002:00008200       ??_R2?$typed_base_any_policy@H@anyimpl@cvflann@@8 0000000180053200     extractSurfCore.obj
 0002:00008218       ??_R4?$small_any_policy@I@anyimpl@cvflann@@6B@ 0000000180053218     extractSurfCore.obj
 0002:00008240       ??_R3?$small_any_policy@I@anyimpl@cvflann@@8 0000000180053240     extractSurfCore.obj
 0002:00008258       ??_R2?$small_any_policy@I@anyimpl@cvflann@@8 0000000180053258     extractSurfCore.obj
 0002:00008278       ??_R1A@?0A@EA@?$small_any_policy@I@anyimpl@cvflann@@8 0000000180053278     extractSurfCore.obj
 0002:000082a0       ??_R1A@?0A@EA@?$typed_base_any_policy@I@anyimpl@cvflann@@8 00000001800532a0     extractSurfCore.obj
 0002:000082c8       ??_R3?$typed_base_any_policy@I@anyimpl@cvflann@@8 00000001800532c8     extractSurfCore.obj
 0002:000082e0       ??_R2?$typed_base_any_policy@I@anyimpl@cvflann@@8 00000001800532e0     extractSurfCore.obj
 0002:000082f8       ??_R4?$small_any_policy@M@anyimpl@cvflann@@6B@ 00000001800532f8     extractSurfCore.obj
 0002:00008320       ??_R3?$small_any_policy@M@anyimpl@cvflann@@8 0000000180053320     extractSurfCore.obj
 0002:00008338       ??_R2?$small_any_policy@M@anyimpl@cvflann@@8 0000000180053338     extractSurfCore.obj
 0002:00008358       ??_R1A@?0A@EA@?$small_any_policy@M@anyimpl@cvflann@@8 0000000180053358     extractSurfCore.obj
 0002:00008380       ??_R1A@?0A@EA@?$typed_base_any_policy@M@anyimpl@cvflann@@8 0000000180053380     extractSurfCore.obj
 0002:000083a8       ??_R3?$typed_base_any_policy@M@anyimpl@cvflann@@8 00000001800533a8     extractSurfCore.obj
 0002:000083c0       ??_R2?$typed_base_any_policy@M@anyimpl@cvflann@@8 00000001800533c0     extractSurfCore.obj
 0002:000083d8       ??_R4?$small_any_policy@_N@anyimpl@cvflann@@6B@ 00000001800533d8     extractSurfCore.obj
 0002:00008400       ??_R3?$small_any_policy@_N@anyimpl@cvflann@@8 0000000180053400     extractSurfCore.obj
 0002:00008418       ??_R2?$small_any_policy@_N@anyimpl@cvflann@@8 0000000180053418     extractSurfCore.obj
 0002:00008438       ??_R1A@?0A@EA@?$small_any_policy@_N@anyimpl@cvflann@@8 0000000180053438     extractSurfCore.obj
 0002:00008460       ??_R1A@?0A@EA@?$typed_base_any_policy@_N@anyimpl@cvflann@@8 0000000180053460     extractSurfCore.obj
 0002:00008488       ??_R3?$typed_base_any_policy@_N@anyimpl@cvflann@@8 0000000180053488     extractSurfCore.obj
 0002:000084a0       ??_R2?$typed_base_any_policy@_N@anyimpl@cvflann@@8 00000001800534a0     extractSurfCore.obj
 0002:000084b8       ??_R4?$big_any_policy@Uempty_any@anyimpl@cvflann@@@anyimpl@cvflann@@6B@ 00000001800534b8     extractSurfCore.obj
 0002:000084e0       ??_R3?$big_any_policy@Uempty_any@anyimpl@cvflann@@@anyimpl@cvflann@@8 00000001800534e0     extractSurfCore.obj
 0002:000084f8       ??_R2?$big_any_policy@Uempty_any@anyimpl@cvflann@@@anyimpl@cvflann@@8 00000001800534f8     extractSurfCore.obj
 0002:00008518       ??_R1A@?0A@EA@?$big_any_policy@Uempty_any@anyimpl@cvflann@@@anyimpl@cvflann@@8 0000000180053518     extractSurfCore.obj
 0002:00008540       ??_R1A@?0A@EA@?$typed_base_any_policy@Uempty_any@anyimpl@cvflann@@@anyimpl@cvflann@@8 0000000180053540     extractSurfCore.obj
 0002:00008568       ??_R3?$typed_base_any_policy@Uempty_any@anyimpl@cvflann@@@anyimpl@cvflann@@8 0000000180053568     extractSurfCore.obj
 0002:00008580       ??_R2?$typed_base_any_policy@Uempty_any@anyimpl@cvflann@@@anyimpl@cvflann@@8 0000000180053580     extractSurfCore.obj
 0002:00008598       ??_R4?$typed_base_any_policy@Uempty_any@anyimpl@cvflann@@@anyimpl@cvflann@@6B@ 0000000180053598     extractSurfCore.obj
 0002:000085c0       ??_R4?$small_any_policy@PEBD@anyimpl@cvflann@@6B@ 00000001800535c0     extractSurfCore.obj
 0002:000085e8       ??_R3?$small_any_policy@PEBD@anyimpl@cvflann@@8 00000001800535e8     extractSurfCore.obj
 0002:00008600       ??_R2?$small_any_policy@PEBD@anyimpl@cvflann@@8 0000000180053600     extractSurfCore.obj
 0002:00008620       ??_R1A@?0A@EA@?$small_any_policy@PEBD@anyimpl@cvflann@@8 0000000180053620     extractSurfCore.obj
 0002:00008648       ??_R1A@?0A@EA@?$typed_base_any_policy@PEBD@anyimpl@cvflann@@8 0000000180053648     extractSurfCore.obj
 0002:00008670       ??_R3?$typed_base_any_policy@PEBD@anyimpl@cvflann@@8 0000000180053670     extractSurfCore.obj
 0002:00008688       ??_R2?$typed_base_any_policy@PEBD@anyimpl@cvflann@@8 0000000180053688     extractSurfCore.obj
 0002:000086a0       ??_R4?$typed_base_any_policy@PEBD@anyimpl@cvflann@@6B@ 00000001800536a0     extractSurfCore.obj
 0002:000086c8       ??_R4?$PtrOwnerImpl@VMWSURF@cv@@U?$DefaultDeleter@VMWSURF@cv@@@2@@detail@cv@@6B@ 00000001800536c8     extractSurfCore.obj
 0002:000086f0       ??_R3?$PtrOwnerImpl@VMWSURF@cv@@U?$DefaultDeleter@VMWSURF@cv@@@2@@detail@cv@@8 00000001800536f0     extractSurfCore.obj
 0002:00008708       ??_R2?$PtrOwnerImpl@VMWSURF@cv@@U?$DefaultDeleter@VMWSURF@cv@@@2@@detail@cv@@8 0000000180053708     extractSurfCore.obj
 0002:00008720       ??_R1A@?0A@EA@?$PtrOwnerImpl@VMWSURF@cv@@U?$DefaultDeleter@VMWSURF@cv@@@2@@detail@cv@@8 0000000180053720     extractSurfCore.obj
 0002:00008748       ??_R4?$typed_base_any_policy@H@anyimpl@cvflann@@6B@ 0000000180053748     extractSurfCore.obj
 0002:00008770       ??_R4?$typed_base_any_policy@M@anyimpl@cvflann@@6B@ 0000000180053770     extractSurfCore.obj
 0002:00008798       ??_R4?$typed_base_any_policy@_N@anyimpl@cvflann@@6B@ 0000000180053798     extractSurfCore.obj
 0002:000087c0       ??_R4?$typed_base_any_policy@I@anyimpl@cvflann@@6B@ 00000001800537c0     extractSurfCore.obj
 0002:000087e8       ??_R4ParallelLoopBody@cv@@6B@ 00000001800537e8     mwsurf.obj
 0002:00008810       ??_R3ParallelLoopBody@cv@@8 0000000180053810     mwsurf.obj
 0002:00008828       ??_R2ParallelLoopBody@cv@@8 0000000180053828     mwsurf.obj
 0002:00008838       ??_R1A@?0A@EA@ParallelLoopBody@cv@@8 0000000180053838     mwsurf.obj
 0002:00008860       ??_R4Feature2D@cv@@6B01@@  0000000180053860     mwsurf.obj
 0002:00008888       ??_R3Feature2D@cv@@8       0000000180053888     mwsurf.obj
 0002:000088a0       ??_R2Feature2D@cv@@8       00000001800538a0     mwsurf.obj
 0002:000088b8       ??_R1A@?0A@EA@Feature2D@cv@@8 00000001800538b8     mwsurf.obj
 0002:000088e0       ??_R1A@73FA@Algorithm@cv@@8 00000001800538e0     mwsurf.obj
 0002:00008908       ??_R3Algorithm@cv@@8       0000000180053908     mwsurf.obj
 0002:00008920       ??_R2Algorithm@cv@@8       0000000180053920     mwsurf.obj
 0002:00008930       ??_R1A@?0A@EA@Algorithm@cv@@8 0000000180053930     mwsurf.obj
 0002:00008958       ??_R4Feature2D@cv@@6BAlgorithm@1@@ 0000000180053958     mwsurf.obj
 0002:00008980       ??_R4MWSURF@cv@@6BFeature2D@1@@ 0000000180053980     mwsurf.obj
 0002:000089a8       ??_R3MWSURF@cv@@8          00000001800539a8     mwsurf.obj
 0002:000089c0       ??_R2MWSURF@cv@@8          00000001800539c0     mwsurf.obj
 0002:000089e0       ??_R1A@?0A@EA@MWSURF@cv@@8 00000001800539e0     mwsurf.obj
 0002:00008a08       ??_R4MWSURF@cv@@6BAlgorithm@1@@ 0000000180053a08     mwsurf.obj
 0002:00008a30       ??_R4MWSURFBuildInvoker@cv@@6B@ 0000000180053a30     mwsurf.obj
 0002:00008a58       ??_R3MWSURFBuildInvoker@cv@@8 0000000180053a58     mwsurf.obj
 0002:00008a70       ??_R2MWSURFBuildInvoker@cv@@8 0000000180053a70     mwsurf.obj
 0002:00008a88       ??_R1A@?0A@EA@MWSURFBuildInvoker@cv@@8 0000000180053a88     mwsurf.obj
 0002:00008ab0       ??_R4MWSURFFindInvoker@cv@@6B@ 0000000180053ab0     mwsurf.obj
 0002:00008ad8       ??_R3MWSURFFindInvoker@cv@@8 0000000180053ad8     mwsurf.obj
 0002:00008af0       ??_R2MWSURFFindInvoker@cv@@8 0000000180053af0     mwsurf.obj
 0002:00008b08       ??_R1A@?0A@EA@MWSURFFindInvoker@cv@@8 0000000180053b08     mwsurf.obj
 0002:00008b30       ??_R4MWSURFInvoker@cv@@6B@ 0000000180053b30     mwsurf.obj
 0002:00008b58       ??_R3MWSURFInvoker@cv@@8   0000000180053b58     mwsurf.obj
 0002:00008b70       ??_R2MWSURFInvoker@cv@@8   0000000180053b70     mwsurf.obj
 0002:00008b88       ??_R1A@?0A@EA@MWSURFInvoker@cv@@8 0000000180053b88     mwsurf.obj
 0002:00008bb0       ??_R4?$PtrOwnerImpl@UCvMat@@U?$DefaultDeleter@UCvMat@@@cv@@@detail@cv@@6B@ 0000000180053bb0     mwsurf.obj
 0002:00008bd8       ??_R3?$PtrOwnerImpl@UCvMat@@U?$DefaultDeleter@UCvMat@@@cv@@@detail@cv@@8 0000000180053bd8     mwsurf.obj
 0002:00008bf0       ??_R2?$PtrOwnerImpl@UCvMat@@U?$DefaultDeleter@UCvMat@@@cv@@@detail@cv@@8 0000000180053bf0     mwsurf.obj
 0002:00008c08       ??_R1A@?0A@EA@?$PtrOwnerImpl@UCvMat@@U?$DefaultDeleter@UCvMat@@@cv@@@detail@cv@@8 0000000180053c08     mwsurf.obj
 0002:00008c30       ??_R4type_info@@6B@        0000000180053c30     MSVCRT:std_type_info_static.obj
 0002:00008c58       ??_R3type_info@@8          0000000180053c58     MSVCRT:std_type_info_static.obj
 0002:00008c70       ??_R2type_info@@8          0000000180053c70     MSVCRT:std_type_info_static.obj
 0002:00008c80       ??_R1A@?0A@EA@type_info@@8 0000000180053c80     MSVCRT:std_type_info_static.obj
 0002:00008ca8       ??_R4exception@std@@6B@    0000000180053ca8     MSVCRT:throw_bad_alloc.obj
 0002:00008cd0       ??_R3exception@std@@8      0000000180053cd0     MSVCRT:throw_bad_alloc.obj
 0002:00008ce8       ??_R2exception@std@@8      0000000180053ce8     MSVCRT:throw_bad_alloc.obj
 0002:00008cf8       ??_R1A@?0A@EA@exception@std@@8 0000000180053cf8     MSVCRT:throw_bad_alloc.obj
 0002:00008d20       ??_R4bad_alloc@std@@6B@    0000000180053d20     MSVCRT:throw_bad_alloc.obj
 0002:00008d48       ??_R3bad_alloc@std@@8      0000000180053d48     MSVCRT:throw_bad_alloc.obj
 0002:00008d60       ??_R2bad_alloc@std@@8      0000000180053d60     MSVCRT:throw_bad_alloc.obj
 0002:00008d78       ??_R1A@?0A@EA@bad_alloc@std@@8 0000000180053d78     MSVCRT:throw_bad_alloc.obj
 0002:00008da0       ??_R4bad_array_new_length@std@@6B@ 0000000180053da0     MSVCRT:throw_bad_alloc.obj
 0002:00008dc8       ??_R3bad_array_new_length@std@@8 0000000180053dc8     MSVCRT:throw_bad_alloc.obj
 0002:00008de0       ??_R2bad_array_new_length@std@@8 0000000180053de0     MSVCRT:throw_bad_alloc.obj
 0002:00008e00       ??_R1A@?0A@EA@bad_array_new_length@std@@8 0000000180053e00     MSVCRT:throw_bad_alloc.obj
 0002:000090b0       __rtc_iaa                  00000001800540b0     MSVCRT:_initsect_.obj
 0002:000090b8       __rtc_izz                  00000001800540b8     MSVCRT:_initsect_.obj
 0002:000090c0       __rtc_taa                  00000001800540c0     MSVCRT:_initsect_.obj
 0002:000090c8       __rtc_tzz                  00000001800540c8     MSVCRT:_initsect_.obj
 0002:0000c590       _TI2?AVbad_alloc@std@@     0000000180057590     MSVCRT:throw_bad_alloc.obj
 0002:0000c5b0       _CTA2?AVbad_alloc@std@@    00000001800575b0     MSVCRT:throw_bad_alloc.obj
 0002:0000c5c8       _CT??_R0?AVbad_alloc@std@@@8??0bad_alloc@std@@QEAA@AEBV01@@Z24 00000001800575c8     MSVCRT:throw_bad_alloc.obj
 0002:0000c5f0       _CT??_R0?AVexception@std@@@8??0exception@std@@QEAA@AEBV01@@Z24 00000001800575f0     MSVCRT:throw_bad_alloc.obj
 0002:0000c618       _TI3?AVbad_array_new_length@std@@ 0000000180057618     MSVCRT:throw_bad_alloc.obj
 0002:0000c638       _CTA3?AVbad_array_new_length@std@@ 0000000180057638     MSVCRT:throw_bad_alloc.obj
 0002:0000c658       _CT??_R0?AVbad_array_new_length@std@@@8??0bad_array_new_length@std@@QEAA@AEBV01@@Z24 0000000180057658     MSVCRT:throw_bad_alloc.obj
 0002:0000c87c       __IMPORT_DESCRIPTOR_libmwrgb2gray_tbb 000000018005787c     libmwrgb2gray_tbb:libmwrgb2gray_tbb.dll
 0002:0000c890       __IMPORT_DESCRIPTOR_libmwComputeMetric 0000000180057890     libmwComputeMetric:libmwComputeMetric.dll
 0002:0000c8a4       __IMPORT_DESCRIPTOR_opencv_core340 00000001800578a4     opencv_core340:opencv_core340.dll
 0002:0000c8b8       __IMPORT_DESCRIPTOR_opencv_imgproc340 00000001800578b8     opencv_imgproc340:opencv_imgproc340.dll
 0002:0000c8cc       __IMPORT_DESCRIPTOR_opencv_features2d340 00000001800578cc     opencv_features2d340:opencv_features2d340.dll
 0002:0000c8e0       __IMPORT_DESCRIPTOR_sf_runtime 00000001800578e0     sf_runtime:sf_runtime.dll
 0002:0000c8f4       __IMPORT_DESCRIPTOR_libmx  00000001800578f4     libmx:libmx.dll
 0002:0000c908       __IMPORT_DESCRIPTOR_libmex 0000000180057908     libmex:libmex.dll
 0002:0000c91c       __IMPORT_DESCRIPTOR_libut  000000018005791c     libut:libut.dll
 0002:0000c930       __IMPORT_DESCRIPTOR_libmwmathutil 0000000180057930     libmwmathutil:libmwmathutil.dll
 0002:0000c944       __IMPORT_DESCRIPTOR_libemlrt 0000000180057944     libemlrt:libemlrt.dll
 0002:0000c958       __IMPORT_DESCRIPTOR_libcovrt 0000000180057958     libcovrt:libcovrt.dll
 0002:0000c96c       __IMPORT_DESCRIPTOR_MSVCP140 000000018005796c     msvcprt:MSVCP140.dll
 0002:0000c980       __IMPORT_DESCRIPTOR_KERNEL32 0000000180057980     kernel32:KERNEL32.dll
 0002:0000c994       __IMPORT_DESCRIPTOR_VCRUNTIME140 0000000180057994     vcruntime:VCRUNTIME140.dll
 0002:0000c9a8       __IMPORT_DESCRIPTOR_api-ms-win-crt-string-l1-1-0 00000001800579a8     ucrt:api-ms-win-crt-string-l1-1-0.dll
 0002:0000c9bc       __IMPORT_DESCRIPTOR_api-ms-win-crt-math-l1-1-0 00000001800579bc     ucrt:api-ms-win-crt-math-l1-1-0.dll
 0002:0000c9d0       __IMPORT_DESCRIPTOR_api-ms-win-crt-stdio-l1-1-0 00000001800579d0     ucrt:api-ms-win-crt-stdio-l1-1-0.dll
 0002:0000c9e4       __IMPORT_DESCRIPTOR_api-ms-win-crt-heap-l1-1-0 00000001800579e4     ucrt:api-ms-win-crt-heap-l1-1-0.dll
 0002:0000c9f8       __IMPORT_DESCRIPTOR_api-ms-win-crt-runtime-l1-1-0 00000001800579f8     ucrt:api-ms-win-crt-runtime-l1-1-0.dll
 0002:0000ca0c       __IMPORT_DESCRIPTOR_api-ms-win-crt-utility-l1-1-0 0000000180057a0c     ucrt:api-ms-win-crt-utility-l1-1-0.dll
 0002:0000ca20       __NULL_IMPORT_DESCRIPTOR   0000000180057a20     libmwrgb2gray_tbb:libmwrgb2gray_tbb.dll
 0003:00008538       DYNAMIC_DIMENSION          0000000180063538     MotionObjectDetector_sfun_registry.obj
 0003:00009eb0       __security_cookie_complement 0000000180064eb0     MSVCRT:gs_cookie.obj
 0003:00009eb8       __security_cookie          0000000180064eb8     MSVCRT:gs_cookie.obj
 0003:00009ec0       _fltused                   0000000180064ec0     MSVCRT:fltused.obj
 0003:00009ed0       __scrt_native_dllmain_reason 0000000180064ed0     MSVCRT:utility.obj
 0003:00009ed8       __memcpy_nt_iters          0000000180064ed8     MSVCRT:_cpu_disp_.obj
 0003:00009ee0       __isa_available            0000000180064ee0     MSVCRT:_cpu_disp_.obj
 0003:00009ee4       __isa_enabled              0000000180064ee4     MSVCRT:_cpu_disp_.obj
 0003:00009ef0       __scrt_ucrt_dll_is_in_use  0000000180064ef0     MSVCRT:ucrt_stubs.obj
 0003:00009f00       ??_R0?AUempty_any@anyimpl@cvflann@@@8 0000000180064f00     extractSurfCore.obj
 0003:00009f30       ??_R0?AVString@cv@@@8      0000000180064f30     extractSurfCore.obj
 0003:00009f50       ??_R0?AW4flann_algorithm_t@cvflann@@@8 0000000180064f50     extractSurfCore.obj
 0003:00009f88       ??_R0?AW4flann_centers_init_t@cvflann@@@8 0000000180064f88     extractSurfCore.obj
 0003:00009fc0       ??_R0PEBD@8                0000000180064fc0     extractSurfCore.obj
 0003:00009fd8       ??_R0I@8                   0000000180064fd8     extractSurfCore.obj
 0003:00009ff0       ??_R0_N@8                  0000000180064ff0     extractSurfCore.obj
 0003:0000a008       ??_R0M@8                   0000000180065008     extractSurfCore.obj
 0003:0000a020       ??_R0H@8                   0000000180065020     extractSurfCore.obj
 0003:0000a038       ??_R0?AUPtrOwner@detail@cv@@@8 0000000180065038     extractSurfCore.obj
 0003:0000a068       ??_R0?AUbase_any_policy@anyimpl@cvflann@@@8 0000000180065068     extractSurfCore.obj
 0003:0000a0a0       ??_R0?AU?$big_any_policy@W4flann_centers_init_t@cvflann@@@anyimpl@cvflann@@@8 00000001800650a0     extractSurfCore.obj
 0003:0000a100       ??_R0?AU?$typed_base_any_policy@W4flann_centers_init_t@cvflann@@@anyimpl@cvflann@@@8 0000000180065100     extractSurfCore.obj
 0003:0000a160       ??_R0?AU?$big_any_policy@W4flann_algorithm_t@cvflann@@@anyimpl@cvflann@@@8 0000000180065160     extractSurfCore.obj
 0003:0000a1c0       ??_R0?AU?$typed_base_any_policy@W4flann_algorithm_t@cvflann@@@anyimpl@cvflann@@@8 00000001800651c0     extractSurfCore.obj
 0003:0000a220       ??_R0?AU?$big_any_policy@VString@cv@@@anyimpl@cvflann@@@8 0000000180065220     extractSurfCore.obj
 0003:0000a270       ??_R0?AU?$typed_base_any_policy@VString@cv@@@anyimpl@cvflann@@@8 0000000180065270     extractSurfCore.obj
 0003:0000a2c0       ??_R0?AU?$small_any_policy@H@anyimpl@cvflann@@@8 00000001800652c0     extractSurfCore.obj
 0003:0000a300       ??_R0?AU?$typed_base_any_policy@H@anyimpl@cvflann@@@8 0000000180065300     extractSurfCore.obj
 0003:0000a340       ??_R0?AU?$small_any_policy@I@anyimpl@cvflann@@@8 0000000180065340     extractSurfCore.obj
 0003:0000a380       ??_R0?AU?$typed_base_any_policy@I@anyimpl@cvflann@@@8 0000000180065380     extractSurfCore.obj
 0003:0000a3c0       ??_R0?AU?$small_any_policy@M@anyimpl@cvflann@@@8 00000001800653c0     extractSurfCore.obj
 0003:0000a400       ??_R0?AU?$typed_base_any_policy@M@anyimpl@cvflann@@@8 0000000180065400     extractSurfCore.obj
 0003:0000a440       ??_R0?AU?$small_any_policy@_N@anyimpl@cvflann@@@8 0000000180065440     extractSurfCore.obj
 0003:0000a480       ??_R0?AU?$typed_base_any_policy@_N@anyimpl@cvflann@@@8 0000000180065480     extractSurfCore.obj
 0003:0000a4d0       ??_R0?AU?$big_any_policy@Uempty_any@anyimpl@cvflann@@@anyimpl@cvflann@@@8 00000001800654d0     extractSurfCore.obj
 0003:0000a530       ??_R0?AU?$typed_base_any_policy@Uempty_any@anyimpl@cvflann@@@anyimpl@cvflann@@@8 0000000180065530     extractSurfCore.obj
 0003:0000a590       ??_R0?AU?$small_any_policy@PEBD@anyimpl@cvflann@@@8 0000000180065590     extractSurfCore.obj
 0003:0000a5d0       ??_R0?AU?$typed_base_any_policy@PEBD@anyimpl@cvflann@@@8 00000001800655d0     extractSurfCore.obj
 0003:0000a620       ??_R0?AU?$PtrOwnerImpl@VMWSURF@cv@@U?$DefaultDeleter@VMWSURF@cv@@@2@@detail@cv@@@8 0000000180065620     extractSurfCore.obj
 0003:0000a680       ??_R0?AVParallelLoopBody@cv@@@8 0000000180065680     mwsurf.obj
 0003:0000a6b0       ??_R0?AVFeature2D@cv@@@8   00000001800656b0     mwsurf.obj
 0003:0000a6d8       ??_R0?AVAlgorithm@cv@@@8   00000001800656d8     mwsurf.obj
 0003:0000a700       ??_R0?AVMWSURF@cv@@@8      0000000180065700     mwsurf.obj
 0003:0000a720       ??_R0?AUMWSURFBuildInvoker@cv@@@8 0000000180065720     mwsurf.obj
 0003:0000a750       ??_R0?AUMWSURFFindInvoker@cv@@@8 0000000180065750     mwsurf.obj
 0003:0000a780       ??_R0?AUMWSURFInvoker@cv@@@8 0000000180065780     mwsurf.obj
 0003:0000a7b0       ??_R0?AU?$PtrOwnerImpl@UCvMat@@U?$DefaultDeleter@UCvMat@@@cv@@@detail@cv@@@8 00000001800657b0     mwsurf.obj
 0003:0000a808       ??_R0?AVtype_info@@@8      0000000180065808     MSVCRT:std_type_info_static.obj
 0003:0000a828       ??_R0?AVbad_alloc@std@@@8  0000000180065828     MSVCRT:throw_bad_alloc.obj
 0003:0000a850       ??_R0?AVexception@std@@@8  0000000180065850     MSVCRT:throw_bad_alloc.obj
 0003:0000a878       ??_R0?AVbad_array_new_length@std@@@8 0000000180065878     MSVCRT:throw_bad_alloc.obj
 0003:0000af40       ?policy@?$SinglePolicy@Uempty_any@anyimpl@cvflann@@@anyimpl@cvflann@@0U?$big_any_policy@Uempty_any@anyimpl@cvflann@@@23@A 0000000180065f40     extractSurfCore.obj
 0003:0000af48       ?policy@?$SinglePolicy@PEBD@anyimpl@cvflann@@0U?$small_any_policy@PEBD@23@A 0000000180065f48     extractSurfCore.obj
 0003:0000af50       ?policy@?$SinglePolicy@H@anyimpl@cvflann@@0U?$small_any_policy@H@23@A 0000000180065f50     extractSurfCore.obj
 0003:0000af58       ?policy@?$SinglePolicy@M@anyimpl@cvflann@@0U?$small_any_policy@M@23@A 0000000180065f58     extractSurfCore.obj
 0003:0000af60       ?policy@?$SinglePolicy@_N@anyimpl@cvflann@@0U?$small_any_policy@_N@23@A 0000000180065f60     extractSurfCore.obj
 0003:0000af68       ?policy@?$SinglePolicy@W4flann_algorithm_t@cvflann@@@anyimpl@cvflann@@0U?$big_any_policy@W4flann_algorithm_t@cvflann@@@23@A 0000000180065f68     extractSurfCore.obj
 0003:0000af70       ?policy@?$SinglePolicy@W4flann_centers_init_t@cvflann@@@anyimpl@cvflann@@0U?$big_any_policy@W4flann_centers_init_t@cvflann@@@23@A 0000000180065f70     extractSurfCore.obj
 0003:0000af78       ?policy@?$SinglePolicy@I@anyimpl@cvflann@@0U?$small_any_policy@I@23@A 0000000180065f78     extractSurfCore.obj
 0003:0000af80       ?policy@?$SinglePolicy@VString@cv@@@anyimpl@cvflann@@0U?$big_any_policy@VString@cv@@@23@A 0000000180065f80     extractSurfCore.obj
 0003:0000af88       ?findMaximaInLayer_m@MWSURFFindInvoker@cv@@2VMutex@2@A 0000000180065f88     mwsurf.obj
 0003:0000b500       __scrt_current_native_startup_state 0000000180066500     MSVCRT:utility.obj
 0003:0000b508       __scrt_native_startup_lock 0000000180066508     MSVCRT:utility.obj
 0003:0000b548       __favor                    0000000180066548     MSVCRT:_cpu_disp_.obj
 0003:0000b54c       __scrt_debugger_hook_flag  000000018006654c     MSVCRT:utility_desktop.obj
 0003:0000b550       ?__type_info_root_node@@3U__type_info_node@@A 0000000180066550     MSVCRT:tncleanup.obj
 0003:0000b560       ?_OptionsStorage@?1??__local_stdio_printf_options@@9@4_KA 0000000180066560     MSVCRT:default_local_stdio_options.obj
 0003:0000b568       ?_OptionsStorage@?1??__local_stdio_scanf_options@@9@4_KA 0000000180066568     MSVCRT:default_local_stdio_options.obj
 0003:0000b570       ?_OptionsStorage@?1??__local_stdio_printf_options@@9@9 0000000180066570     <common>
 0003:0000b578       __dyn_tls_init_callback    0000000180066578     <common>

 entry point at        0001:00047bd4

 Static symbols

 0000:00000000       .debug$S                   0000000180000000     msvcprt:MSVCP140.dll
 0000:00000000       .debug$S                   0000000180000000     MotionObjectDetector_sfun.exp
 0000:00000000       .debug$S                   0000000180000000     ucrt:api-ms-win-crt-heap-l1-1-0.dll
 0000:00000000       .debug$S                   0000000180000000     ucrt:api-ms-win-crt-heap-l1-1-0.dll
 0000:00000000       .debug$S                   0000000180000000     ucrt:api-ms-win-crt-heap-l1-1-0.dll
 0000:00000000       .debug$S                   0000000180000000     ucrt:api-ms-win-crt-math-l1-1-0.dll
 0000:00000000       .debug$S                   0000000180000000     ucrt:api-ms-win-crt-math-l1-1-0.dll
 0000:00000000       .debug$S                   0000000180000000     ucrt:api-ms-win-crt-math-l1-1-0.dll
 0000:00000000       .debug$S                   0000000180000000     ucrt:api-ms-win-crt-math-l1-1-0.dll
 0000:00000000       .debug$S                   0000000180000000     ucrt:api-ms-win-crt-math-l1-1-0.dll
 0000:00000000       .debug$S                   0000000180000000     ucrt:api-ms-win-crt-runtime-l1-1-0.dll
 0000:00000000       .debug$S                   0000000180000000     ucrt:api-ms-win-crt-runtime-l1-1-0.dll
 0000:00000000       .debug$S                   0000000180000000     ucrt:api-ms-win-crt-runtime-l1-1-0.dll
 0000:00000000       .debug$S                   0000000180000000     ucrt:api-ms-win-crt-runtime-l1-1-0.dll
 0000:00000000       .debug$S                   0000000180000000     ucrt:api-ms-win-crt-runtime-l1-1-0.dll
 0000:00000000       .debug$S                   0000000180000000     ucrt:api-ms-win-crt-runtime-l1-1-0.dll
 0000:00000000       .debug$S                   0000000180000000     ucrt:api-ms-win-crt-runtime-l1-1-0.dll
 0000:00000000       .debug$S                   0000000180000000     ucrt:api-ms-win-crt-runtime-l1-1-0.dll
 0004:fff99000       $pdata$??$_Emplace_back_with_unused_capacity@AEBVKeyPoint@cv@@@?$vector@VKeyPoint@cv@@V?$allocator@VKeyPoint@cv@@@std@@@std@@AEAAXAEBVKeyPoint@cv@@@Z 0000000180000000     mwsurf.obj
 0002:fffb5000       $unwind$??$construct@VKeyPoint@cv@@AEBV12@@?$_Wrap_alloc@V?$allocator@VKeyPoint@cv@@@std@@@std@@QEAAXPEAVKeyPoint@cv@@AEBV23@@Z 0000000180000000     mwsurf.obj
 0004:fff99000       $pdata$??$construct@VKeyPoint@cv@@AEBV12@@?$_Wrap_alloc@V?$allocator@VKeyPoint@cv@@@std@@@std@@QEAAXPEAVKeyPoint@cv@@AEBV23@@Z 0000000180000000     mwsurf.obj
 0002:fffb5000       $unwind$??$destroy@VKeyPoint@cv@@@?$_Wrap_alloc@V?$allocator@VKeyPoint@cv@@@std@@@std@@QEAAXPEAVKeyPoint@cv@@@Z 0000000180000000     mwsurf.obj
 0004:fff99000       $pdata$??$destroy@VKeyPoint@cv@@@?$_Wrap_alloc@V?$allocator@VKeyPoint@cv@@@std@@@std@@QEAAXPEAVKeyPoint@cv@@@Z 0000000180000000     mwsurf.obj
 0002:fffb5000       $unwind$??$_Uninitialized_copy@PEAVKeyPoint@cv@@PEAV12@V?$allocator@VKeyPoint@cv@@@std@@@std@@YAPEAVKeyPoint@cv@@PEAV12@00AEAU?$_Wrap_alloc@V?$allocator@VKeyPoint@cv@@@std@@@0@@Z 0000000180000000     mwsurf.obj
 0004:fff99000       $pdata$??$_Uninitialized_copy@PEAVKeyPoint@cv@@PEAV12@V?$allocator@VKeyPoint@cv@@@std@@@std@@YAPEAVKeyPoint@cv@@PEAV12@00AEAU?$_Wrap_alloc@V?$allocator@VKeyPoint@cv@@@std@@@0@@Z 0000000180000000     mwsurf.obj
 0002:fffb5000       $unwind$??$construct@VKeyPoint@cv@@AEBV12@@?$allocator_traits@V?$allocator@VKeyPoint@cv@@@std@@@std@@SAXAEAV?$allocator@VKeyPoint@cv@@@1@PEAVKeyPoint@cv@@AEBV34@@Z 0000000180000000     mwsurf.obj
 0004:fff99000       $pdata$??$construct@VKeyPoint@cv@@AEBV12@@?$allocator_traits@V?$allocator@VKeyPoint@cv@@@std@@@std@@SAXAEAV?$allocator@VKeyPoint@cv@@@1@PEAVKeyPoint@cv@@AEBV34@@Z 0000000180000000     mwsurf.obj
 0002:fffb5000       $unwind$??$destroy@VKeyPoint@cv@@@?$allocator_traits@V?$allocator@VKeyPoint@cv@@@std@@@std@@SAXAEAV?$allocator@VKeyPoint@cv@@@1@PEAVKeyPoint@cv@@@Z 0000000180000000     mwsurf.obj
 0004:fff99000       $pdata$??$destroy@VKeyPoint@cv@@@?$allocator_traits@V?$allocator@VKeyPoint@cv@@@std@@@std@@SAXAEAV?$allocator@VKeyPoint@cv@@@1@PEAVKeyPoint@cv@@@Z 0000000180000000     mwsurf.obj
 0002:fffb5000       $unwind$??$_Ptr_copy_cat@VKeyPoint@cv@@V12@@std@@YA?AU_General_ptr_iterator_tag@0@AEBQEAVKeyPoint@cv@@0@Z 0000000180000000     mwsurf.obj
 0004:fff99000       $pdata$??$_Destroy_range@V?$allocator@VKeyPoint@cv@@@std@@PEAVKeyPoint@cv@@@std@@YAXPEAVKeyPoint@cv@@0AEAU?$_Wrap_alloc@V?$allocator@VKeyPoint@cv@@@std@@@0@@Z 0000000180000000     mwsurf.obj
 0002:fffb5000       $unwind$??$_Destroy_range@V?$allocator@VKeyPoint@cv@@@std@@PEAVKeyPoint@cv@@@std@@YAXPEAVKeyPoint@cv@@0AEAU?$_Wrap_alloc@V?$allocator@VKeyPoint@cv@@@std@@@0@@Z 0000000180000000     mwsurf.obj
 0004:fff99000       $pdata$??$_Ptr_copy_cat@VKeyPoint@cv@@V12@@std@@YA?AU_General_ptr_iterator_tag@0@AEBQEAVKeyPoint@cv@@0@Z 0000000180000000     mwsurf.obj
 0002:fffb5000       $unwind$??$_Uninitialized_copy_al_unchecked@PEAVKeyPoint@cv@@PEAV12@V?$allocator@VKeyPoint@cv@@@std@@@std@@YAPEAVKeyPoint@cv@@PEAV12@00AEAU?$_Wrap_alloc@V?$allocator@VKeyPoint@cv@@@std@@@0@U_General_ptr_iterator_tag@0@U_Any_tag@0@@Z 0000000180000000     mwsurf.obj
 0004:fff99000       $pdata$??$_Uninitialized_copy_al_unchecked@PEAVKeyPoint@cv@@PEAV12@V?$allocator@VKeyPoint@cv@@@std@@@std@@YAPEAVKeyPoint@cv@@PEAV12@00AEAU?$_Wrap_alloc@V?$allocator@VKeyPoint@cv@@@std@@@0@U_General_ptr_iterator_tag@0@U_Any_tag@0@@Z 0000000180000000     mwsurf.obj
 0002:fffb5000       $cppxdata$??$_Uninitialized_copy_al_unchecked@PEAVKeyPoint@cv@@PEAV12@V?$allocator@VKeyPoint@cv@@@std@@@std@@YAPEAVKeyPoint@cv@@PEAV12@00AEAU?$_Wrap_alloc@V?$allocator@VKeyPoint@cv@@@std@@@0@U_General_ptr_iterator_tag@0@U_Any_tag@0@@Z 0000000180000000     mwsurf.obj
 0002:fffb5000       $stateUnwindMap$??$_Uninitialized_copy_al_unchecked@PEAVKeyPoint@cv@@PEAV12@V?$allocator@VKeyPoint@cv@@@std@@@std@@YAPEAVKeyPoint@cv@@PEAV12@00AEAU?$_Wrap_alloc@V?$allocator@VKeyPoint@cv@@@std@@@0@U_General_ptr_iterator_tag@0@U_Any_tag@0@@Z 0000000180000000     mwsurf.obj
 0002:fffb5000       $tryMap$??$_Uninitialized_copy_al_unchecked@PEAVKeyPoint@cv@@PEAV12@V?$allocator@VKeyPoint@cv@@@std@@@std@@YAPEAVKeyPoint@cv@@PEAV12@00AEAU?$_Wrap_alloc@V?$allocator@VKeyPoint@cv@@@std@@@0@U_General_ptr_iterator_tag@0@U_Any_tag@0@@Z 0000000180000000     mwsurf.obj
 0002:fffb5000       $handlerMap$0$??$_Uninitialized_copy_al_unchecked@PEAVKeyPoint@cv@@PEAV12@V?$allocator@VKeyPoint@cv@@@std@@@std@@YAPEAVKeyPoint@cv@@PEAV12@00AEAU?$_Wrap_alloc@V?$allocator@VKeyPoint@cv@@@std@@@0@U_General_ptr_iterator_tag@0@U_Any_tag@0@@Z 0000000180000000     mwsurf.obj
 0002:fffb5000       $ip2state$??$_Uninitialized_copy_al_unchecked@PEAVKeyPoint@cv@@PEAV12@V?$allocator@VKeyPoint@cv@@@std@@@std@@YAPEAVKeyPoint@cv@@PEAV12@00AEAU?$_Wrap_alloc@V?$allocator@VKeyPoint@cv@@@std@@@0@U_General_ptr_iterator_tag@0@U_Any_tag@0@@Z 0000000180000000     mwsurf.obj
 0002:fffb5000       $unwind$?catch$0@?0???$_Uninitialized_copy_al_unchecked@PEAVKeyPoint@cv@@PEAV12@V?$allocator@VKeyPoint@cv@@@std@@@std@@YAPEAVKeyPoint@cv@@PEAV12@00AEAU?$_Wrap_alloc@V?$allocator@VKeyPoint@cv@@@std@@@0@U_General_ptr_iterator_tag@0@U_Any_tag@0@@Z@4HA 0000000180000000     mwsurf.obj
 0004:fff99000       $pdata$?catch$0@?0???$_Uninitialized_copy_al_unchecked@PEAVKeyPoint@cv@@PEAV12@V?$allocator@VKeyPoint@cv@@@std@@@std@@YAPEAVKeyPoint@cv@@PEAV12@00AEAU?$_Wrap_alloc@V?$allocator@VKeyPoint@cv@@@std@@@0@U_General_ptr_iterator_tag@0@U_Any_tag@0@@Z@4HA 0000000180000000     mwsurf.obj
 0002:fffb5000       $unwind$??$construct@VKeyPoint@cv@@AEBV12@@?$allocator@VKeyPoint@cv@@@std@@QEAAXPEAVKeyPoint@cv@@AEBV23@@Z 0000000180000000     mwsurf.obj
 0004:fff99000       $pdata$??$construct@VKeyPoint@cv@@AEBV12@@?$allocator@VKeyPoint@cv@@@std@@QEAAXPEAVKeyPoint@cv@@AEBV23@@Z 0000000180000000     mwsurf.obj
 0004:fff99000       $pdata$?catch$0@?0???$emplace_back@AEBVKeyPoint@cv@@@?$vector@VKeyPoint@cv@@V?$allocator@VKeyPoint@cv@@@std@@@std@@QEAAXAEBVKeyPoint@cv@@@Z@4HA 0000000180000000     mwsurf.obj
 0002:fffb5000       $unwind$?catch$0@?0???$emplace_back@AEBVKeyPoint@cv@@@?$vector@VKeyPoint@cv@@V?$allocator@VKeyPoint@cv@@@std@@@std@@QEAAXAEBVKeyPoint@cv@@@Z@4HA 0000000180000000     mwsurf.obj
 0002:fffb5000       $ip2state$??$emplace_back@AEBVKeyPoint@cv@@@?$vector@VKeyPoint@cv@@V?$allocator@VKeyPoint@cv@@@std@@@std@@QEAAXAEBVKeyPoint@cv@@@Z 0000000180000000     mwsurf.obj
 0002:fffb5000       $handlerMap$0$??$emplace_back@AEBVKeyPoint@cv@@@?$vector@VKeyPoint@cv@@V?$allocator@VKeyPoint@cv@@@std@@@std@@QEAAXAEBVKeyPoint@cv@@@Z 0000000180000000     mwsurf.obj
 0002:fffb5000       $tryMap$??$emplace_back@AEBVKeyPoint@cv@@@?$vector@VKeyPoint@cv@@V?$allocator@VKeyPoint@cv@@@std@@@std@@QEAAXAEBVKeyPoint@cv@@@Z 0000000180000000     mwsurf.obj
 0002:fffb5000       $stateUnwindMap$??$emplace_back@AEBVKeyPoint@cv@@@?$vector@VKeyPoint@cv@@V?$allocator@VKeyPoint@cv@@@std@@@std@@QEAAXAEBVKeyPoint@cv@@@Z 0000000180000000     mwsurf.obj
 0002:fffb5000       $cppxdata$??$emplace_back@AEBVKeyPoint@cv@@@?$vector@VKeyPoint@cv@@V?$allocator@VKeyPoint@cv@@@std@@@std@@QEAAXAEBVKeyPoint@cv@@@Z 0000000180000000     mwsurf.obj
 0004:fff99000       $pdata$??$emplace_back@AEBVKeyPoint@cv@@@?$vector@VKeyPoint@cv@@V?$allocator@VKeyPoint@cv@@@std@@@std@@QEAAXAEBVKeyPoint@cv@@@Z 0000000180000000     mwsurf.obj
 0002:fffb5000       $unwind$??$emplace_back@AEBVKeyPoint@cv@@@?$vector@VKeyPoint@cv@@V?$allocator@VKeyPoint@cv@@@std@@@std@@QEAAXAEBVKeyPoint@cv@@@Z 0000000180000000     mwsurf.obj
 0002:fffb5000       $cppxdata$??$construct@VKeyPoint@cv@@AEBV12@@?$allocator@VKeyPoint@cv@@@std@@QEAAXPEAVKeyPoint@cv@@AEBV23@@Z 0000000180000000     mwsurf.obj
 0002:fffb5000       $stateUnwindMap$??$construct@VKeyPoint@cv@@AEBV12@@?$allocator@VKeyPoint@cv@@@std@@QEAAXPEAVKeyPoint@cv@@AEBV23@@Z 0000000180000000     mwsurf.obj
 0002:fffb5000       $ip2state$??$construct@VKeyPoint@cv@@AEBV12@@?$allocator@VKeyPoint@cv@@@std@@QEAAXPEAVKeyPoint@cv@@AEBV23@@Z 0000000180000000     mwsurf.obj
 0002:fffb5000       $unwind$?dtor$0@?0???$construct@VKeyPoint@cv@@AEBV12@@?$allocator@VKeyPoint@cv@@@std@@QEAAXPEAVKeyPoint@cv@@AEBV23@@Z@4HA 0000000180000000     mwsurf.obj
 0004:fff99000       $pdata$?dtor$0@?0???$construct@VKeyPoint@cv@@AEBV12@@?$allocator@VKeyPoint@cv@@@std@@QEAAXPEAVKeyPoint@cv@@AEBV23@@Z@4HA 0000000180000000     mwsurf.obj
 0002:fffb5000       $unwind$??$construct@VKeyPoint@cv@@AEAV12@@?$_Wrap_alloc@V?$allocator@VKeyPoint@cv@@@std@@@std@@QEAAXPEAVKeyPoint@cv@@AEAV23@@Z 0000000180000000     mwsurf.obj
 0004:fff99000       $pdata$??$construct@VKeyPoint@cv@@AEAV12@@?$_Wrap_alloc@V?$allocator@VKeyPoint@cv@@@std@@@std@@QEAAXPEAVKeyPoint@cv@@AEAV23@@Z 0000000180000000     mwsurf.obj
 0002:fffb5000       $unwind$??$construct@VKeyPoint@cv@@AEAV12@@?$allocator_traits@V?$allocator@VKeyPoint@cv@@@std@@@std@@SAXAEAV?$allocator@VKeyPoint@cv@@@1@PEAVKeyPoint@cv@@AEAV34@@Z 0000000180000000     mwsurf.obj
 0004:fff99000       $pdata$??$construct@VKeyPoint@cv@@AEAV12@@?$allocator_traits@V?$allocator@VKeyPoint@cv@@@std@@@std@@SAXAEAV?$allocator@VKeyPoint@cv@@@1@PEAVKeyPoint@cv@@AEAV34@@Z 0000000180000000     mwsurf.obj
 0002:fffb5000       $unwind$??$construct@VKeyPoint@cv@@AEAV12@@?$allocator@VKeyPoint@cv@@@std@@QEAAXPEAVKeyPoint@cv@@AEAV23@@Z 0000000180000000     mwsurf.obj
 0004:fff99000       $pdata$??$construct@VKeyPoint@cv@@AEAV12@@?$allocator@VKeyPoint@cv@@@std@@QEAAXPEAVKeyPoint@cv@@AEAV23@@Z 0000000180000000     mwsurf.obj
 0002:fffb5000       $cppxdata$??$construct@VKeyPoint@cv@@AEAV12@@?$allocator@VKeyPoint@cv@@@std@@QEAAXPEAVKeyPoint@cv@@AEAV23@@Z 0000000180000000     mwsurf.obj
 0002:fffb5000       $stateUnwindMap$??$construct@VKeyPoint@cv@@AEAV12@@?$allocator@VKeyPoint@cv@@@std@@QEAAXPEAVKeyPoint@cv@@AEAV23@@Z 0000000180000000     mwsurf.obj
 0002:fffb5000       $ip2state$??$construct@VKeyPoint@cv@@AEAV12@@?$allocator@VKeyPoint@cv@@@std@@QEAAXPEAVKeyPoint@cv@@AEAV23@@Z 0000000180000000     mwsurf.obj
 0002:fffb5000       $unwind$?dtor$0@?0???$construct@VKeyPoint@cv@@AEAV12@@?$allocator@VKeyPoint@cv@@@std@@QEAAXPEAVKeyPoint@cv@@AEAV23@@Z@4HA 0000000180000000     mwsurf.obj
 0004:fff99000       $pdata$?dtor$0@?0???$construct@VKeyPoint@cv@@AEAV12@@?$allocator@VKeyPoint@cv@@@std@@QEAAXPEAVKeyPoint@cv@@AEAV23@@Z@4HA 0000000180000000     mwsurf.obj
 0001:fffff000       ?dtor$0@?0???$?6U?$char_traits@D@std@@@std@@YAAEAV?$basic_ostream@DU?$char_traits@D@std@@@0@AEAV10@PEBD@Z@4HA 0000000180000000 f   cgCommon.obj
 0001:fffff000       ?dtor$0@?0???0sentry@?$basic_ostream@DU?$char_traits@D@std@@@std@@QEAA@AEAV12@@Z@4HA 0000000180000000 f   cgCommon.obj
 0001:fffff000       ?dtor$0@?0??clone@?$big_any_policy@VString@cv@@@anyimpl@cvflann@@UEAAXPEBQEAXPEAPEAX@Z@4HA 0000000180000000 f   cgCommon.obj
 0001:fffff000       ?dtor$0@?0??copy_from_value@?$big_any_policy@VString@cv@@@anyimpl@cvflann@@UEAAXPEBXPEAPEAX@Z@4HA 0000000180000000 f   cgCommon.obj
 0002:fffb5000       $unwind$?length@?$char_traits@D@std@@SA_KQEBD@Z 0000000180000000     cgCommon.obj
 0004:fff99000       $pdata$?length@?$char_traits@D@std@@SA_KQEBD@Z 0000000180000000     cgCommon.obj
 0002:fffb5000       $cppxdata$?length@?$char_traits@D@std@@SA_KQEBD@Z 0000000180000000     cgCommon.obj
 0002:fffb5000       $ip2state$?length@?$char_traits@D@std@@SA_KQEBD@Z 0000000180000000     cgCommon.obj
 0002:fffb5000       $unwind$?eq_int_type@?$char_traits@D@std@@SA_NAEBH0@Z 0000000180000000     cgCommon.obj
 0004:fff99000       $pdata$?eq_int_type@?$char_traits@D@std@@SA_NAEBH0@Z 0000000180000000     cgCommon.obj
 0002:fffb5000       $unwind$??1String@cv@@QEAA@XZ 0000000180000000     cgCommon.obj
 0004:fff99000       $pdata$??1String@cv@@QEAA@XZ 0000000180000000     cgCommon.obj
 0002:fffb5000       $cppxdata$??1String@cv@@QEAA@XZ 0000000180000000     cgCommon.obj
 0002:fffb5000       $ip2state$??1String@cv@@QEAA@XZ 0000000180000000     cgCommon.obj
 0002:fffb5000       $unwind$??4String@cv@@QEAAAEAV01@AEBV01@@Z 0000000180000000     cgCommon.obj
 0004:fff99000       $pdata$??4String@cv@@QEAAAEAV01@AEBV01@@Z 0000000180000000     cgCommon.obj
 0002:fffb5000       $unwind$?c_str@String@cv@@QEBAPEBDXZ 0000000180000000     cgCommon.obj
 0004:fff99000       $pdata$?c_str@String@cv@@QEBAPEBDXZ 0000000180000000     cgCommon.obj
 0002:fffb5000       $unwind$??_GString@cv@@QEAAPEAXI@Z 0000000180000000     cgCommon.obj
 0004:fff99000       $pdata$??_GString@cv@@QEAAPEAXI@Z 0000000180000000     cgCommon.obj
 0000:00000000       .debug$S                   0000000180000000     libmwrgb2gray_tbb:libmwrgb2gray_tbb.dll
 0002:fffb5000       $unwind$??$?6U?$char_traits@D@std@@@std@@YAAEAV?$basic_ostream@DU?$char_traits@D@std@@@0@AEAV10@PEBD@Z 0000000180000000     cgCommon.obj
 0000:00000000       .debug$S                   0000000180000000     libmwComputeMetric:libmwComputeMetric.dll
 0004:fff99000       $pdata$??$?6U?$char_traits@D@std@@@std@@YAAEAV?$basic_ostream@DU?$char_traits@D@std@@@0@AEAV10@PEBD@Z 0000000180000000     cgCommon.obj
 0000:00000000       .debug$S                   0000000180000000     opencv_core340:opencv_core340.dll
 0002:fffb5000       $cppxdata$??$?6U?$char_traits@D@std@@@std@@YAAEAV?$basic_ostream@DU?$char_traits@D@std@@@0@AEAV10@PEBD@Z 0000000180000000     cgCommon.obj
 0000:00000000       .debug$S                   0000000180000000     opencv_core340:opencv_core340.dll
 0002:fffb5000       $stateUnwindMap$??$?6U?$char_traits@D@std@@@std@@YAAEAV?$basic_ostream@DU?$char_traits@D@std@@@0@AEAV10@PEBD@Z 0000000180000000     cgCommon.obj
 0001:fffff000       ?dtor$0@?0???$?0VMWSURF@cv@@@?$Ptr@VMWSURF@cv@@@cv@@QEAA@PEAVMWSURF@1@@Z@4HA 0000000180000000 f   fastHessianDetectorCore.obj
 0001:fffff000       ?dtor$0@?0???$?6U?$char_traits@D@std@@@std@@YAAEAV?$basic_ostream@DU?$char_traits@D@std@@@0@AEAV10@PEBD@Z@4HA 0000000180000000 f   fastHessianDetectorCore.obj
 0001:fffff000       ?dtor$0@?0???$makePtr@VMWSURF@cv@@@cv@@YA?AU?$Ptr@VMWSURF@cv@@@0@XZ@4HA 0000000180000000 f   fastHessianDetectorCore.obj
 0001:fffff000       ?dtor$0@?0???0Mat@cv@@QEAA@HHHPEAX_K@Z@4HA 0000000180000000 f   fastHessianDetectorCore.obj
 0001:fffff000       ?dtor$0@?0???0sentry@?$basic_ostream@DU?$char_traits@D@std@@@std@@QEAA@AEAV12@@Z@4HA 0000000180000000 f   fastHessianDetectorCore.obj
 0001:fffff000       ?dtor$0@?0??clone@?$big_any_policy@VString@cv@@@anyimpl@cvflann@@UEAAXPEBQEAXPEAPEAX@Z@4HA 0000000180000000 f   fastHessianDetectorCore.obj
 0000:00000000       .debug$S                   0000000180000000     opencv_core340:opencv_core340.dll
 0001:fffff000       ?dtor$0@?0??copy_from_value@?$big_any_policy@VString@cv@@@anyimpl@cvflann@@UEAAXPEBXPEAPEAX@Z@4HA 0000000180000000 f   fastHessianDetectorCore.obj
 0002:fffb5000       $tryMap$??$?6U?$char_traits@D@std@@@std@@YAAEAV?$basic_ostream@DU?$char_traits@D@std@@@0@AEAV10@PEBD@Z 0000000180000000     cgCommon.obj
 0000:00000000       .debug$S                   0000000180000000     opencv_core340:opencv_core340.dll
 0002:fffb5000       $handlerMap$0$??$?6U?$char_traits@D@std@@@std@@YAAEAV?$basic_ostream@DU?$char_traits@D@std@@@0@AEAV10@PEBD@Z 0000000180000000     cgCommon.obj
 0000:00000000       .debug$S                   0000000180000000     opencv_core340:opencv_core340.dll
 0002:fffb5000       $ip2state$??$?6U?$char_traits@D@std@@@std@@YAAEAV?$basic_ostream@DU?$char_traits@D@std@@@0@AEAV10@PEBD@Z 0000000180000000     cgCommon.obj
 0000:00000000       .debug$S                   0000000180000000     opencv_core340:opencv_core340.dll
 0002:fffb5000       $unwind$?length@?$char_traits@D@std@@SA_KQEBD@Z 0000000180000000     fastHessianDetectorCore.obj
 0004:fff99000       $pdata$?length@?$char_traits@D@std@@SA_KQEBD@Z 0000000180000000     fastHessianDetectorCore.obj
 0002:fffb5000       $cppxdata$?length@?$char_traits@D@std@@SA_KQEBD@Z 0000000180000000     fastHessianDetectorCore.obj
 0002:fffb5000       $ip2state$?length@?$char_traits@D@std@@SA_KQEBD@Z 0000000180000000     fastHessianDetectorCore.obj
 0002:fffb5000       $unwind$?eq_int_type@?$char_traits@D@std@@SA_NAEBH0@Z 0000000180000000     fastHessianDetectorCore.obj
 0004:fff99000       $pdata$?eq_int_type@?$char_traits@D@std@@SA_NAEBH0@Z 0000000180000000     fastHessianDetectorCore.obj
 0002:fffb5000       $unwind$?_Deallocate@std@@YAXPEAX_K1@Z 0000000180000000     fastHessianDetectorCore.obj
 0004:fff99000       $pdata$?_Deallocate@std@@YAXPEAX_K1@Z 0000000180000000     fastHessianDetectorCore.obj
 0002:fffb5000       $unwind$??0String@cv@@QEAA@PEBD@Z 0000000180000000     fastHessianDetectorCore.obj
 0004:fff99000       $pdata$??0String@cv@@QEAA@PEBD@Z 0000000180000000     fastHessianDetectorCore.obj
 0002:fffb5000       $unwind$??1String@cv@@QEAA@XZ 0000000180000000     fastHessianDetectorCore.obj
 0004:fff99000       $pdata$??1String@cv@@QEAA@XZ 0000000180000000     fastHessianDetectorCore.obj
 0002:fffb5000       $cppxdata$??1String@cv@@QEAA@XZ 0000000180000000     fastHessianDetectorCore.obj
 0002:fffb5000       $ip2state$??1String@cv@@QEAA@XZ 0000000180000000     fastHessianDetectorCore.obj
 0002:fffb5000       $unwind$??4String@cv@@QEAAAEAV01@AEBV01@@Z 0000000180000000     fastHessianDetectorCore.obj
 0004:fff99000       $pdata$??4String@cv@@QEAAAEAV01@AEBV01@@Z 0000000180000000     fastHessianDetectorCore.obj
 0002:fffb5000       $unwind$?c_str@String@cv@@QEBAPEBDXZ 0000000180000000     fastHessianDetectorCore.obj
 0004:fff99000       $pdata$?c_str@String@cv@@QEBAPEBDXZ 0000000180000000     fastHessianDetectorCore.obj
 0002:fffb5000       $unwind$??_GString@cv@@QEAAPEAXI@Z 0000000180000000     fastHessianDetectorCore.obj
 0004:fff99000       $pdata$??_GString@cv@@QEAAPEAXI@Z 0000000180000000     fastHessianDetectorCore.obj
 0002:fffb5000       $unwind$?decRef@PtrOwner@detail@cv@@QEAAXXZ 0000000180000000     fastHessianDetectorCore.obj
 0004:fff99000       $pdata$?decRef@PtrOwner@detail@cv@@QEAAXXZ 0000000180000000     fastHessianDetectorCore.obj
 0002:fffb5000       $unwind$??_GPtrOwner@detail@cv@@MEAAPEAXI@Z 0000000180000000     fastHessianDetectorCore.obj
 0004:fff99000       $pdata$??_GPtrOwner@detail@cv@@MEAAPEAXI@Z 0000000180000000     fastHessianDetectorCore.obj
 0002:fffb5000       $unwind$??0Mat@cv@@QEAA@XZ 0000000180000000     fastHessianDetectorCore.obj
 0004:fff99000       $pdata$??0Mat@cv@@QEAA@XZ  0000000180000000     fastHessianDetectorCore.obj
 0002:fffb5000       $unwind$??0Mat@cv@@QEAA@HHHPEAX_K@Z 0000000180000000     fastHessianDetectorCore.obj
 0004:fff99000       $pdata$??0Mat@cv@@QEAA@HHHPEAX_K@Z 0000000180000000     fastHessianDetectorCore.obj
 0002:fffb5000       $cppxdata$??0Mat@cv@@QEAA@HHHPEAX_K@Z 0000000180000000     fastHessianDetectorCore.obj
 0002:fffb5000       $stateUnwindMap$??0Mat@cv@@QEAA@HHHPEAX_K@Z 0000000180000000     fastHessianDetectorCore.obj
 0002:fffb5000       $ip2state$??0Mat@cv@@QEAA@HHHPEAX_K@Z 0000000180000000     fastHessianDetectorCore.obj
 0002:fffb5000       $unwind$?dtor$0@?0???0Mat@cv@@QEAA@HHHPEAX_K@Z@4HA 0000000180000000     fastHessianDetectorCore.obj
 0004:fff99000       $pdata$?dtor$0@?0???0Mat@cv@@QEAA@HHHPEAX_K@Z@4HA 0000000180000000     fastHessianDetectorCore.obj
 0002:fffb5000       $unwind$?dtor$1@?0???0Mat@cv@@QEAA@HHHPEAX_K@Z@4HA 0000000180000000     fastHessianDetectorCore.obj
 0004:fff99000       $pdata$?dtor$1@?0???0Mat@cv@@QEAA@HHHPEAX_K@Z@4HA 0000000180000000     fastHessianDetectorCore.obj
 0002:fffb5000       $unwind$??1Mat@cv@@QEAA@XZ 0000000180000000     fastHessianDetectorCore.obj
 0004:fff99000       $pdata$??1Mat@cv@@QEAA@XZ  0000000180000000     fastHessianDetectorCore.obj
 0002:fffb5000       $cppxdata$??1Mat@cv@@QEAA@XZ 0000000180000000     fastHessianDetectorCore.obj
 0002:fffb5000       $ip2state$??1Mat@cv@@QEAA@XZ 0000000180000000     fastHessianDetectorCore.obj
 0002:fffb5000       $unwind$?release@Mat@cv@@QEAAXXZ 0000000180000000     fastHessianDetectorCore.obj
 0004:fff99000       $pdata$?release@Mat@cv@@QEAAXXZ 0000000180000000     fastHessianDetectorCore.obj
 0002:fffb5000       $unwind$?total@Mat@cv@@QEBA_KXZ 0000000180000000     fastHessianDetectorCore.obj
 0004:fff99000       $pdata$?total@Mat@cv@@QEBA_KXZ 0000000180000000     fastHessianDetectorCore.obj
 0002:fffb5000       $unwind$?deallocate@?$allocator@VKeyPoint@cv@@@std@@QEAAXPEAVKeyPoint@cv@@_K@Z 0000000180000000     fastHessianDetectorCore.obj
 0004:fff99000       $pdata$?deallocate@?$allocator@VKeyPoint@cv@@@std@@QEAAXPEAVKeyPoint@cv@@_K@Z 0000000180000000     fastHessianDetectorCore.obj
 0002:fffb5000       $unwind$??0?$_Wrap_alloc@V?$allocator@VKeyPoint@cv@@@std@@@std@@QEAA@XZ 0000000180000000     fastHessianDetectorCore.obj
 0004:fff99000       $pdata$??0?$_Wrap_alloc@V?$allocator@VKeyPoint@cv@@@std@@@std@@QEAA@XZ 0000000180000000     fastHessianDetectorCore.obj
 0002:fffb5000       $unwind$?deallocate@?$_Wrap_alloc@V?$allocator@VKeyPoint@cv@@@std@@@std@@QEAAXPEAVKeyPoint@cv@@_K@Z 0000000180000000     fastHessianDetectorCore.obj
 0004:fff99000       $pdata$?deallocate@?$_Wrap_alloc@V?$allocator@VKeyPoint@cv@@@std@@@std@@QEAAXPEAVKeyPoint@cv@@_K@Z 0000000180000000     fastHessianDetectorCore.obj
 0002:fffb5000       $unwind$??0?$_Vector_alloc@U?$_Vec_base_types@VKeyPoint@cv@@V?$allocator@VKeyPoint@cv@@@std@@@std@@@std@@QEAA@XZ 0000000180000000     fastHessianDetectorCore.obj
 0004:fff99000       $pdata$??0?$_Vector_alloc@U?$_Vec_base_types@VKeyPoint@cv@@V?$allocator@VKeyPoint@cv@@@std@@@std@@@std@@QEAA@XZ 0000000180000000     fastHessianDetectorCore.obj
 0002:fffb5000       $unwind$?_Orphan_all@?$_Vector_alloc@U?$_Vec_base_types@VKeyPoint@cv@@V?$allocator@VKeyPoint@cv@@@std@@@std@@@std@@QEAAXXZ 0000000180000000     fastHessianDetectorCore.obj
 0004:fff99000       $pdata$?_Orphan_all@?$_Vector_alloc@U?$_Vec_base_types@VKeyPoint@cv@@V?$allocator@VKeyPoint@cv@@@std@@@std@@@std@@QEAAXXZ 0000000180000000     fastHessianDetectorCore.obj
 0002:fffb5000       $unwind$?_Getal@?$_Vector_alloc@U?$_Vec_base_types@VKeyPoint@cv@@V?$allocator@VKeyPoint@cv@@@std@@@std@@@std@@QEAAAEAU?$_Wrap_alloc@V?$allocator@VKeyPoint@cv@@@std@@@2@XZ 0000000180000000     fastHessianDetectorCore.obj
 0004:fff99000       $pdata$?_Getal@?$_Vector_alloc@U?$_Vec_base_types@VKeyPoint@cv@@V?$allocator@VKeyPoint@cv@@@std@@@std@@@std@@QEAAAEAU?$_Wrap_alloc@V?$allocator@VKeyPoint@cv@@@std@@@2@XZ 0000000180000000     fastHessianDetectorCore.obj
 0002:fffb5000       $unwind$?_Get_data@?$_Vector_alloc@U?$_Vec_base_types@VKeyPoint@cv@@V?$allocator@VKeyPoint@cv@@@std@@@std@@@std@@QEAAAEAV?$_Vector_val@U?$_Simple_types@VKeyPoint@cv@@@std@@@2@XZ 0000000180000000     fastHessianDetectorCore.obj
 0004:fff99000       $pdata$?_Get_data@?$_Vector_alloc@U?$_Vec_base_types@VKeyPoint@cv@@V?$allocator@VKeyPoint@cv@@@std@@@std@@@std@@QEAAAEAV?$_Vector_val@U?$_Simple_types@VKeyPoint@cv@@@std@@@2@XZ 0000000180000000     fastHessianDetectorCore.obj
 0002:fffb5000       $unwind$?_Get_data@?$_Vector_alloc@U?$_Vec_base_types@VKeyPoint@cv@@V?$allocator@VKeyPoint@cv@@@std@@@std@@@std@@QEBAAEBV?$_Vector_val@U?$_Simple_types@VKeyPoint@cv@@@std@@@2@XZ 0000000180000000     fastHessianDetectorCore.obj
 0004:fff99000       $pdata$?_Get_data@?$_Vector_alloc@U?$_Vec_base_types@VKeyPoint@cv@@V?$allocator@VKeyPoint@cv@@@std@@@std@@@std@@QEBAAEBV?$_Vector_val@U?$_Simple_types@VKeyPoint@cv@@@std@@@2@XZ 0000000180000000     fastHessianDetectorCore.obj
 0002:fffb5000       $unwind$?_Myfirst@?$_Vector_alloc@U?$_Vec_base_types@VKeyPoint@cv@@V?$allocator@VKeyPoint@cv@@@std@@@std@@@std@@QEAAAEAPEAVKeyPoint@cv@@XZ 0000000180000000     fastHessianDetectorCore.obj
 0004:fff99000       $pdata$?_Myfirst@?$_Vector_alloc@U?$_Vec_base_types@VKeyPoint@cv@@V?$allocator@VKeyPoint@cv@@@std@@@std@@@std@@QEAAAEAPEAVKeyPoint@cv@@XZ 0000000180000000     fastHessianDetectorCore.obj
 0002:fffb5000       $unwind$?_Myfirst@?$_Vector_alloc@U?$_Vec_base_types@VKeyPoint@cv@@V?$allocator@VKeyPoint@cv@@@std@@@std@@@std@@QEBAAEBQEAVKeyPoint@cv@@XZ 0000000180000000     fastHessianDetectorCore.obj
 0004:fff99000       $pdata$?_Myfirst@?$_Vector_alloc@U?$_Vec_base_types@VKeyPoint@cv@@V?$allocator@VKeyPoint@cv@@@std@@@std@@@std@@QEBAAEBQEAVKeyPoint@cv@@XZ 0000000180000000     fastHessianDetectorCore.obj
 0002:fffb5000       $unwind$?_Mylast@?$_Vector_alloc@U?$_Vec_base_types@VKeyPoint@cv@@V?$allocator@VKeyPoint@cv@@@std@@@std@@@std@@QEAAAEAPEAVKeyPoint@cv@@XZ 0000000180000000     fastHessianDetectorCore.obj
 0004:fff99000       $pdata$?_Mylast@?$_Vector_alloc@U?$_Vec_base_types@VKeyPoint@cv@@V?$allocator@VKeyPoint@cv@@@std@@@std@@@std@@QEAAAEAPEAVKeyPoint@cv@@XZ 0000000180000000     fastHessianDetectorCore.obj
 0002:fffb5000       $unwind$?_Mylast@?$_Vector_alloc@U?$_Vec_base_types@VKeyPoint@cv@@V?$allocator@VKeyPoint@cv@@@std@@@std@@@std@@QEBAAEBQEAVKeyPoint@cv@@XZ 0000000180000000     fastHessianDetectorCore.obj
 0004:fff99000       $pdata$?_Mylast@?$_Vector_alloc@U?$_Vec_base_types@VKeyPoint@cv@@V?$allocator@VKeyPoint@cv@@@std@@@std@@@std@@QEBAAEBQEAVKeyPoint@cv@@XZ 0000000180000000     fastHessianDetectorCore.obj
 0002:fffb5000       $unwind$?_Myend@?$_Vector_alloc@U?$_Vec_base_types@VKeyPoint@cv@@V?$allocator@VKeyPoint@cv@@@std@@@std@@@std@@QEAAAEAPEAVKeyPoint@cv@@XZ 0000000180000000     fastHessianDetectorCore.obj
 0004:fff99000       $pdata$?_Myend@?$_Vector_alloc@U?$_Vec_base_types@VKeyPoint@cv@@V?$allocator@VKeyPoint@cv@@@std@@@std@@@std@@QEAAAEAPEAVKeyPoint@cv@@XZ 0000000180000000     fastHessianDetectorCore.obj
 0002:fffb5000       $unwind$??0?$vector@VKeyPoint@cv@@V?$allocator@VKeyPoint@cv@@@std@@@std@@QEAA@XZ 0000000180000000     fastHessianDetectorCore.obj
 0004:fff99000       $pdata$??0?$vector@VKeyPoint@cv@@V?$allocator@VKeyPoint@cv@@@std@@@std@@QEAA@XZ 0000000180000000     fastHessianDetectorCore.obj
 0002:fffb5000       $cppxdata$??0?$vector@VKeyPoint@cv@@V?$allocator@VKeyPoint@cv@@@std@@@std@@QEAA@XZ 0000000180000000     fastHessianDetectorCore.obj
 0002:fffb5000       $ip2state$??0?$vector@VKeyPoint@cv@@V?$allocator@VKeyPoint@cv@@@std@@@std@@QEAA@XZ 0000000180000000     fastHessianDetectorCore.obj
 0002:fffb5000       $unwind$??1?$vector@VKeyPoint@cv@@V?$allocator@VKeyPoint@cv@@@std@@@std@@QEAA@XZ 0000000180000000     fastHessianDetectorCore.obj
 0004:fff99000       $pdata$??1?$vector@VKeyPoint@cv@@V?$allocator@VKeyPoint@cv@@@std@@@std@@QEAA@XZ 0000000180000000     fastHessianDetectorCore.obj
 0002:fffb5000       $cppxdata$??1?$vector@VKeyPoint@cv@@V?$allocator@VKeyPoint@cv@@@std@@@std@@QEAA@XZ 0000000180000000     fastHessianDetectorCore.obj
 0002:fffb5000       $ip2state$??1?$vector@VKeyPoint@cv@@V?$allocator@VKeyPoint@cv@@@std@@@std@@QEAA@XZ 0000000180000000     fastHessianDetectorCore.obj
 0002:fffb5000       $unwind$?size@?$vector@VKeyPoint@cv@@V?$allocator@VKeyPoint@cv@@@std@@@std@@QEBA_KXZ 0000000180000000     fastHessianDetectorCore.obj
 0004:fff99000       $pdata$?size@?$vector@VKeyPoint@cv@@V?$allocator@VKeyPoint@cv@@@std@@@std@@QEBA_KXZ 0000000180000000     fastHessianDetectorCore.obj
 0002:fffb5000       $unwind$??A?$vector@VKeyPoint@cv@@V?$allocator@VKeyPoint@cv@@@std@@@std@@QEAAAEAVKeyPoint@cv@@_K@Z 0000000180000000     fastHessianDetectorCore.obj
 0004:fff99000       $pdata$??A?$vector@VKeyPoint@cv@@V?$allocator@VKeyPoint@cv@@@std@@@std@@QEAAAEAVKeyPoint@cv@@_K@Z 0000000180000000     fastHessianDetectorCore.obj
 0002:fffb5000       $unwind$?_Destroy@?$vector@VKeyPoint@cv@@V?$allocator@VKeyPoint@cv@@@std@@@std@@AEAAXPEAVKeyPoint@cv@@0@Z 0000000180000000     fastHessianDetectorCore.obj
 0004:fff99000       $pdata$?_Destroy@?$vector@VKeyPoint@cv@@V?$allocator@VKeyPoint@cv@@@std@@@std@@AEAAXPEAVKeyPoint@cv@@0@Z 0000000180000000     fastHessianDetectorCore.obj
 0002:fffb5000       $unwind$?_Tidy@?$vector@VKeyPoint@cv@@V?$allocator@VKeyPoint@cv@@@std@@@std@@AEAAXXZ 0000000180000000     fastHessianDetectorCore.obj
 0004:fff99000       $pdata$?_Tidy@?$vector@VKeyPoint@cv@@V?$allocator@VKeyPoint@cv@@@std@@@std@@AEAAXXZ 0000000180000000     fastHessianDetectorCore.obj
 0002:fffb5000       $unwind$??_G?$vector@VKeyPoint@cv@@V?$allocator@VKeyPoint@cv@@@std@@@std@@QEAAPEAXI@Z 0000000180000000     fastHessianDetectorCore.obj
 0004:fff99000       $pdata$??_G?$vector@VKeyPoint@cv@@V?$allocator@VKeyPoint@cv@@@std@@@std@@QEAAPEAXI@Z 0000000180000000     fastHessianDetectorCore.obj
 0002:fffb5000       $unwind$??$?6U?$char_traits@D@std@@@std@@YAAEAV?$basic_ostream@DU?$char_traits@D@std@@@0@AEAV10@PEBD@Z 0000000180000000     fastHessianDetectorCore.obj
 0004:fff99000       $pdata$??$?6U?$char_traits@D@std@@@std@@YAAEAV?$basic_ostream@DU?$char_traits@D@std@@@0@AEAV10@PEBD@Z 0000000180000000     fastHessianDetectorCore.obj
 0002:fffb5000       $cppxdata$??$?6U?$char_traits@D@std@@@std@@YAAEAV?$basic_ostream@DU?$char_traits@D@std@@@0@AEAV10@PEBD@Z 0000000180000000     fastHessianDetectorCore.obj
 0002:fffb5000       $stateUnwindMap$??$?6U?$char_traits@D@std@@@std@@YAAEAV?$basic_ostream@DU?$char_traits@D@std@@@0@AEAV10@PEBD@Z 0000000180000000     fastHessianDetectorCore.obj
 0002:fffb5000       $tryMap$??$?6U?$char_traits@D@std@@@std@@YAAEAV?$basic_ostream@DU?$char_traits@D@std@@@0@AEAV10@PEBD@Z 0000000180000000     fastHessianDetectorCore.obj
 0002:fffb5000       $handlerMap$0$??$?6U?$char_traits@D@std@@@std@@YAAEAV?$basic_ostream@DU?$char_traits@D@std@@@0@AEAV10@PEBD@Z 0000000180000000     fastHessianDetectorCore.obj
 0002:fffb5000       $ip2state$??$?6U?$char_traits@D@std@@@std@@YAAEAV?$basic_ostream@DU?$char_traits@D@std@@@0@AEAV10@PEBD@Z 0000000180000000     fastHessianDetectorCore.obj
 0002:fffb5000       $unwind$?dtor$0@?0???$?6U?$char_traits@D@std@@@std@@YAAEAV?$basic_ostream@DU?$char_traits@D@std@@@0@AEAV10@PEBD@Z@4HA 0000000180000000     fastHessianDetectorCore.obj
 0004:fff99000       $pdata$?dtor$0@?0???$?6U?$char_traits@D@std@@@std@@YAAEAV?$basic_ostream@DU?$char_traits@D@std@@@0@AEAV10@PEBD@Z@4HA 0000000180000000     fastHessianDetectorCore.obj
 0002:fffb5000       $unwind$?catch$1@?0???$?6U?$char_traits@D@std@@@std@@YAAEAV?$basic_ostream@DU?$char_traits@D@std@@@0@AEAV10@PEBD@Z@4HA 0000000180000000     fastHessianDetectorCore.obj
 0004:fff99000       $pdata$?catch$1@?0???$?6U?$char_traits@D@std@@@std@@YAAEAV?$basic_ostream@DU?$char_traits@D@std@@@0@AEAV10@PEBD@Z@4HA 0000000180000000     fastHessianDetectorCore.obj
 0002:fffb5000       $unwind$??6anyimpl@cvflann@@YAAEAV?$basic_ostream@DU?$char_traits@D@std@@@std@@AEAV23@AEBUempty_any@01@@Z 0000000180000000     fastHessianDetectorCore.obj
 0004:fff99000       $pdata$??6anyimpl@cvflann@@YAAEAV?$basic_ostream@DU?$char_traits@D@std@@@std@@AEAV23@AEBUempty_any@01@@Z 0000000180000000     fastHessianDetectorCore.obj
 0002:fffb5000       $unwind$??_Gbase_any_policy@anyimpl@cvflann@@UEAAPEAXI@Z 0000000180000000     fastHessianDetectorCore.obj
 0004:fff99000       $pdata$??_Gbase_any_policy@anyimpl@cvflann@@UEAAPEAXI@Z 0000000180000000     fastHessianDetectorCore.obj
 0002:fffb5000       $unwind$??0?$typed_base_any_policy@W4flann_centers_init_t@cvflann@@@anyimpl@cvflann@@QEAA@XZ 0000000180000000     fastHessianDetectorCore.obj
 0004:fff99000       $pdata$??0?$typed_base_any_policy@W4flann_centers_init_t@cvflann@@@anyimpl@cvflann@@QEAA@XZ 0000000180000000     fastHessianDetectorCore.obj
 0002:fffb5000       $unwind$??1?$typed_base_any_policy@W4flann_centers_init_t@cvflann@@@anyimpl@cvflann@@UEAA@XZ 0000000180000000     fastHessianDetectorCore.obj
 0004:fff99000       $pdata$??1?$typed_base_any_policy@W4flann_centers_init_t@cvflann@@@anyimpl@cvflann@@UEAA@XZ 0000000180000000     fastHessianDetectorCore.obj
 0002:fffb5000       $unwind$??_G?$typed_base_any_policy@W4flann_centers_init_t@cvflann@@@anyimpl@cvflann@@UEAAPEAXI@Z 0000000180000000     fastHessianDetectorCore.obj
 0004:fff99000       $pdata$??_G?$typed_base_any_policy@W4flann_centers_init_t@cvflann@@@anyimpl@cvflann@@UEAAPEAXI@Z 0000000180000000     fastHessianDetectorCore.obj
 0002:fffb5000       $unwind$?static_delete@?$big_any_policy@W4flann_centers_init_t@cvflann@@@anyimpl@cvflann@@UEAAXPEAPEAX@Z 0000000180000000     fastHessianDetectorCore.obj
 0004:fff99000       $pdata$?static_delete@?$big_any_policy@W4flann_centers_init_t@cvflann@@@anyimpl@cvflann@@UEAAXPEAPEAX@Z 0000000180000000     fastHessianDetectorCore.obj
 0002:fffb5000       $unwind$?copy_from_value@?$big_any_policy@W4flann_centers_init_t@cvflann@@@anyimpl@cvflann@@UEAAXPEBXPEAPEAX@Z 0000000180000000     fastHessianDetectorCore.obj
 0004:fff99000       $pdata$?copy_from_value@?$big_any_policy@W4flann_centers_init_t@cvflann@@@anyimpl@cvflann@@UEAAXPEBXPEAPEAX@Z 0000000180000000     fastHessianDetectorCore.obj
 0002:fffb5000       $unwind$?clone@?$big_any_policy@W4flann_centers_init_t@cvflann@@@anyimpl@cvflann@@UEAAXPEBQEAXPEAPEAX@Z 0000000180000000     fastHessianDetectorCore.obj
 0004:fff99000       $pdata$?clone@?$big_any_policy@W4flann_centers_init_t@cvflann@@@anyimpl@cvflann@@UEAAXPEBQEAXPEAPEAX@Z 0000000180000000     fastHessianDetectorCore.obj
 0002:fffb5000       $unwind$?print@?$big_any_policy@W4flann_centers_init_t@cvflann@@@anyimpl@cvflann@@UEAAXAEAV?$basic_ostream@DU?$char_traits@D@std@@@std@@PEBQEAX@Z 0000000180000000     fastHessianDetectorCore.obj
 0004:fff99000       $pdata$?print@?$big_any_policy@W4flann_centers_init_t@cvflann@@@anyimpl@cvflann@@UEAAXAEAV?$basic_ostream@DU?$char_traits@D@std@@@std@@PEBQEAX@Z 0000000180000000     fastHessianDetectorCore.obj
 0002:fffb5000       $unwind$??0?$big_any_policy@W4flann_centers_init_t@cvflann@@@anyimpl@cvflann@@QEAA@XZ 0000000180000000     fastHessianDetectorCore.obj
 0004:fff99000       $pdata$??0?$big_any_policy@W4flann_centers_init_t@cvflann@@@anyimpl@cvflann@@QEAA@XZ 0000000180000000     fastHessianDetectorCore.obj
 0002:fffb5000       $unwind$??1?$big_any_policy@W4flann_centers_init_t@cvflann@@@anyimpl@cvflann@@UEAA@XZ 0000000180000000     fastHessianDetectorCore.obj
 0004:fff99000       $pdata$??1?$big_any_policy@W4flann_centers_init_t@cvflann@@@anyimpl@cvflann@@UEAA@XZ 0000000180000000     fastHessianDetectorCore.obj
 0002:fffb5000       $unwind$??_G?$big_any_policy@W4flann_centers_init_t@cvflann@@@anyimpl@cvflann@@UEAAPEAXI@Z 0000000180000000     fastHessianDetectorCore.obj
 0004:fff99000       $pdata$??_G?$big_any_policy@W4flann_centers_init_t@cvflann@@@anyimpl@cvflann@@UEAAPEAXI@Z 0000000180000000     fastHessianDetectorCore.obj
 0002:fffb5000       $unwind$??0?$typed_base_any_policy@W4flann_algorithm_t@cvflann@@@anyimpl@cvflann@@QEAA@XZ 0000000180000000     fastHessianDetectorCore.obj
 0004:fff99000       $pdata$??0?$typed_base_any_policy@W4flann_algorithm_t@cvflann@@@anyimpl@cvflann@@QEAA@XZ 0000000180000000     fastHessianDetectorCore.obj
 0002:fffb5000       $unwind$??1?$typed_base_any_policy@W4flann_algorithm_t@cvflann@@@anyimpl@cvflann@@UEAA@XZ 0000000180000000     fastHessianDetectorCore.obj
 0004:fff99000       $pdata$??1?$typed_base_any_policy@W4flann_algorithm_t@cvflann@@@anyimpl@cvflann@@UEAA@XZ 0000000180000000     fastHessianDetectorCore.obj
 0002:fffb5000       $unwind$??_G?$typed_base_any_policy@W4flann_algorithm_t@cvflann@@@anyimpl@cvflann@@UEAAPEAXI@Z 0000000180000000     fastHessianDetectorCore.obj
 0004:fff99000       $pdata$??_G?$typed_base_any_policy@W4flann_algorithm_t@cvflann@@@anyimpl@cvflann@@UEAAPEAXI@Z 0000000180000000     fastHessianDetectorCore.obj
 0002:fffb5000       $unwind$?static_delete@?$big_any_policy@W4flann_algorithm_t@cvflann@@@anyimpl@cvflann@@UEAAXPEAPEAX@Z 0000000180000000     fastHessianDetectorCore.obj
 0004:fff99000       $pdata$?static_delete@?$big_any_policy@W4flann_algorithm_t@cvflann@@@anyimpl@cvflann@@UEAAXPEAPEAX@Z 0000000180000000     fastHessianDetectorCore.obj
 0002:fffb5000       $unwind$?copy_from_value@?$big_any_policy@W4flann_algorithm_t@cvflann@@@anyimpl@cvflann@@UEAAXPEBXPEAPEAX@Z 0000000180000000     fastHessianDetectorCore.obj
 0004:fff99000       $pdata$?copy_from_value@?$big_any_policy@W4flann_algorithm_t@cvflann@@@anyimpl@cvflann@@UEAAXPEBXPEAPEAX@Z 0000000180000000     fastHessianDetectorCore.obj
 0002:fffb5000       $unwind$?clone@?$big_any_policy@W4flann_algorithm_t@cvflann@@@anyimpl@cvflann@@UEAAXPEBQEAXPEAPEAX@Z 0000000180000000     fastHessianDetectorCore.obj
 0004:fff99000       $pdata$?clone@?$big_any_policy@W4flann_algorithm_t@cvflann@@@anyimpl@cvflann@@UEAAXPEBQEAXPEAPEAX@Z 0000000180000000     fastHessianDetectorCore.obj
 0002:fffb5000       $unwind$?print@?$big_any_policy@W4flann_algorithm_t@cvflann@@@anyimpl@cvflann@@UEAAXAEAV?$basic_ostream@DU?$char_traits@D@std@@@std@@PEBQEAX@Z 0000000180000000     fastHessianDetectorCore.obj
 0004:fff99000       $pdata$?print@?$big_any_policy@W4flann_algorithm_t@cvflann@@@anyimpl@cvflann@@UEAAXAEAV?$basic_ostream@DU?$char_traits@D@std@@@std@@PEBQEAX@Z 0000000180000000     fastHessianDetectorCore.obj
 0002:fffb5000       $unwind$??0?$big_any_policy@W4flann_algorithm_t@cvflann@@@anyimpl@cvflann@@QEAA@XZ 0000000180000000     fastHessianDetectorCore.obj
 0004:fff99000       $pdata$??0?$big_any_policy@W4flann_algorithm_t@cvflann@@@anyimpl@cvflann@@QEAA@XZ 0000000180000000     fastHessianDetectorCore.obj
 0002:fffb5000       $unwind$??1?$big_any_policy@W4flann_algorithm_t@cvflann@@@anyimpl@cvflann@@UEAA@XZ 0000000180000000     fastHessianDetectorCore.obj
 0004:fff99000       $pdata$??1?$big_any_policy@W4flann_algorithm_t@cvflann@@@anyimpl@cvflann@@UEAA@XZ 0000000180000000     fastHessianDetectorCore.obj
 0002:fffb5000       $unwind$??_G?$big_any_policy@W4flann_algorithm_t@cvflann@@@anyimpl@cvflann@@UEAAPEAXI@Z 0000000180000000     fastHessianDetectorCore.obj
 0004:fff99000       $pdata$??_G?$big_any_policy@W4flann_algorithm_t@cvflann@@@anyimpl@cvflann@@UEAAPEAXI@Z 0000000180000000     fastHessianDetectorCore.obj
 0002:fffb5000       $unwind$??0?$typed_base_any_policy@VString@cv@@@anyimpl@cvflann@@QEAA@XZ 0000000180000000     fastHessianDetectorCore.obj
 0004:fff99000       $pdata$??0?$typed_base_any_policy@VString@cv@@@anyimpl@cvflann@@QEAA@XZ 0000000180000000     fastHessianDetectorCore.obj
 0002:fffb5000       $unwind$??1?$typed_base_any_policy@VString@cv@@@anyimpl@cvflann@@UEAA@XZ 0000000180000000     fastHessianDetectorCore.obj
 0004:fff99000       $pdata$??1?$typed_base_any_policy@VString@cv@@@anyimpl@cvflann@@UEAA@XZ 0000000180000000     fastHessianDetectorCore.obj
 0002:fffb5000       $unwind$??_G?$typed_base_any_policy@VString@cv@@@anyimpl@cvflann@@UEAAPEAXI@Z 0000000180000000     fastHessianDetectorCore.obj
 0004:fff99000       $pdata$??_G?$typed_base_any_policy@VString@cv@@@anyimpl@cvflann@@UEAAPEAXI@Z 0000000180000000     fastHessianDetectorCore.obj
 0002:fffb5000       $unwind$?static_delete@?$big_any_policy@VString@cv@@@anyimpl@cvflann@@UEAAXPEAPEAX@Z 0000000180000000     fastHessianDetectorCore.obj
 0004:fff99000       $pdata$?static_delete@?$big_any_policy@VString@cv@@@anyimpl@cvflann@@UEAAXPEAPEAX@Z 0000000180000000     fastHessianDetectorCore.obj
 0002:fffb5000       $unwind$?copy_from_value@?$big_any_policy@VString@cv@@@anyimpl@cvflann@@UEAAXPEBXPEAPEAX@Z 0000000180000000     fastHessianDetectorCore.obj
 0004:fff99000       $pdata$?copy_from_value@?$big_any_policy@VString@cv@@@anyimpl@cvflann@@UEAAXPEBXPEAPEAX@Z 0000000180000000     fastHessianDetectorCore.obj
 0002:fffb5000       $cppxdata$?copy_from_value@?$big_any_policy@VString@cv@@@anyimpl@cvflann@@UEAAXPEBXPEAPEAX@Z 0000000180000000     fastHessianDetectorCore.obj
 0002:fffb5000       $stateUnwindMap$?copy_from_value@?$big_any_policy@VString@cv@@@anyimpl@cvflann@@UEAAXPEBXPEAPEAX@Z 0000000180000000     fastHessianDetectorCore.obj
 0002:fffb5000       $ip2state$?copy_from_value@?$big_any_policy@VString@cv@@@anyimpl@cvflann@@UEAAXPEBXPEAPEAX@Z 0000000180000000     fastHessianDetectorCore.obj
 0002:fffb5000       $unwind$?dtor$0@?0??copy_from_value@?$big_any_policy@VString@cv@@@anyimpl@cvflann@@UEAAXPEBXPEAPEAX@Z@4HA 0000000180000000     fastHessianDetectorCore.obj
 0004:fff99000       $pdata$?dtor$0@?0??copy_from_value@?$big_any_policy@VString@cv@@@anyimpl@cvflann@@UEAAXPEBXPEAPEAX@Z@4HA 0000000180000000     fastHessianDetectorCore.obj
 0002:fffb5000       $unwind$?clone@?$big_any_policy@VString@cv@@@anyimpl@cvflann@@UEAAXPEBQEAXPEAPEAX@Z 0000000180000000     fastHessianDetectorCore.obj
 0004:fff99000       $pdata$?clone@?$big_any_policy@VString@cv@@@anyimpl@cvflann@@UEAAXPEBQEAXPEAPEAX@Z 0000000180000000     fastHessianDetectorCore.obj
 0002:fffb5000       $cppxdata$?clone@?$big_any_policy@VString@cv@@@anyimpl@cvflann@@UEAAXPEBQEAXPEAPEAX@Z 0000000180000000     fastHessianDetectorCore.obj
 0002:fffb5000       $stateUnwindMap$?clone@?$big_any_policy@VString@cv@@@anyimpl@cvflann@@UEAAXPEBQEAXPEAPEAX@Z 0000000180000000     fastHessianDetectorCore.obj
 0002:fffb5000       $ip2state$?clone@?$big_any_policy@VString@cv@@@anyimpl@cvflann@@UEAAXPEBQEAXPEAPEAX@Z 0000000180000000     fastHessianDetectorCore.obj
 0002:fffb5000       $unwind$?dtor$0@?0??clone@?$big_any_policy@VString@cv@@@anyimpl@cvflann@@UEAAXPEBQEAXPEAPEAX@Z@4HA 0000000180000000     fastHessianDetectorCore.obj
 0004:fff99000       $pdata$?dtor$0@?0??clone@?$big_any_policy@VString@cv@@@anyimpl@cvflann@@UEAAXPEBQEAXPEAPEAX@Z@4HA 0000000180000000     fastHessianDetectorCore.obj
 0002:fffb5000       $unwind$?move@?$big_any_policy@VString@cv@@@anyimpl@cvflann@@UEAAXPEBQEAXPEAPEAX@Z 0000000180000000     fastHessianDetectorCore.obj
 0004:fff99000       $pdata$?move@?$big_any_policy@VString@cv@@@anyimpl@cvflann@@UEAAXPEBQEAXPEAPEAX@Z 0000000180000000     fastHessianDetectorCore.obj
 0002:fffb5000       $unwind$?print@?$big_any_policy@VString@cv@@@anyimpl@cvflann@@UEAAXAEAV?$basic_ostream@DU?$char_traits@D@std@@@std@@PEBQEAX@Z 0000000180000000     fastHessianDetectorCore.obj
 0004:fff99000       $pdata$?print@?$big_any_policy@VString@cv@@@anyimpl@cvflann@@UEAAXAEAV?$basic_ostream@DU?$char_traits@D@std@@@std@@PEBQEAX@Z 0000000180000000     fastHessianDetectorCore.obj
 0002:fffb5000       $unwind$??0?$big_any_policy@VString@cv@@@anyimpl@cvflann@@QEAA@XZ 0000000180000000     fastHessianDetectorCore.obj
 0004:fff99000       $pdata$??0?$big_any_policy@VString@cv@@@anyimpl@cvflann@@QEAA@XZ 0000000180000000     fastHessianDetectorCore.obj
 0002:fffb5000       $unwind$??1?$big_any_policy@VString@cv@@@anyimpl@cvflann@@UEAA@XZ 0000000180000000     fastHessianDetectorCore.obj
 0004:fff99000       $pdata$??1?$big_any_policy@VString@cv@@@anyimpl@cvflann@@UEAA@XZ 0000000180000000     fastHessianDetectorCore.obj
 0002:fffb5000       $unwind$??_G?$big_any_policy@VString@cv@@@anyimpl@cvflann@@UEAAPEAXI@Z 0000000180000000     fastHessianDetectorCore.obj
 0004:fff99000       $pdata$??_G?$big_any_policy@VString@cv@@@anyimpl@cvflann@@UEAAPEAXI@Z 0000000180000000     fastHessianDetectorCore.obj
 0002:fffb5000       $unwind$?dtor$0@?0???$?6U?$char_traits@D@std@@@std@@YAAEAV?$basic_ostream@DU?$char_traits@D@std@@@0@AEAV10@PEBD@Z@4HA 0000000180000000     cgCommon.obj
 0000:00000000       .debug$S                   0000000180000000     ucrt:api-ms-win-crt-runtime-l1-1-0.dll
 0000:00000000       .debug$S                   0000000180000000     opencv_core340:opencv_core340.dll
 0004:fff99000       $pdata$?dtor$0@?0???$?6U?$char_traits@D@std@@@std@@YAAEAV?$basic_ostream@DU?$char_traits@D@std@@@0@AEAV10@PEBD@Z@4HA 0000000180000000     cgCommon.obj
 0000:00000000       .debug$S                   0000000180000000     opencv_core340:opencv_core340.dll
 0002:fffb5000       $unwind$?catch$1@?0???$?6U?$char_traits@D@std@@@std@@YAAEAV?$basic_ostream@DU?$char_traits@D@std@@@0@AEAV10@PEBD@Z@4HA 0000000180000000     cgCommon.obj
 0000:00000000       .debug$S                   0000000180000000     ucrt:api-ms-win-crt-runtime-l1-1-0.dll
 0000:00000000       .debug$S                   0000000180000000     opencv_core340:opencv_core340.dll
 0000:00000000       .debug$S                   0000000180000000     ucrt:api-ms-win-crt-runtime-l1-1-0.dll
 0004:fff99000       $pdata$?catch$1@?0???$?6U?$char_traits@D@std@@@std@@YAAEAV?$basic_ostream@DU?$char_traits@D@std@@@0@AEAV10@PEBD@Z@4HA 0000000180000000     cgCommon.obj
 0000:00000000       .debug$S                   0000000180000000     ucrt:api-ms-win-crt-runtime-l1-1-0.dll
 0000:00000000       .debug$S                   0000000180000000     opencv_core340:opencv_core340.dll
 0000:00000000       .debug$S                   0000000180000000     ucrt:api-ms-win-crt-runtime-l1-1-0.dll
 0002:fffb5000       $unwind$??6anyimpl@cvflann@@YAAEAV?$basic_ostream@DU?$char_traits@D@std@@@std@@AEAV23@AEBUempty_any@01@@Z 0000000180000000     cgCommon.obj
 0000:00000000       .debug$S                   0000000180000000     ucrt:api-ms-win-crt-runtime-l1-1-0.dll
 0000:00000000       .debug$S                   0000000180000000     opencv_core340:opencv_core340.dll
 0000:00000000       .debug$S                   0000000180000000     ucrt:api-ms-win-crt-stdio-l1-1-0.dll
 0004:fff99000       $pdata$??6anyimpl@cvflann@@YAAEAV?$basic_ostream@DU?$char_traits@D@std@@@std@@AEAV23@AEBUempty_any@01@@Z 0000000180000000     cgCommon.obj
 0000:00000000       .debug$S                   0000000180000000     ucrt:api-ms-win-crt-string-l1-1-0.dll
 0000:00000000       .debug$S                   0000000180000000     opencv_core340:opencv_core340.dll
 0000:00000000       .debug$S                   0000000180000000     ucrt:api-ms-win-crt-string-l1-1-0.dll
 0002:fffb5000       $unwind$??_Gbase_any_policy@anyimpl@cvflann@@UEAAPEAXI@Z 0000000180000000     cgCommon.obj
 0000:00000000       .debug$S                   0000000180000000     ucrt:api-ms-win-crt-string-l1-1-0.dll
 0000:00000000       .debug$S                   0000000180000000     opencv_core340:opencv_core340.dll
 0004:fff99000       $pdata$??_Gbase_any_policy@anyimpl@cvflann@@UEAAPEAXI@Z 0000000180000000     cgCommon.obj
 0002:fffb5000       $unwind$??0?$typed_base_any_policy@W4flann_centers_init_t@cvflann@@@anyimpl@cvflann@@QEAA@XZ 0000000180000000     cgCommon.obj
 0004:fff99000       $pdata$??0?$typed_base_any_policy@W4flann_centers_init_t@cvflann@@@anyimpl@cvflann@@QEAA@XZ 0000000180000000     cgCommon.obj
 0000:00000000       .debug$S                   0000000180000000     ucrt:api-ms-win-crt-utility-l1-1-0.dll
 0000:00000000       .debug$S                   0000000180000000     opencv_core340:opencv_core340.dll
 0000:00000000       .debug$S                   0000000180000000     vcruntime:VCRUNTIME140.dll
 0002:fffb5000       $unwind$??1?$Ptr@VMWSURF@cv@@@cv@@QEAA@XZ 0000000180000000     fastHessianDetectorCore.obj
 0004:fff99000       $pdata$??1?$Ptr@VMWSURF@cv@@@cv@@QEAA@XZ 0000000180000000     fastHessianDetectorCore.obj
 0002:fffb5000       $cppxdata$??1?$Ptr@VMWSURF@cv@@@cv@@QEAA@XZ 0000000180000000     fastHessianDetectorCore.obj
 0002:fffb5000       $ip2state$??1?$Ptr@VMWSURF@cv@@@cv@@QEAA@XZ 0000000180000000     fastHessianDetectorCore.obj
 0002:fffb5000       $unwind$?release@?$Ptr@VMWSURF@cv@@@cv@@QEAAXXZ 0000000180000000     fastHessianDetectorCore.obj
 0004:fff99000       $pdata$?release@?$Ptr@VMWSURF@cv@@@cv@@QEAAXXZ 0000000180000000     fastHessianDetectorCore.obj
 0002:fffb5000       $unwind$?empty@?$Ptr@VMWSURF@cv@@@cv@@QEBA_NXZ 0000000180000000     fastHessianDetectorCore.obj
 0004:fff99000       $pdata$?empty@?$Ptr@VMWSURF@cv@@@cv@@QEBA_NXZ 0000000180000000     fastHessianDetectorCore.obj
 0002:fffb5000       $unwind$??$makePtr@VMWSURF@cv@@@cv@@YA?AU?$Ptr@VMWSURF@cv@@@0@XZ 0000000180000000     fastHessianDetectorCore.obj
 0004:fff99000       $pdata$??$makePtr@VMWSURF@cv@@@cv@@YA?AU?$Ptr@VMWSURF@cv@@@0@XZ 0000000180000000     fastHessianDetectorCore.obj
 0002:fffb5000       $cppxdata$??$makePtr@VMWSURF@cv@@@cv@@YA?AU?$Ptr@VMWSURF@cv@@@0@XZ 0000000180000000     fastHessianDetectorCore.obj
 0002:fffb5000       $stateUnwindMap$??$makePtr@VMWSURF@cv@@@cv@@YA?AU?$Ptr@VMWSURF@cv@@@0@XZ 0000000180000000     fastHessianDetectorCore.obj
 0002:fffb5000       $ip2state$??$makePtr@VMWSURF@cv@@@cv@@YA?AU?$Ptr@VMWSURF@cv@@@0@XZ 0000000180000000     fastHessianDetectorCore.obj
 0002:fffb5000       $unwind$?dtor$0@?0???$makePtr@VMWSURF@cv@@@cv@@YA?AU?$Ptr@VMWSURF@cv@@@0@XZ@4HA 0000000180000000     fastHessianDetectorCore.obj
 0004:fff99000       $pdata$?dtor$0@?0???$makePtr@VMWSURF@cv@@@cv@@YA?AU?$Ptr@VMWSURF@cv@@@0@XZ@4HA 0000000180000000     fastHessianDetectorCore.obj
 0002:fffb5000       $unwind$??0_Sentry_base@?$basic_ostream@DU?$char_traits@D@std@@@std@@QEAA@AEAV12@@Z 0000000180000000     fastHessianDetectorCore.obj
 0004:fff99000       $pdata$??0_Sentry_base@?$basic_ostream@DU?$char_traits@D@std@@@std@@QEAA@AEAV12@@Z 0000000180000000     fastHessianDetectorCore.obj
 0002:fffb5000       $unwind$??1_Sentry_base@?$basic_ostream@DU?$char_traits@D@std@@@std@@QEAA@XZ 0000000180000000     fastHessianDetectorCore.obj
 0004:fff99000       $pdata$??1_Sentry_base@?$basic_ostream@DU?$char_traits@D@std@@@std@@QEAA@XZ 0000000180000000     fastHessianDetectorCore.obj
 0002:fffb5000       $cppxdata$??1_Sentry_base@?$basic_ostream@DU?$char_traits@D@std@@@std@@QEAA@XZ 0000000180000000     fastHessianDetectorCore.obj
 0002:fffb5000       $ip2state$??1_Sentry_base@?$basic_ostream@DU?$char_traits@D@std@@@std@@QEAA@XZ 0000000180000000     fastHessianDetectorCore.obj
 0002:fffb5000       $unwind$??0sentry@?$basic_ostream@DU?$char_traits@D@std@@@std@@QEAA@AEAV12@@Z 0000000180000000     fastHessianDetectorCore.obj
 0004:fff99000       $pdata$??0sentry@?$basic_ostream@DU?$char_traits@D@std@@@std@@QEAA@AEAV12@@Z 0000000180000000     fastHessianDetectorCore.obj
 0002:fffb5000       $cppxdata$??0sentry@?$basic_ostream@DU?$char_traits@D@std@@@std@@QEAA@AEAV12@@Z 0000000180000000     fastHessianDetectorCore.obj
 0002:fffb5000       $stateUnwindMap$??0sentry@?$basic_ostream@DU?$char_traits@D@std@@@std@@QEAA@AEAV12@@Z 0000000180000000     fastHessianDetectorCore.obj
 0002:fffb5000       $ip2state$??0sentry@?$basic_ostream@DU?$char_traits@D@std@@@std@@QEAA@AEAV12@@Z 0000000180000000     fastHessianDetectorCore.obj
 0002:fffb5000       $unwind$?dtor$0@?0???0sentry@?$basic_ostream@DU?$char_traits@D@std@@@std@@QEAA@AEAV12@@Z@4HA 0000000180000000     fastHessianDetectorCore.obj
 0004:fff99000       $pdata$?dtor$0@?0???0sentry@?$basic_ostream@DU?$char_traits@D@std@@@std@@QEAA@AEAV12@@Z@4HA 0000000180000000     fastHessianDetectorCore.obj
 0002:fffb5000       $unwind$??1sentry@?$basic_ostream@DU?$char_traits@D@std@@@std@@QEAA@XZ 0000000180000000     fastHessianDetectorCore.obj
 0004:fff99000       $pdata$??1sentry@?$basic_ostream@DU?$char_traits@D@std@@@std@@QEAA@XZ 0000000180000000     fastHessianDetectorCore.obj
 0002:fffb5000       $cppxdata$??1sentry@?$basic_ostream@DU?$char_traits@D@std@@@std@@QEAA@XZ 0000000180000000     fastHessianDetectorCore.obj
 0002:fffb5000       $ip2state$??1sentry@?$basic_ostream@DU?$char_traits@D@std@@@std@@QEAA@XZ 0000000180000000     fastHessianDetectorCore.obj
 0002:fffb5000       $unwind$??$?0$$V@?$_Compressed_pair@U?$_Wrap_alloc@V?$allocator@VKeyPoint@cv@@@std@@@std@@V?$_Vector_val@U?$_Simple_types@VKeyPoint@cv@@@std@@@2@$00@std@@QEAA@U_Zero_then_variadic_args_t@1@@Z 0000000180000000     fastHessianDetectorCore.obj
 0004:fff99000       $pdata$??$?0$$V@?$_Compressed_pair@U?$_Wrap_alloc@V?$allocator@VKeyPoint@cv@@@std@@@std@@V?$_Vector_val@U?$_Simple_types@VKeyPoint@cv@@@std@@@2@$00@std@@QEAA@U_Zero_then_variadic_args_t@1@@Z 0000000180000000     fastHessianDetectorCore.obj
 0002:fffb5000       $unwind$??$_Destroy_range@V?$allocator@VKeyPoint@cv@@@std@@PEAVKeyPoint@cv@@@std@@YAXPEAVKeyPoint@cv@@0AEAU?$_Wrap_alloc@V?$allocator@VKeyPoint@cv@@@std@@@0@@Z 0000000180000000     fastHessianDetectorCore.obj
 0004:fff99000       $pdata$??$_Destroy_range@V?$allocator@VKeyPoint@cv@@@std@@PEAVKeyPoint@cv@@@std@@YAXPEAVKeyPoint@cv@@0AEAU?$_Wrap_alloc@V?$allocator@VKeyPoint@cv@@@std@@@0@@Z 0000000180000000     fastHessianDetectorCore.obj
 0002:fffb5000       $unwind$??0?$typed_base_any_policy@Uempty_any@anyimpl@cvflann@@@anyimpl@cvflann@@QEAA@XZ 0000000180000000     fastHessianDetectorCore.obj
 0004:fff99000       $pdata$??0?$typed_base_any_policy@Uempty_any@anyimpl@cvflann@@@anyimpl@cvflann@@QEAA@XZ 0000000180000000     fastHessianDetectorCore.obj
 0002:fffb5000       $unwind$??1?$typed_base_any_policy@Uempty_any@anyimpl@cvflann@@@anyimpl@cvflann@@UEAA@XZ 0000000180000000     fastHessianDetectorCore.obj
 0004:fff99000       $pdata$??1?$typed_base_any_policy@Uempty_any@anyimpl@cvflann@@@anyimpl@cvflann@@UEAA@XZ 0000000180000000     fastHessianDetectorCore.obj
 0002:fffb5000       $unwind$??_G?$typed_base_any_policy@Uempty_any@anyimpl@cvflann@@@anyimpl@cvflann@@UEAAPEAXI@Z 0000000180000000     fastHessianDetectorCore.obj
 0004:fff99000       $pdata$??_G?$typed_base_any_policy@Uempty_any@anyimpl@cvflann@@@anyimpl@cvflann@@UEAAPEAXI@Z 0000000180000000     fastHessianDetectorCore.obj
 0002:fffb5000       $unwind$?static_delete@?$big_any_policy@Uempty_any@anyimpl@cvflann@@@anyimpl@cvflann@@UEAAXPEAPEAX@Z 0000000180000000     fastHessianDetectorCore.obj
 0004:fff99000       $pdata$?static_delete@?$big_any_policy@Uempty_any@anyimpl@cvflann@@@anyimpl@cvflann@@UEAAXPEAPEAX@Z 0000000180000000     fastHessianDetectorCore.obj
 0002:fffb5000       $unwind$?copy_from_value@?$big_any_policy@Uempty_any@anyimpl@cvflann@@@anyimpl@cvflann@@UEAAXPEBXPEAPEAX@Z 0000000180000000     fastHessianDetectorCore.obj
 0004:fff99000       $pdata$?copy_from_value@?$big_any_policy@Uempty_any@anyimpl@cvflann@@@anyimpl@cvflann@@UEAAXPEBXPEAPEAX@Z 0000000180000000     fastHessianDetectorCore.obj
 0002:fffb5000       $unwind$?clone@?$big_any_policy@Uempty_any@anyimpl@cvflann@@@anyimpl@cvflann@@UEAAXPEBQEAXPEAPEAX@Z 0000000180000000     fastHessianDetectorCore.obj
 0004:fff99000       $pdata$?clone@?$big_any_policy@Uempty_any@anyimpl@cvflann@@@anyimpl@cvflann@@UEAAXPEBQEAXPEAPEAX@Z 0000000180000000     fastHessianDetectorCore.obj
 0002:fffb5000       $unwind$?print@?$big_any_policy@Uempty_any@anyimpl@cvflann@@@anyimpl@cvflann@@UEAAXAEAV?$basic_ostream@DU?$char_traits@D@std@@@std@@PEBQEAX@Z 0000000180000000     fastHessianDetectorCore.obj
 0004:fff99000       $pdata$?print@?$big_any_policy@Uempty_any@anyimpl@cvflann@@@anyimpl@cvflann@@UEAAXAEAV?$basic_ostream@DU?$char_traits@D@std@@@std@@PEBQEAX@Z 0000000180000000     fastHessianDetectorCore.obj
 0002:fffb5000       $unwind$??0?$big_any_policy@Uempty_any@anyimpl@cvflann@@@anyimpl@cvflann@@QEAA@XZ 0000000180000000     fastHessianDetectorCore.obj
 0004:fff99000       $pdata$??0?$big_any_policy@Uempty_any@anyimpl@cvflann@@@anyimpl@cvflann@@QEAA@XZ 0000000180000000     fastHessianDetectorCore.obj
 0002:fffb5000       $unwind$??1?$big_any_policy@Uempty_any@anyimpl@cvflann@@@anyimpl@cvflann@@UEAA@XZ 0000000180000000     fastHessianDetectorCore.obj
 0004:fff99000       $pdata$??1?$big_any_policy@Uempty_any@anyimpl@cvflann@@@anyimpl@cvflann@@UEAA@XZ 0000000180000000     fastHessianDetectorCore.obj
 0002:fffb5000       $unwind$??_G?$big_any_policy@Uempty_any@anyimpl@cvflann@@@anyimpl@cvflann@@UEAAPEAXI@Z 0000000180000000     fastHessianDetectorCore.obj
 0004:fff99000       $pdata$??_G?$big_any_policy@Uempty_any@anyimpl@cvflann@@@anyimpl@cvflann@@UEAAPEAXI@Z 0000000180000000     fastHessianDetectorCore.obj
 0002:fffb5000       $unwind$??$?0VMWSURF@cv@@@?$Ptr@VMWSURF@cv@@@cv@@QEAA@PEAVMWSURF@1@@Z 0000000180000000     fastHessianDetectorCore.obj
 0004:fff99000       $pdata$??$?0VMWSURF@cv@@@?$Ptr@VMWSURF@cv@@@cv@@QEAA@PEAVMWSURF@1@@Z 0000000180000000     fastHessianDetectorCore.obj
 0002:fffb5000       $cppxdata$??$?0VMWSURF@cv@@@?$Ptr@VMWSURF@cv@@@cv@@QEAA@PEAVMWSURF@1@@Z 0000000180000000     fastHessianDetectorCore.obj
 0002:fffb5000       $stateUnwindMap$??$?0VMWSURF@cv@@@?$Ptr@VMWSURF@cv@@@cv@@QEAA@PEAVMWSURF@1@@Z 0000000180000000     fastHessianDetectorCore.obj
 0002:fffb5000       $ip2state$??$?0VMWSURF@cv@@@?$Ptr@VMWSURF@cv@@@cv@@QEAA@PEAVMWSURF@1@@Z 0000000180000000     fastHessianDetectorCore.obj
 0002:fffb5000       $unwind$?dtor$0@?0???$?0VMWSURF@cv@@@?$Ptr@VMWSURF@cv@@@cv@@QEAA@PEAVMWSURF@1@@Z@4HA 0000000180000000     fastHessianDetectorCore.obj
 0004:fff99000       $pdata$?dtor$0@?0???$?0VMWSURF@cv@@@?$Ptr@VMWSURF@cv@@@cv@@QEAA@PEAVMWSURF@1@@Z@4HA 0000000180000000     fastHessianDetectorCore.obj
 0002:fffb5000       $unwind$??1?$typed_base_any_policy@W4flann_centers_init_t@cvflann@@@anyimpl@cvflann@@UEAA@XZ 0000000180000000     cgCommon.obj
 0000:00000000       .debug$S                   0000000180000000     vcruntime:VCRUNTIME140.dll
 0004:fff99000       $pdata$??1?$typed_base_any_policy@W4flann_centers_init_t@cvflann@@@anyimpl@cvflann@@UEAA@XZ 0000000180000000     cgCommon.obj
 0000:00000000       .debug$S                   0000000180000000     vcruntime:VCRUNTIME140.dll
 0002:fffb5000       $unwind$??0?$typed_base_any_policy@PEBD@anyimpl@cvflann@@QEAA@XZ 0000000180000000     fastHessianDetectorCore.obj
 0004:fff99000       $pdata$??0?$typed_base_any_policy@PEBD@anyimpl@cvflann@@QEAA@XZ 0000000180000000     fastHessianDetectorCore.obj
 0002:fffb5000       $unwind$??1?$typed_base_any_policy@PEBD@anyimpl@cvflann@@UEAA@XZ 0000000180000000     fastHessianDetectorCore.obj
 0004:fff99000       $pdata$??1?$typed_base_any_policy@PEBD@anyimpl@cvflann@@UEAA@XZ 0000000180000000     fastHessianDetectorCore.obj
 0002:fffb5000       $unwind$??_G?$typed_base_any_policy@PEBD@anyimpl@cvflann@@UEAAPEAXI@Z 0000000180000000     fastHessianDetectorCore.obj
 0004:fff99000       $pdata$??_G?$typed_base_any_policy@PEBD@anyimpl@cvflann@@UEAAPEAXI@Z 0000000180000000     fastHessianDetectorCore.obj
 0002:fffb5000       $unwind$?copy_from_value@?$small_any_policy@PEBD@anyimpl@cvflann@@UEAAXPEBXPEAPEAX@Z 0000000180000000     fastHessianDetectorCore.obj
 0004:fff99000       $pdata$?copy_from_value@?$small_any_policy@PEBD@anyimpl@cvflann@@UEAAXPEBXPEAPEAX@Z 0000000180000000     fastHessianDetectorCore.obj
 0002:fffb5000       $unwind$?print@?$small_any_policy@PEBD@anyimpl@cvflann@@UEAAXAEAV?$basic_ostream@DU?$char_traits@D@std@@@std@@PEBQEAX@Z 0000000180000000     fastHessianDetectorCore.obj
 0004:fff99000       $pdata$?print@?$small_any_policy@PEBD@anyimpl@cvflann@@UEAAXAEAV?$basic_ostream@DU?$char_traits@D@std@@@std@@PEBQEAX@Z 0000000180000000     fastHessianDetectorCore.obj
 0002:fffb5000       $unwind$??0?$small_any_policy@PEBD@anyimpl@cvflann@@QEAA@XZ 0000000180000000     fastHessianDetectorCore.obj
 0004:fff99000       $pdata$??0?$small_any_policy@PEBD@anyimpl@cvflann@@QEAA@XZ 0000000180000000     fastHessianDetectorCore.obj
 0002:fffb5000       $unwind$??1?$small_any_policy@PEBD@anyimpl@cvflann@@UEAA@XZ 0000000180000000     fastHessianDetectorCore.obj
 0004:fff99000       $pdata$??1?$small_any_policy@PEBD@anyimpl@cvflann@@UEAA@XZ 0000000180000000     fastHessianDetectorCore.obj
 0002:fffb5000       $unwind$??_G?$small_any_policy@PEBD@anyimpl@cvflann@@UEAAPEAXI@Z 0000000180000000     fastHessianDetectorCore.obj
 0004:fff99000       $pdata$??_G?$small_any_policy@PEBD@anyimpl@cvflann@@UEAAPEAXI@Z 0000000180000000     fastHessianDetectorCore.obj
 0002:fffb5000       $unwind$??0?$PtrOwnerImpl@VMWSURF@cv@@U?$DefaultDeleter@VMWSURF@cv@@@2@@detail@cv@@QEAA@PEAVMWSURF@2@U?$DefaultDeleter@VMWSURF@cv@@@2@@Z 0000000180000000     fastHessianDetectorCore.obj
 0004:fff99000       $pdata$??0?$PtrOwnerImpl@VMWSURF@cv@@U?$DefaultDeleter@VMWSURF@cv@@@2@@detail@cv@@QEAA@PEAVMWSURF@2@U?$DefaultDeleter@VMWSURF@cv@@@2@@Z 0000000180000000     fastHessianDetectorCore.obj
 0002:fffb5000       $unwind$?deleteSelf@?$PtrOwnerImpl@VMWSURF@cv@@U?$DefaultDeleter@VMWSURF@cv@@@2@@detail@cv@@UEAAXXZ 0000000180000000     fastHessianDetectorCore.obj
 0004:fff99000       $pdata$?deleteSelf@?$PtrOwnerImpl@VMWSURF@cv@@U?$DefaultDeleter@VMWSURF@cv@@@2@@detail@cv@@UEAAXXZ 0000000180000000     fastHessianDetectorCore.obj
 0002:fffb5000       $unwind$??R?$DefaultDeleter@VMWSURF@cv@@@cv@@QEBAXPEAVMWSURF@1@@Z 0000000180000000     fastHessianDetectorCore.obj
 0004:fff99000       $pdata$??R?$DefaultDeleter@VMWSURF@cv@@@cv@@QEBAXPEAVMWSURF@1@@Z 0000000180000000     fastHessianDetectorCore.obj
 0002:fffb5000       $unwind$??1?$PtrOwnerImpl@VMWSURF@cv@@U?$DefaultDeleter@VMWSURF@cv@@@2@@detail@cv@@UEAA@XZ 0000000180000000     fastHessianDetectorCore.obj
 0004:fff99000       $pdata$??1?$PtrOwnerImpl@VMWSURF@cv@@U?$DefaultDeleter@VMWSURF@cv@@@2@@detail@cv@@UEAA@XZ 0000000180000000     fastHessianDetectorCore.obj
 0002:fffb5000       $unwind$??_G?$PtrOwnerImpl@VMWSURF@cv@@U?$DefaultDeleter@VMWSURF@cv@@@2@@detail@cv@@UEAAPEAXI@Z 0000000180000000     fastHessianDetectorCore.obj
 0004:fff99000       $pdata$??_G?$PtrOwnerImpl@VMWSURF@cv@@U?$DefaultDeleter@VMWSURF@cv@@@2@@detail@cv@@UEAAPEAXI@Z 0000000180000000     fastHessianDetectorCore.obj
 0002:fffb5000       $unwind$??_G?$typed_base_any_policy@W4flann_centers_init_t@cvflann@@@anyimpl@cvflann@@UEAAPEAXI@Z 0000000180000000     cgCommon.obj
 0000:00000000       .debug$S                   0000000180000000     vcruntime:VCRUNTIME140.dll
 0000:00000000       .debug$S                   0000000180000000     opencv_core340:opencv_core340.dll
 0000:00000000       .debug$S                   0000000180000000     vcruntime:VCRUNTIME140.dll
 0002:fffb5000       $unwind$??0?$typed_base_any_policy@H@anyimpl@cvflann@@QEAA@XZ 0000000180000000     fastHessianDetectorCore.obj
 0004:fff99000       $pdata$??0?$typed_base_any_policy@H@anyimpl@cvflann@@QEAA@XZ 0000000180000000     fastHessianDetectorCore.obj
 0002:fffb5000       $unwind$??1?$typed_base_any_policy@H@anyimpl@cvflann@@UEAA@XZ 0000000180000000     fastHessianDetectorCore.obj
 0004:fff99000       $pdata$??1?$typed_base_any_policy@H@anyimpl@cvflann@@UEAA@XZ 0000000180000000     fastHessianDetectorCore.obj
 0002:fffb5000       $unwind$??_G?$typed_base_any_policy@H@anyimpl@cvflann@@UEAAPEAXI@Z 0000000180000000     fastHessianDetectorCore.obj
 0004:fff99000       $pdata$??_G?$typed_base_any_policy@H@anyimpl@cvflann@@UEAAPEAXI@Z 0000000180000000     fastHessianDetectorCore.obj
 0002:fffb5000       $unwind$?copy_from_value@?$small_any_policy@H@anyimpl@cvflann@@UEAAXPEBXPEAPEAX@Z 0000000180000000     fastHessianDetectorCore.obj
 0004:fff99000       $pdata$?copy_from_value@?$small_any_policy@H@anyimpl@cvflann@@UEAAXPEBXPEAPEAX@Z 0000000180000000     fastHessianDetectorCore.obj
 0002:fffb5000       $unwind$?print@?$small_any_policy@H@anyimpl@cvflann@@UEAAXAEAV?$basic_ostream@DU?$char_traits@D@std@@@std@@PEBQEAX@Z 0000000180000000     fastHessianDetectorCore.obj
 0004:fff99000       $pdata$?print@?$small_any_policy@H@anyimpl@cvflann@@UEAAXAEAV?$basic_ostream@DU?$char_traits@D@std@@@std@@PEBQEAX@Z 0000000180000000     fastHessianDetectorCore.obj
 0002:fffb5000       $unwind$??0?$small_any_policy@H@anyimpl@cvflann@@QEAA@XZ 0000000180000000     fastHessianDetectorCore.obj
 0004:fff99000       $pdata$??0?$small_any_policy@H@anyimpl@cvflann@@QEAA@XZ 0000000180000000     fastHessianDetectorCore.obj
 0002:fffb5000       $unwind$??1?$small_any_policy@H@anyimpl@cvflann@@UEAA@XZ 0000000180000000     fastHessianDetectorCore.obj
 0004:fff99000       $pdata$??1?$small_any_policy@H@anyimpl@cvflann@@UEAA@XZ 0000000180000000     fastHessianDetectorCore.obj
 0002:fffb5000       $unwind$??_G?$small_any_policy@H@anyimpl@cvflann@@UEAAPEAXI@Z 0000000180000000     fastHessianDetectorCore.obj
 0004:fff99000       $pdata$??_G?$small_any_policy@H@anyimpl@cvflann@@UEAAPEAXI@Z 0000000180000000     fastHessianDetectorCore.obj
 0002:fffb5000       $unwind$??0?$typed_base_any_policy@M@anyimpl@cvflann@@QEAA@XZ 0000000180000000     fastHessianDetectorCore.obj
 0004:fff99000       $pdata$??0?$typed_base_any_policy@M@anyimpl@cvflann@@QEAA@XZ 0000000180000000     fastHessianDetectorCore.obj
 0002:fffb5000       $unwind$??1?$typed_base_any_policy@M@anyimpl@cvflann@@UEAA@XZ 0000000180000000     fastHessianDetectorCore.obj
 0004:fff99000       $pdata$??1?$typed_base_any_policy@M@anyimpl@cvflann@@UEAA@XZ 0000000180000000     fastHessianDetectorCore.obj
 0002:fffb5000       $unwind$??_G?$typed_base_any_policy@M@anyimpl@cvflann@@UEAAPEAXI@Z 0000000180000000     fastHessianDetectorCore.obj
 0004:fff99000       $pdata$??_G?$typed_base_any_policy@M@anyimpl@cvflann@@UEAAPEAXI@Z 0000000180000000     fastHessianDetectorCore.obj
 0002:fffb5000       $unwind$?copy_from_value@?$small_any_policy@M@anyimpl@cvflann@@UEAAXPEBXPEAPEAX@Z 0000000180000000     fastHessianDetectorCore.obj
 0004:fff99000       $pdata$?copy_from_value@?$small_any_policy@M@anyimpl@cvflann@@UEAAXPEBXPEAPEAX@Z 0000000180000000     fastHessianDetectorCore.obj
 0002:fffb5000       $unwind$?print@?$small_any_policy@M@anyimpl@cvflann@@UEAAXAEAV?$basic_ostream@DU?$char_traits@D@std@@@std@@PEBQEAX@Z 0000000180000000     fastHessianDetectorCore.obj
 0004:fff99000       $pdata$?print@?$small_any_policy@M@anyimpl@cvflann@@UEAAXAEAV?$basic_ostream@DU?$char_traits@D@std@@@std@@PEBQEAX@Z 0000000180000000     fastHessianDetectorCore.obj
 0002:fffb5000       $unwind$??0?$small_any_policy@M@anyimpl@cvflann@@QEAA@XZ 0000000180000000     fastHessianDetectorCore.obj
 0004:fff99000       $pdata$??0?$small_any_policy@M@anyimpl@cvflann@@QEAA@XZ 0000000180000000     fastHessianDetectorCore.obj
 0002:fffb5000       $unwind$??1?$small_any_policy@M@anyimpl@cvflann@@UEAA@XZ 0000000180000000     fastHessianDetectorCore.obj
 0004:fff99000       $pdata$??1?$small_any_policy@M@anyimpl@cvflann@@UEAA@XZ 0000000180000000     fastHessianDetectorCore.obj
 0002:fffb5000       $unwind$??_G?$small_any_policy@M@anyimpl@cvflann@@UEAAPEAXI@Z 0000000180000000     fastHessianDetectorCore.obj
 0004:fff99000       $pdata$??_G?$small_any_policy@M@anyimpl@cvflann@@UEAAPEAXI@Z 0000000180000000     fastHessianDetectorCore.obj
 0002:fffb5000       $unwind$??0?$typed_base_any_policy@_N@anyimpl@cvflann@@QEAA@XZ 0000000180000000     fastHessianDetectorCore.obj
 0004:fff99000       $pdata$??0?$typed_base_any_policy@_N@anyimpl@cvflann@@QEAA@XZ 0000000180000000     fastHessianDetectorCore.obj
 0002:fffb5000       $unwind$??1?$typed_base_any_policy@_N@anyimpl@cvflann@@UEAA@XZ 0000000180000000     fastHessianDetectorCore.obj
 0004:fff99000       $pdata$??1?$typed_base_any_policy@_N@anyimpl@cvflann@@UEAA@XZ 0000000180000000     fastHessianDetectorCore.obj
 0002:fffb5000       $unwind$??_G?$typed_base_any_policy@_N@anyimpl@cvflann@@UEAAPEAXI@Z 0000000180000000     fastHessianDetectorCore.obj
 0004:fff99000       $pdata$??_G?$typed_base_any_policy@_N@anyimpl@cvflann@@UEAAPEAXI@Z 0000000180000000     fastHessianDetectorCore.obj
 0002:fffb5000       $unwind$?copy_from_value@?$small_any_policy@_N@anyimpl@cvflann@@UEAAXPEBXPEAPEAX@Z 0000000180000000     fastHessianDetectorCore.obj
 0004:fff99000       $pdata$?copy_from_value@?$small_any_policy@_N@anyimpl@cvflann@@UEAAXPEBXPEAPEAX@Z 0000000180000000     fastHessianDetectorCore.obj
 0002:fffb5000       $unwind$?print@?$small_any_policy@_N@anyimpl@cvflann@@UEAAXAEAV?$basic_ostream@DU?$char_traits@D@std@@@std@@PEBQEAX@Z 0000000180000000     fastHessianDetectorCore.obj
 0004:fff99000       $pdata$?print@?$small_any_policy@_N@anyimpl@cvflann@@UEAAXAEAV?$basic_ostream@DU?$char_traits@D@std@@@std@@PEBQEAX@Z 0000000180000000     fastHessianDetectorCore.obj
 0002:fffb5000       $unwind$??0?$small_any_policy@_N@anyimpl@cvflann@@QEAA@XZ 0000000180000000     fastHessianDetectorCore.obj
 0004:fff99000       $pdata$??0?$small_any_policy@_N@anyimpl@cvflann@@QEAA@XZ 0000000180000000     fastHessianDetectorCore.obj
 0002:fffb5000       $unwind$??1?$small_any_policy@_N@anyimpl@cvflann@@UEAA@XZ 0000000180000000     fastHessianDetectorCore.obj
 0004:fff99000       $pdata$??1?$small_any_policy@_N@anyimpl@cvflann@@UEAA@XZ 0000000180000000     fastHessianDetectorCore.obj
 0002:fffb5000       $unwind$??_G?$small_any_policy@_N@anyimpl@cvflann@@UEAAPEAXI@Z 0000000180000000     fastHessianDetectorCore.obj
 0004:fff99000       $pdata$??_G?$small_any_policy@_N@anyimpl@cvflann@@UEAAPEAXI@Z 0000000180000000     fastHessianDetectorCore.obj
 0002:fffb5000       $unwind$??0?$typed_base_any_policy@I@anyimpl@cvflann@@QEAA@XZ 0000000180000000     fastHessianDetectorCore.obj
 0004:fff99000       $pdata$??0?$typed_base_any_policy@I@anyimpl@cvflann@@QEAA@XZ 0000000180000000     fastHessianDetectorCore.obj
 0002:fffb5000       $unwind$??1?$typed_base_any_policy@I@anyimpl@cvflann@@UEAA@XZ 0000000180000000     fastHessianDetectorCore.obj
 0004:fff99000       $pdata$??1?$typed_base_any_policy@I@anyimpl@cvflann@@UEAA@XZ 0000000180000000     fastHessianDetectorCore.obj
 0002:fffb5000       $unwind$??_G?$typed_base_any_policy@I@anyimpl@cvflann@@UEAAPEAXI@Z 0000000180000000     fastHessianDetectorCore.obj
 0004:fff99000       $pdata$??_G?$typed_base_any_policy@I@anyimpl@cvflann@@UEAAPEAXI@Z 0000000180000000     fastHessianDetectorCore.obj
 0002:fffb5000       $unwind$?copy_from_value@?$small_any_policy@I@anyimpl@cvflann@@UEAAXPEBXPEAPEAX@Z 0000000180000000     fastHessianDetectorCore.obj
 0004:fff99000       $pdata$?copy_from_value@?$small_any_policy@I@anyimpl@cvflann@@UEAAXPEBXPEAPEAX@Z 0000000180000000     fastHessianDetectorCore.obj
 0002:fffb5000       $unwind$?print@?$small_any_policy@I@anyimpl@cvflann@@UEAAXAEAV?$basic_ostream@DU?$char_traits@D@std@@@std@@PEBQEAX@Z 0000000180000000     fastHessianDetectorCore.obj
 0004:fff99000       $pdata$?print@?$small_any_policy@I@anyimpl@cvflann@@UEAAXAEAV?$basic_ostream@DU?$char_traits@D@std@@@std@@PEBQEAX@Z 0000000180000000     fastHessianDetectorCore.obj
 0002:fffb5000       $unwind$??0?$small_any_policy@I@anyimpl@cvflann@@QEAA@XZ 0000000180000000     fastHessianDetectorCore.obj
 0004:fff99000       $pdata$??0?$small_any_policy@I@anyimpl@cvflann@@QEAA@XZ 0000000180000000     fastHessianDetectorCore.obj
 0002:fffb5000       $unwind$??1?$small_any_policy@I@anyimpl@cvflann@@UEAA@XZ 0000000180000000     fastHessianDetectorCore.obj
 0004:fff99000       $pdata$??1?$small_any_policy@I@anyimpl@cvflann@@UEAA@XZ 0000000180000000     fastHessianDetectorCore.obj
 0002:fffb5000       $unwind$??_G?$small_any_policy@I@anyimpl@cvflann@@UEAAPEAXI@Z 0000000180000000     fastHessianDetectorCore.obj
 0004:fff99000       $pdata$??_G?$small_any_policy@I@anyimpl@cvflann@@UEAAPEAXI@Z 0000000180000000     fastHessianDetectorCore.obj
 0004:fff99000       $pdata$??_G?$typed_base_any_policy@W4flann_centers_init_t@cvflann@@@anyimpl@cvflann@@UEAAPEAXI@Z 0000000180000000     cgCommon.obj
 0000:00000000       .debug$S                   0000000180000000     vcruntime:VCRUNTIME140.dll
 0000:00000000       .debug$S                   0000000180000000     opencv_core340:opencv_core340.dll
 0000:00000000       .debug$S                   0000000180000000     vcruntime:VCRUNTIME140.dll
 0002:fffb5000       $unwind$?static_delete@?$big_any_policy@W4flann_centers_init_t@cvflann@@@anyimpl@cvflann@@UEAAXPEAPEAX@Z 0000000180000000     cgCommon.obj
 0000:00000000       .debug$S                   0000000180000000     vcruntime:VCRUNTIME140.dll
 0000:00000000       .debug$S                   0000000180000000     opencv_core340:opencv_core340.dll
 0000:00000000       .debug$S                   0000000180000000     vcruntime:VCRUNTIME140.dll
 0004:fff99000       $pdata$?static_delete@?$big_any_policy@W4flann_centers_init_t@cvflann@@@anyimpl@cvflann@@UEAAXPEAPEAX@Z 0000000180000000     cgCommon.obj
 0000:00000000       .debug$S                   0000000180000000     vcruntime:VCRUNTIME140.dll
 0000:00000000       .debug$S                   0000000180000000     opencv_core340:opencv_core340.dll
 0000:00000000       .debug$S                   0000000180000000     kernel32:KERNEL32.dll
 0002:fffb5000       $unwind$?copy_from_value@?$big_any_policy@W4flann_centers_init_t@cvflann@@@anyimpl@cvflann@@UEAAXPEBXPEAPEAX@Z 0000000180000000     cgCommon.obj
 0000:00000000       .debug$S                   0000000180000000     kernel32:KERNEL32.dll
 0000:00000000       .debug$S                   0000000180000000     opencv_core340:opencv_core340.dll
 0000:00000000       .debug$S                   0000000180000000     kernel32:KERNEL32.dll
 0004:fff99000       $pdata$?copy_from_value@?$big_any_policy@W4flann_centers_init_t@cvflann@@@anyimpl@cvflann@@UEAAXPEBXPEAPEAX@Z 0000000180000000     cgCommon.obj
 0000:00000000       .debug$S                   0000000180000000     kernel32:KERNEL32.dll
 0000:00000000       .debug$S                   0000000180000000     opencv_core340:opencv_core340.dll
 0000:00000000       .debug$S                   0000000180000000     kernel32:KERNEL32.dll
 0002:fffb5000       $unwind$?clone@?$big_any_policy@W4flann_centers_init_t@cvflann@@@anyimpl@cvflann@@UEAAXPEBQEAXPEAPEAX@Z 0000000180000000     cgCommon.obj
 0000:00000000       .debug$S                   0000000180000000     kernel32:KERNEL32.dll
 0000:00000000       .debug$S                   0000000180000000     opencv_core340:opencv_core340.dll
 0000:00000000       .debug$S                   0000000180000000     kernel32:KERNEL32.dll
 0004:fff99000       $pdata$?clone@?$big_any_policy@W4flann_centers_init_t@cvflann@@@anyimpl@cvflann@@UEAAXPEBQEAXPEAPEAX@Z 0000000180000000     cgCommon.obj
 0000:00000000       .debug$S                   0000000180000000     kernel32:KERNEL32.dll
 0000:00000000       .debug$S                   0000000180000000     opencv_core340:opencv_core340.dll
 0000:00000000       .debug$S                   0000000180000000     kernel32:KERNEL32.dll
 0002:fffb5000       ??policy$initializer$@?$SinglePolicy@Uempty_any@anyimpl@cvflann@@@anyimpl@cvflann@@0P6AXXZEA@@3P6AXXZEA 0000000180000000     fastHessianDetectorCore.obj
 0002:fffb5000       ??policy$initializer$@?$SinglePolicy@PEBD@anyimpl@cvflann@@0P6AXXZEA@@3P6AXXZEA 0000000180000000     fastHessianDetectorCore.obj
 0002:fffb5000       ??policy$initializer$@?$SinglePolicy@H@anyimpl@cvflann@@0P6AXXZEA@@3P6AXXZEA 0000000180000000     fastHessianDetectorCore.obj
 0002:fffb5000       ??policy$initializer$@?$SinglePolicy@M@anyimpl@cvflann@@0P6AXXZEA@@3P6AXXZEA 0000000180000000     fastHessianDetectorCore.obj
 0002:fffb5000       ??policy$initializer$@?$SinglePolicy@_N@anyimpl@cvflann@@0P6AXXZEA@@3P6AXXZEA 0000000180000000     fastHessianDetectorCore.obj
 0002:fffb5000       ??policy$initializer$@?$SinglePolicy@W4flann_algorithm_t@cvflann@@@anyimpl@cvflann@@0P6AXXZEA@@3P6AXXZEA 0000000180000000     fastHessianDetectorCore.obj
 0002:fffb5000       ??policy$initializer$@?$SinglePolicy@W4flann_centers_init_t@cvflann@@@anyimpl@cvflann@@0P6AXXZEA@@3P6AXXZEA 0000000180000000     fastHessianDetectorCore.obj
 0002:fffb5000       ??policy$initializer$@?$SinglePolicy@I@anyimpl@cvflann@@0P6AXXZEA@@3P6AXXZEA 0000000180000000     fastHessianDetectorCore.obj
 0002:fffb5000       ??policy$initializer$@?$SinglePolicy@VString@cv@@@anyimpl@cvflann@@0P6AXXZEA@@3P6AXXZEA 0000000180000000     fastHessianDetectorCore.obj
 0002:fffb5000       $unwind$?print@?$big_any_policy@W4flann_centers_init_t@cvflann@@@anyimpl@cvflann@@UEAAXAEAV?$basic_ostream@DU?$char_traits@D@std@@@std@@PEBQEAX@Z 0000000180000000     cgCommon.obj
 0000:00000000       .debug$S                   0000000180000000     opencv_core340:opencv_core340.dll
 0004:fff99000       $pdata$?print@?$big_any_policy@W4flann_centers_init_t@cvflann@@@anyimpl@cvflann@@UEAAXAEAV?$basic_ostream@DU?$char_traits@D@std@@@std@@PEBQEAX@Z 0000000180000000     cgCommon.obj
 0000:00000000       .debug$S                   0000000180000000     opencv_core340:opencv_core340.dll
 0002:fffb5000       $unwind$??0?$big_any_policy@W4flann_centers_init_t@cvflann@@@anyimpl@cvflann@@QEAA@XZ 0000000180000000     cgCommon.obj
 0000:00000000       .debug$S                   0000000180000000     opencv_core340:opencv_core340.dll
 0004:fff99000       $pdata$??0?$big_any_policy@W4flann_centers_init_t@cvflann@@@anyimpl@cvflann@@QEAA@XZ 0000000180000000     cgCommon.obj
 0000:00000000       .debug$S                   0000000180000000     opencv_core340:opencv_core340.dll
 0002:fffb5000       $unwind$??1?$big_any_policy@W4flann_centers_init_t@cvflann@@@anyimpl@cvflann@@UEAA@XZ 0000000180000000     cgCommon.obj
 0000:00000000       .debug$S                   0000000180000000     opencv_core340:opencv_core340.dll
 0004:fff99000       $pdata$??1?$big_any_policy@W4flann_centers_init_t@cvflann@@@anyimpl@cvflann@@UEAA@XZ 0000000180000000     cgCommon.obj
 0000:00000000       .debug$S                   0000000180000000     opencv_core340:opencv_core340.dll
 0002:fffb5000       $unwind$??_G?$big_any_policy@W4flann_centers_init_t@cvflann@@@anyimpl@cvflann@@UEAAPEAXI@Z 0000000180000000     cgCommon.obj
 0000:00000000       .debug$S                   0000000180000000     opencv_core340:opencv_core340.dll
 0004:fff99000       $pdata$??_G?$big_any_policy@W4flann_centers_init_t@cvflann@@@anyimpl@cvflann@@UEAAPEAXI@Z 0000000180000000     cgCommon.obj
 0000:00000000       .debug$S                   0000000180000000     opencv_core340:opencv_core340.dll
 0002:fffb5000       $unwind$??0?$typed_base_any_policy@W4flann_algorithm_t@cvflann@@@anyimpl@cvflann@@QEAA@XZ 0000000180000000     cgCommon.obj
 0000:00000000       .debug$S                   0000000180000000     opencv_core340:opencv_core340.dll
 0004:fff99000       $pdata$??0?$typed_base_any_policy@W4flann_algorithm_t@cvflann@@@anyimpl@cvflann@@QEAA@XZ 0000000180000000     cgCommon.obj
 0000:00000000       .debug$S                   0000000180000000     opencv_imgproc340:opencv_imgproc340.dll
 0002:fffb5000       $unwind$??1?$typed_base_any_policy@W4flann_algorithm_t@cvflann@@@anyimpl@cvflann@@UEAA@XZ 0000000180000000     cgCommon.obj
 0000:00000000       .debug$S                   0000000180000000     opencv_imgproc340:opencv_imgproc340.dll
 0004:fff99000       $pdata$??1?$typed_base_any_policy@W4flann_algorithm_t@cvflann@@@anyimpl@cvflann@@UEAA@XZ 0000000180000000     cgCommon.obj
 0000:00000000       .debug$S                   0000000180000000     opencv_imgproc340:opencv_imgproc340.dll
 0002:fffb5000       $unwind$??_G?$typed_base_any_policy@W4flann_algorithm_t@cvflann@@@anyimpl@cvflann@@UEAAPEAXI@Z 0000000180000000     cgCommon.obj
 0000:00000000       .debug$S                   0000000180000000     opencv_imgproc340:opencv_imgproc340.dll
 0004:fff99000       $pdata$??_G?$typed_base_any_policy@W4flann_algorithm_t@cvflann@@@anyimpl@cvflann@@UEAAPEAXI@Z 0000000180000000     cgCommon.obj
 0000:00000000       .debug$S                   0000000180000000     opencv_features2d340:opencv_features2d340.dll
 0002:fffb5000       $unwind$?static_delete@?$big_any_policy@W4flann_algorithm_t@cvflann@@@anyimpl@cvflann@@UEAAXPEAPEAX@Z 0000000180000000     cgCommon.obj
 0000:00000000       .debug$S                   0000000180000000     opencv_features2d340:opencv_features2d340.dll
 0004:fff99000       $pdata$?static_delete@?$big_any_policy@W4flann_algorithm_t@cvflann@@@anyimpl@cvflann@@UEAAXPEAPEAX@Z 0000000180000000     cgCommon.obj
 0000:00000000       .debug$S                   0000000180000000     opencv_features2d340:opencv_features2d340.dll
 0002:fffb5000       $unwind$?copy_from_value@?$big_any_policy@W4flann_algorithm_t@cvflann@@@anyimpl@cvflann@@UEAAXPEBXPEAPEAX@Z 0000000180000000     cgCommon.obj
 0000:00000000       .debug$S                   0000000180000000     opencv_features2d340:opencv_features2d340.dll
 0004:fff99000       $pdata$?copy_from_value@?$big_any_policy@W4flann_algorithm_t@cvflann@@@anyimpl@cvflann@@UEAAXPEBXPEAPEAX@Z 0000000180000000     cgCommon.obj
 0000:00000000       .debug$S                   0000000180000000     opencv_features2d340:opencv_features2d340.dll
 0002:fffb5000       $unwind$?clone@?$big_any_policy@W4flann_algorithm_t@cvflann@@@anyimpl@cvflann@@UEAAXPEBQEAXPEAPEAX@Z 0000000180000000     cgCommon.obj
 0000:00000000       .debug$S                   0000000180000000     opencv_features2d340:opencv_features2d340.dll
 0004:fff99000       $pdata$?clone@?$big_any_policy@W4flann_algorithm_t@cvflann@@@anyimpl@cvflann@@UEAAXPEBQEAXPEAPEAX@Z 0000000180000000     cgCommon.obj
 0000:00000000       .debug$S                   0000000180000000     opencv_features2d340:opencv_features2d340.dll
 0002:fffb5000       $unwind$?print@?$big_any_policy@W4flann_algorithm_t@cvflann@@@anyimpl@cvflann@@UEAAXAEAV?$basic_ostream@DU?$char_traits@D@std@@@std@@PEBQEAX@Z 0000000180000000     cgCommon.obj
 0000:00000000       .debug$S                   0000000180000000     opencv_features2d340:opencv_features2d340.dll
 0004:fff99000       $pdata$?print@?$big_any_policy@W4flann_algorithm_t@cvflann@@@anyimpl@cvflann@@UEAAXAEAV?$basic_ostream@DU?$char_traits@D@std@@@std@@PEBQEAX@Z 0000000180000000     cgCommon.obj
 0000:00000000       .debug$S                   0000000180000000     opencv_features2d340:opencv_features2d340.dll
 0002:fffb5000       $unwind$??0?$big_any_policy@W4flann_algorithm_t@cvflann@@@anyimpl@cvflann@@QEAA@XZ 0000000180000000     cgCommon.obj
 0000:00000000       .debug$S                   0000000180000000     opencv_features2d340:opencv_features2d340.dll
 0004:fff99000       $pdata$??0?$big_any_policy@W4flann_algorithm_t@cvflann@@@anyimpl@cvflann@@QEAA@XZ 0000000180000000     cgCommon.obj
 0000:00000000       .debug$S                   0000000180000000     opencv_features2d340:opencv_features2d340.dll
 0002:fffb5000       $unwind$??1?$big_any_policy@W4flann_algorithm_t@cvflann@@@anyimpl@cvflann@@UEAA@XZ 0000000180000000     cgCommon.obj
 0000:00000000       .debug$S                   0000000180000000     opencv_features2d340:opencv_features2d340.dll
 0004:fff99000       $pdata$??1?$big_any_policy@W4flann_algorithm_t@cvflann@@@anyimpl@cvflann@@UEAA@XZ 0000000180000000     cgCommon.obj
 0000:00000000       .debug$S                   0000000180000000     opencv_features2d340:opencv_features2d340.dll
 0002:fffb5000       $unwind$??_G?$big_any_policy@W4flann_algorithm_t@cvflann@@@anyimpl@cvflann@@UEAAPEAXI@Z 0000000180000000     cgCommon.obj
 0004:fff99000       $pdata$??_G?$big_any_policy@W4flann_algorithm_t@cvflann@@@anyimpl@cvflann@@UEAAPEAXI@Z 0000000180000000     cgCommon.obj
 0002:fffb5000       $unwind$??0?$typed_base_any_policy@VString@cv@@@anyimpl@cvflann@@QEAA@XZ 0000000180000000     cgCommon.obj
 0000:00000000       .debug$S                   0000000180000000     sf_runtime:sf_runtime.dll
 0004:fff99000       $pdata$??0?$typed_base_any_policy@VString@cv@@@anyimpl@cvflann@@QEAA@XZ 0000000180000000     cgCommon.obj
 0002:fffb5000       $unwind$??1?$typed_base_any_policy@VString@cv@@@anyimpl@cvflann@@UEAA@XZ 0000000180000000     cgCommon.obj
 0001:fffff000       ?catch$0@?0???$_Uninitialized_copy_al_unchecked@PEAVKeyPoint@cv@@PEAV12@V?$allocator@VKeyPoint@cv@@@std@@@std@@YAPEAVKeyPoint@cv@@PEAV12@00AEAU?$_Wrap_alloc@V?$allocator@VKeyPoint@cv@@@std@@@0@U_General_ptr_iterator_tag@0@U_Any_tag@0@@Z@4HA 0000000180000000 f   mwsurf.obj
 0004:fff99000       $pdata$??1?$typed_base_any_policy@VString@cv@@@anyimpl@cvflann@@UEAA@XZ 0000000180000000     cgCommon.obj
 0000:00000000       .debug$S                   0000000180000000     sf_runtime:sf_runtime.dll
 0002:fffb5000       $unwind$??_G?$typed_base_any_policy@VString@cv@@@anyimpl@cvflann@@UEAAPEAXI@Z 0000000180000000     cgCommon.obj
 0001:fffff000       ?catch$0@?0???$emplace_back@AEBVKeyPoint@cv@@@?$vector@VKeyPoint@cv@@V?$allocator@VKeyPoint@cv@@@std@@@std@@QEAAXAEBVKeyPoint@cv@@@Z@4HA 0000000180000000 f   mwsurf.obj
 0000:00000000       .debug$S                   0000000180000000     sf_runtime:sf_runtime.dll
 0004:fff99000       $pdata$??_G?$typed_base_any_policy@VString@cv@@@anyimpl@cvflann@@UEAAPEAXI@Z 0000000180000000     cgCommon.obj
 0000:00000000       .debug$S                   0000000180000000     sf_runtime:sf_runtime.dll
 0002:fffb5000       $unwind$?static_delete@?$big_any_policy@VString@cv@@@anyimpl@cvflann@@UEAAXPEAPEAX@Z 0000000180000000     cgCommon.obj
 0000:00000000       .debug$S                   0000000180000000     sf_runtime:sf_runtime.dll
 0004:fff99000       $pdata$?static_delete@?$big_any_policy@VString@cv@@@anyimpl@cvflann@@UEAAXPEAPEAX@Z 0000000180000000     cgCommon.obj
 0000:00000000       .debug$S                   0000000180000000     sf_runtime:sf_runtime.dll
 0002:fffb5000       $unwind$?copy_from_value@?$big_any_policy@VString@cv@@@anyimpl@cvflann@@UEAAXPEBXPEAPEAX@Z 0000000180000000     cgCommon.obj
 0001:fffff000       ?dtor$0@?0???$construct@VKeyPoint@cv@@AEAV12@@?$allocator@VKeyPoint@cv@@@std@@QEAAXPEAVKeyPoint@cv@@AEAV23@@Z@4HA 0000000180000000 f   mwsurf.obj
 0001:fffff000       ?dtor$0@?0???$construct@VKeyPoint@cv@@AEBV12@@?$allocator@VKeyPoint@cv@@@std@@QEAAXPEAVKeyPoint@cv@@AEBV23@@Z@4HA 0000000180000000 f   mwsurf.obj
 0000:00000000       .debug$S                   0000000180000000     sf_runtime:sf_runtime.dll
 0004:fff99000       $pdata$?copy_from_value@?$big_any_policy@VString@cv@@@anyimpl@cvflann@@UEAAXPEBXPEAPEAX@Z 0000000180000000     cgCommon.obj
 0000:00000000       .debug$S                   0000000180000000     sf_runtime:sf_runtime.dll
 0002:fffb5000       $cppxdata$?copy_from_value@?$big_any_policy@VString@cv@@@anyimpl@cvflann@@UEAAXPEBXPEAPEAX@Z 0000000180000000     cgCommon.obj
 0000:00000000       .debug$S                   0000000180000000     sf_runtime:sf_runtime.dll
 0001:fffff000       ?dtor$0@?0???0Mat@cv@@QEAA@HHHPEAX_K@Z@4HA 0000000180000000 f   mwsurf.obj
 0002:fffb5000       $stateUnwindMap$?copy_from_value@?$big_any_policy@VString@cv@@@anyimpl@cvflann@@UEAAXPEBXPEAPEAX@Z 0000000180000000     cgCommon.obj
 0000:00000000       .debug$S                   0000000180000000     sf_runtime:sf_runtime.dll
 0002:fffb5000       $ip2state$?copy_from_value@?$big_any_policy@VString@cv@@@anyimpl@cvflann@@UEAAXPEBXPEAPEAX@Z 0000000180000000     cgCommon.obj
 0000:00000000       .debug$S                   0000000180000000     sf_runtime:sf_runtime.dll
 0002:fffb5000       $unwind$?dtor$0@?0??copy_from_value@?$big_any_policy@VString@cv@@@anyimpl@cvflann@@UEAAXPEBXPEAPEAX@Z@4HA 0000000180000000     cgCommon.obj
 0000:00000000       .debug$S                   0000000180000000     sf_runtime:sf_runtime.dll
 0004:fff99000       $pdata$?dtor$0@?0??copy_from_value@?$big_any_policy@VString@cv@@@anyimpl@cvflann@@UEAAXPEBXPEAPEAX@Z@4HA 0000000180000000     cgCommon.obj
 0000:00000000       .debug$S                   0000000180000000     sf_runtime:sf_runtime.dll
 0002:fffb5000       $unwind$?clone@?$big_any_policy@VString@cv@@@anyimpl@cvflann@@UEAAXPEBQEAXPEAPEAX@Z 0000000180000000     cgCommon.obj
 0000:00000000       .debug$S                   0000000180000000     sf_runtime:sf_runtime.dll
 0004:fff99000       $pdata$?clone@?$big_any_policy@VString@cv@@@anyimpl@cvflann@@UEAAXPEBQEAXPEAPEAX@Z 0000000180000000     cgCommon.obj
 0000:00000000       .debug$S                   0000000180000000     sf_runtime:sf_runtime.dll
 0002:fffb5000       $cppxdata$?clone@?$big_any_policy@VString@cv@@@anyimpl@cvflann@@UEAAXPEBQEAXPEAPEAX@Z 0000000180000000     cgCommon.obj
 0000:00000000       .debug$S                   0000000180000000     sf_runtime:sf_runtime.dll
 0002:fffb5000       $stateUnwindMap$?clone@?$big_any_policy@VString@cv@@@anyimpl@cvflann@@UEAAXPEBQEAXPEAPEAX@Z 0000000180000000     cgCommon.obj
 0000:00000000       .debug$S                   0000000180000000     sf_runtime:sf_runtime.dll
 0002:fffb5000       $ip2state$?clone@?$big_any_policy@VString@cv@@@anyimpl@cvflann@@UEAAXPEBQEAXPEAPEAX@Z 0000000180000000     cgCommon.obj
 0000:00000000       .debug$S                   0000000180000000     sf_runtime:sf_runtime.dll
 0002:fffb5000       $unwind$?dtor$0@?0??clone@?$big_any_policy@VString@cv@@@anyimpl@cvflann@@UEAAXPEBQEAXPEAPEAX@Z@4HA 0000000180000000     cgCommon.obj
 0000:00000000       .debug$S                   0000000180000000     sf_runtime:sf_runtime.dll
 0004:fff99000       $pdata$?dtor$0@?0??clone@?$big_any_policy@VString@cv@@@anyimpl@cvflann@@UEAAXPEBQEAXPEAPEAX@Z@4HA 0000000180000000     cgCommon.obj
 0000:00000000       .debug$S                   0000000180000000     sf_runtime:sf_runtime.dll
 0002:fffb5000       $unwind$?move@?$big_any_policy@VString@cv@@@anyimpl@cvflann@@UEAAXPEBQEAXPEAPEAX@Z 0000000180000000     cgCommon.obj
 0000:00000000       .debug$S                   0000000180000000     sf_runtime:sf_runtime.dll
 0004:fff99000       $pdata$?move@?$big_any_policy@VString@cv@@@anyimpl@cvflann@@UEAAXPEBQEAXPEAPEAX@Z 0000000180000000     cgCommon.obj
 0000:00000000       .debug$S                   0000000180000000     sf_runtime:sf_runtime.dll
 0002:fffb5000       $unwind$?print@?$big_any_policy@VString@cv@@@anyimpl@cvflann@@UEAAXAEAV?$basic_ostream@DU?$char_traits@D@std@@@std@@PEBQEAX@Z 0000000180000000     cgCommon.obj
 0000:00000000       .debug$S                   0000000180000000     sf_runtime:sf_runtime.dll
 0004:fff99000       $pdata$?print@?$big_any_policy@VString@cv@@@anyimpl@cvflann@@UEAAXAEAV?$basic_ostream@DU?$char_traits@D@std@@@std@@PEBQEAX@Z 0000000180000000     cgCommon.obj
 0000:00000000       .debug$S                   0000000180000000     sf_runtime:sf_runtime.dll
 0002:fffb5000       $unwind$??0?$big_any_policy@VString@cv@@@anyimpl@cvflann@@QEAA@XZ 0000000180000000     cgCommon.obj
 0000:00000000       .debug$S                   0000000180000000     sf_runtime:sf_runtime.dll
 0004:fff99000       $pdata$??0?$big_any_policy@VString@cv@@@anyimpl@cvflann@@QEAA@XZ 0000000180000000     cgCommon.obj
 0000:00000000       .debug$S                   0000000180000000     sf_runtime:sf_runtime.dll
 0002:fffb5000       $unwind$??1?$big_any_policy@VString@cv@@@anyimpl@cvflann@@UEAA@XZ 0000000180000000     cgCommon.obj
 0000:00000000       .debug$S                   0000000180000000     sf_runtime:sf_runtime.dll
 0004:fff99000       $pdata$??1?$big_any_policy@VString@cv@@@anyimpl@cvflann@@UEAA@XZ 0000000180000000     cgCommon.obj
 0002:fffb5000       $unwind$??_G?$big_any_policy@VString@cv@@@anyimpl@cvflann@@UEAAPEAXI@Z 0000000180000000     cgCommon.obj
 0004:fff99000       $pdata$??_G?$big_any_policy@VString@cv@@@anyimpl@cvflann@@UEAAPEAXI@Z 0000000180000000     cgCommon.obj
 0002:fffb5000       $unwind$??0_Sentry_base@?$basic_ostream@DU?$char_traits@D@std@@@std@@QEAA@AEAV12@@Z 0000000180000000     cgCommon.obj
 0000:00000000       .debug$S                   0000000180000000     sf_runtime:sf_runtime.dll
 0004:fff99000       $pdata$??0_Sentry_base@?$basic_ostream@DU?$char_traits@D@std@@@std@@QEAA@AEAV12@@Z 0000000180000000     cgCommon.obj
 0000:00000000       .debug$S                   0000000180000000     sf_runtime:sf_runtime.dll
 0002:fffb5000       $unwind$??1_Sentry_base@?$basic_ostream@DU?$char_traits@D@std@@@std@@QEAA@XZ 0000000180000000     cgCommon.obj
 0000:00000000       .debug$S                   0000000180000000     sf_runtime:sf_runtime.dll
 0004:fff99000       $pdata$??1_Sentry_base@?$basic_ostream@DU?$char_traits@D@std@@@std@@QEAA@XZ 0000000180000000     cgCommon.obj
 0000:00000000       .debug$S                   0000000180000000     sf_runtime:sf_runtime.dll
 0002:fffb5000       $cppxdata$??1_Sentry_base@?$basic_ostream@DU?$char_traits@D@std@@@std@@QEAA@XZ 0000000180000000     cgCommon.obj
 0000:00000000       .debug$S                   0000000180000000     sf_runtime:sf_runtime.dll
 0002:fffb5000       $ip2state$??1_Sentry_base@?$basic_ostream@DU?$char_traits@D@std@@@std@@QEAA@XZ 0000000180000000     cgCommon.obj
 0000:00000000       .debug$S                   0000000180000000     sf_runtime:sf_runtime.dll
 0002:fffb5000       $unwind$??0sentry@?$basic_ostream@DU?$char_traits@D@std@@@std@@QEAA@AEAV12@@Z 0000000180000000     cgCommon.obj
 0000:00000000       .debug$S                   0000000180000000     sf_runtime:sf_runtime.dll
 0004:fff99000       $pdata$??0sentry@?$basic_ostream@DU?$char_traits@D@std@@@std@@QEAA@AEAV12@@Z 0000000180000000     cgCommon.obj
 0000:00000000       .debug$S                   0000000180000000     sf_runtime:sf_runtime.dll
 0002:fffb5000       $cppxdata$??0sentry@?$basic_ostream@DU?$char_traits@D@std@@@std@@QEAA@AEAV12@@Z 0000000180000000     cgCommon.obj
 0002:fffb5000       $stateUnwindMap$??0sentry@?$basic_ostream@DU?$char_traits@D@std@@@std@@QEAA@AEAV12@@Z 0000000180000000     cgCommon.obj
 0002:fffb5000       $ip2state$??0sentry@?$basic_ostream@DU?$char_traits@D@std@@@std@@QEAA@AEAV12@@Z 0000000180000000     cgCommon.obj
 0002:fffb5000       $unwind$?dtor$0@?0???0sentry@?$basic_ostream@DU?$char_traits@D@std@@@std@@QEAA@AEAV12@@Z@4HA 0000000180000000     cgCommon.obj
 0000:00000000       .debug$S                   0000000180000000     sf_runtime:sf_runtime.dll
 0004:fff99000       $pdata$?dtor$0@?0???0sentry@?$basic_ostream@DU?$char_traits@D@std@@@std@@QEAA@AEAV12@@Z@4HA 0000000180000000     cgCommon.obj
 0000:00000000       .debug$S                   0000000180000000     sf_runtime:sf_runtime.dll
 0002:fffb5000       $unwind$??1sentry@?$basic_ostream@DU?$char_traits@D@std@@@std@@QEAA@XZ 0000000180000000     cgCommon.obj
 0000:00000000       .debug$S                   0000000180000000     sf_runtime:sf_runtime.dll
 0004:fff99000       $pdata$??1sentry@?$basic_ostream@DU?$char_traits@D@std@@@std@@QEAA@XZ 0000000180000000     cgCommon.obj
 0000:00000000       .debug$S                   0000000180000000     sf_runtime:sf_runtime.dll
 0002:fffb5000       $cppxdata$??1sentry@?$basic_ostream@DU?$char_traits@D@std@@@std@@QEAA@XZ 0000000180000000     cgCommon.obj
 0000:00000000       .debug$S                   0000000180000000     sf_runtime:sf_runtime.dll
 0002:fffb5000       $ip2state$??1sentry@?$basic_ostream@DU?$char_traits@D@std@@@std@@QEAA@XZ 0000000180000000     cgCommon.obj
 0000:00000000       .debug$S                   0000000180000000     sf_runtime:sf_runtime.dll
 0002:fffb5000       $unwind$??0?$typed_base_any_policy@Uempty_any@anyimpl@cvflann@@@anyimpl@cvflann@@QEAA@XZ 0000000180000000     cgCommon.obj
 0000:00000000       .debug$S                   0000000180000000     sf_runtime:sf_runtime.dll
 0004:fff99000       $pdata$??0?$typed_base_any_policy@Uempty_any@anyimpl@cvflann@@@anyimpl@cvflann@@QEAA@XZ 0000000180000000     cgCommon.obj
 0000:00000000       .debug$S                   0000000180000000     kernel32:KERNEL32.dll
 0000:00000000       .debug$S                   0000000180000000     sf_runtime:sf_runtime.dll
 0000:00000000       .debug$S                   0000000180000000     kernel32:KERNEL32.dll
 0002:fffb5000       $unwind$??1?$typed_base_any_policy@Uempty_any@anyimpl@cvflann@@@anyimpl@cvflann@@UEAA@XZ 0000000180000000     cgCommon.obj
 0000:00000000       .debug$S                   0000000180000000     kernel32:KERNEL32.dll
 0000:00000000       .debug$S                   0000000180000000     sf_runtime:sf_runtime.dll
 0004:fff99000       $pdata$??1?$typed_base_any_policy@Uempty_any@anyimpl@cvflann@@@anyimpl@cvflann@@UEAA@XZ 0000000180000000     cgCommon.obj
 0000:00000000       .debug$S                   0000000180000000     sf_runtime:sf_runtime.dll
 0000:00000000       .debug$S                   0000000180000000     kernel32:KERNEL32.dll
 0002:fffb5000       $unwind$??_G?$typed_base_any_policy@Uempty_any@anyimpl@cvflann@@@anyimpl@cvflann@@UEAAPEAXI@Z 0000000180000000     cgCommon.obj
 0000:00000000       .debug$S                   0000000180000000     sf_runtime:sf_runtime.dll
 0004:fff99000       $pdata$??_G?$typed_base_any_policy@Uempty_any@anyimpl@cvflann@@@anyimpl@cvflann@@UEAAPEAXI@Z 0000000180000000     cgCommon.obj
 0000:00000000       .debug$S                   0000000180000000     kernel32:KERNEL32.dll
 0002:fffb5000       $unwind$?static_delete@?$big_any_policy@Uempty_any@anyimpl@cvflann@@@anyimpl@cvflann@@UEAAXPEAPEAX@Z 0000000180000000     cgCommon.obj
 0004:fff99000       $pdata$?static_delete@?$big_any_policy@Uempty_any@anyimpl@cvflann@@@anyimpl@cvflann@@UEAAXPEAPEAX@Z 0000000180000000     cgCommon.obj
 0002:fffb5000       $unwind$?copy_from_value@?$big_any_policy@Uempty_any@anyimpl@cvflann@@@anyimpl@cvflann@@UEAAXPEBXPEAPEAX@Z 0000000180000000     cgCommon.obj
 0000:00000000       .debug$S                   0000000180000000     kernel32:KERNEL32.dll
 0000:00000000       .debug$S                   0000000180000000     sf_runtime:sf_runtime.dll
 0004:fff99000       $pdata$?copy_from_value@?$big_any_policy@Uempty_any@anyimpl@cvflann@@@anyimpl@cvflann@@UEAAXPEBXPEAPEAX@Z 0000000180000000     cgCommon.obj
 0002:fffb5000       $unwind$?_Allocate@std@@YAPEAX_K0_N@Z 0000000180000000     mwsurf.obj
 0004:fff99000       $pdata$?_Allocate@std@@YAPEAX_K0_N@Z 0000000180000000     mwsurf.obj
 0002:fffb5000       $unwind$?_Deallocate@std@@YAXPEAX_K1@Z 0000000180000000     mwsurf.obj
 0004:fff99000       $pdata$?_Deallocate@std@@YAXPEAX_K1@Z 0000000180000000     mwsurf.obj
 0002:fffb5000       $unwind$??0String@cv@@QEAA@PEBD@Z 0000000180000000     mwsurf.obj
 0004:fff99000       $pdata$??0String@cv@@QEAA@PEBD@Z 0000000180000000     mwsurf.obj
 0002:fffb5000       $unwind$??1String@cv@@QEAA@XZ 0000000180000000     mwsurf.obj
 0004:fff99000       $pdata$??1String@cv@@QEAA@XZ 0000000180000000     mwsurf.obj
 0002:fffb5000       $cppxdata$??1String@cv@@QEAA@XZ 0000000180000000     mwsurf.obj
 0002:fffb5000       $ip2state$??1String@cv@@QEAA@XZ 0000000180000000     mwsurf.obj
 0002:fffb5000       $unwind$?decRef@PtrOwner@detail@cv@@QEAAXXZ 0000000180000000     mwsurf.obj
 0004:fff99000       $pdata$?decRef@PtrOwner@detail@cv@@QEAAXXZ 0000000180000000     mwsurf.obj
 0002:fffb5000       $unwind$??_GPtrOwner@detail@cv@@MEAAPEAXI@Z 0000000180000000     mwsurf.obj
 0004:fff99000       $pdata$??_GPtrOwner@detail@cv@@MEAAPEAXI@Z 0000000180000000     mwsurf.obj
 0000:00000000       .debug$S                   0000000180000000     sf_runtime:sf_runtime.dll
 0000:00000000       .debug$S                   0000000180000000     kernel32:KERNEL32.dll
 0002:fffb5000       $unwind$?clone@?$big_any_policy@Uempty_any@anyimpl@cvflann@@@anyimpl@cvflann@@UEAAXPEBQEAXPEAPEAX@Z 0000000180000000     cgCommon.obj
 0000:00000000       .debug$S                   0000000180000000     kernel32:KERNEL32.dll
 0000:00000000       .debug$S                   0000000180000000     sf_runtime:sf_runtime.dll
 0000:00000000       .debug$S                   0000000180000000     msvcprt:MSVCP140.dll
 0004:fff99000       $pdata$?clone@?$big_any_policy@Uempty_any@anyimpl@cvflann@@@anyimpl@cvflann@@UEAAXPEBQEAXPEAPEAX@Z 0000000180000000     cgCommon.obj
 0000:00000000       .debug$S                   0000000180000000     msvcprt:MSVCP140.dll
 0000:00000000       .debug$S                   0000000180000000     sf_runtime:sf_runtime.dll
 0000:00000000       .debug$S                   0000000180000000     msvcprt:MSVCP140.dll
 0002:fffb5000       $unwind$?print@?$big_any_policy@Uempty_any@anyimpl@cvflann@@@anyimpl@cvflann@@UEAAXAEAV?$basic_ostream@DU?$char_traits@D@std@@@std@@PEBQEAX@Z 0000000180000000     cgCommon.obj
 0000:00000000       .debug$S                   0000000180000000     msvcprt:MSVCP140.dll
 0000:00000000       .debug$S                   0000000180000000     sf_runtime:sf_runtime.dll
 0000:00000000       .debug$S                   0000000180000000     msvcprt:MSVCP140.dll
 0004:fff99000       $pdata$?print@?$big_any_policy@Uempty_any@anyimpl@cvflann@@@anyimpl@cvflann@@UEAAXAEAV?$basic_ostream@DU?$char_traits@D@std@@@std@@PEBQEAX@Z 0000000180000000     cgCommon.obj
 0000:00000000       .debug$S                   0000000180000000     msvcprt:MSVCP140.dll
 0000:00000000       .debug$S                   0000000180000000     sf_runtime:sf_runtime.dll
 0000:00000000       .debug$S                   0000000180000000     msvcprt:MSVCP140.dll
 0002:fffb5000       $unwind$??0?$big_any_policy@Uempty_any@anyimpl@cvflann@@@anyimpl@cvflann@@QEAA@XZ 0000000180000000     cgCommon.obj
 0000:00000000       .debug$S                   0000000180000000     msvcprt:MSVCP140.dll
 0000:00000000       .debug$S                   0000000180000000     sf_runtime:sf_runtime.dll
 0000:00000000       .debug$S                   0000000180000000     msvcprt:MSVCP140.dll
 0004:fff99000       $pdata$??0?$big_any_policy@Uempty_any@anyimpl@cvflann@@@anyimpl@cvflann@@QEAA@XZ 0000000180000000     cgCommon.obj
 0000:00000000       .debug$S                   0000000180000000     msvcprt:MSVCP140.dll
 0000:00000000       .debug$S                   0000000180000000     sf_runtime:sf_runtime.dll
 0000:00000000       .debug$S                   0000000180000000     msvcprt:MSVCP140.dll
 0002:fffb5000       $unwind$??0KeyPoint@cv@@QEAA@MMMMMHH@Z 0000000180000000     mwsurf.obj
 0004:fff99000       $pdata$??0KeyPoint@cv@@QEAA@MMMMMHH@Z 0000000180000000     mwsurf.obj
 0002:fffb5000       $unwind$??0KeyPoint@cv@@QEAA@AEBV01@@Z 0000000180000000     mwsurf.obj
 0004:fff99000       $pdata$??0KeyPoint@cv@@QEAA@AEBV01@@Z 0000000180000000     mwsurf.obj
 0002:fffb5000       $unwind$??1?$big_any_policy@Uempty_any@anyimpl@cvflann@@@anyimpl@cvflann@@UEAA@XZ 0000000180000000     cgCommon.obj
 0000:00000000       .debug$S                   0000000180000000     msvcprt:MSVCP140.dll
 0004:fff99000       $pdata$??1?$big_any_policy@Uempty_any@anyimpl@cvflann@@@anyimpl@cvflann@@UEAA@XZ 0000000180000000     cgCommon.obj
 0000:00000000       .debug$S                   0000000180000000     msvcprt:MSVCP140.dll
 0002:fffb5000       $unwind$??_G?$big_any_policy@Uempty_any@anyimpl@cvflann@@@anyimpl@cvflann@@UEAAPEAXI@Z 0000000180000000     cgCommon.obj
 0000:00000000       .debug$S                   0000000180000000     msvcprt:MSVCP140.dll
 0004:fff99000       $pdata$??_G?$big_any_policy@Uempty_any@anyimpl@cvflann@@@anyimpl@cvflann@@UEAAPEAXI@Z 0000000180000000     cgCommon.obj
 0002:fffb5000       $unwind$??$_Emplace_back_with_unused_capacity@AEBVKeyPoint@cv@@@?$vector@VKeyPoint@cv@@V?$allocator@VKeyPoint@cv@@@std@@@std@@AEAAXAEBVKeyPoint@cv@@@Z 0000000180000000     mwsurf.obj
 0000:00000000       .debug$S                   0000000180000000     sf_runtime:sf_runtime.dll
 0000:00000000       .debug$S                   0000000180000000     msvcprt:MSVCP140.dll
 0002:fffb5000       $unwind$??0?$typed_base_any_policy@PEBD@anyimpl@cvflann@@QEAA@XZ 0000000180000000     cgCommon.obj
 0000:00000000       .debug$S                   0000000180000000     msvcprt:MSVCP140.dll
 0000:00000000       .debug$S                   0000000180000000     sf_runtime:sf_runtime.dll
 0000:00000000       .debug$S                   0000000180000000     msvcprt:MSVCP140.dll
 0004:fff99000       $pdata$??0?$typed_base_any_policy@PEBD@anyimpl@cvflann@@QEAA@XZ 0000000180000000     cgCommon.obj
 0000:00000000       .debug$S                   0000000180000000     msvcprt:MSVCP140.dll
 0000:00000000       .debug$S                   0000000180000000     sf_runtime:sf_runtime.dll
 0002:fffb5000       $unwind$??1?$typed_base_any_policy@PEBD@anyimpl@cvflann@@UEAA@XZ 0000000180000000     cgCommon.obj
 0000:00000000       .debug$S                   0000000180000000     libmx:libmx.dll
 0004:fff99000       $pdata$??1?$typed_base_any_policy@PEBD@anyimpl@cvflann@@UEAA@XZ 0000000180000000     cgCommon.obj
 0000:00000000       .debug$S                   0000000180000000     libmx:libmx.dll
 0002:fffb5000       __guard_fids___scrt_set_unhandled_exception_filter 0000000180000000     MSVCRT:utility_desktop.obj
 0002:fffb5000       $unwind$??_G?$typed_base_any_policy@PEBD@anyimpl@cvflann@@UEAAPEAXI@Z 0000000180000000     cgCommon.obj
 0000:00000000       .debug$S                   0000000180000000     libmx:libmx.dll
 0004:fff99000       $pdata$??_G?$typed_base_any_policy@PEBD@anyimpl@cvflann@@UEAAPEAXI@Z 0000000180000000     cgCommon.obj
 0000:00000000       .debug$S                   0000000180000000     libmx:libmx.dll
 0002:fffb5000       $unwind$?copy_from_value@?$small_any_policy@PEBD@anyimpl@cvflann@@UEAAXPEBXPEAPEAX@Z 0000000180000000     cgCommon.obj
 0000:00000000       .debug$S                   0000000180000000     libmx:libmx.dll
 0004:fff99000       $pdata$?copy_from_value@?$small_any_policy@PEBD@anyimpl@cvflann@@UEAAXPEBXPEAPEAX@Z 0000000180000000     cgCommon.obj
 0000:00000000       .debug$S                   0000000180000000     libmx:libmx.dll
 0002:fffb5000       $unwind$?print@?$small_any_policy@PEBD@anyimpl@cvflann@@UEAAXAEAV?$basic_ostream@DU?$char_traits@D@std@@@std@@PEBQEAX@Z 0000000180000000     cgCommon.obj
 0000:00000000       .debug$S                   0000000180000000     libmx:libmx.dll
 0004:fff99000       $pdata$?print@?$small_any_policy@PEBD@anyimpl@cvflann@@UEAAXAEAV?$basic_ostream@DU?$char_traits@D@std@@@std@@PEBQEAX@Z 0000000180000000     cgCommon.obj
 0000:00000000       .debug$S                   0000000180000000     libmx:libmx.dll
 0002:fffb5000       $unwind$??0?$small_any_policy@PEBD@anyimpl@cvflann@@QEAA@XZ 0000000180000000     cgCommon.obj
 0000:00000000       .debug$S                   0000000180000000     libmx:libmx.dll
 0004:fff99000       $pdata$??0?$small_any_policy@PEBD@anyimpl@cvflann@@QEAA@XZ 0000000180000000     cgCommon.obj
 0002:fffb5000       $unwind$??1?$small_any_policy@PEBD@anyimpl@cvflann@@UEAA@XZ 0000000180000000     cgCommon.obj
 0004:fff99000       $pdata$??1?$small_any_policy@PEBD@anyimpl@cvflann@@UEAA@XZ 0000000180000000     cgCommon.obj
 0002:fffb5000       $unwind$??_G?$small_any_policy@PEBD@anyimpl@cvflann@@UEAAPEAXI@Z 0000000180000000     cgCommon.obj
 0000:00000000       .debug$S                   0000000180000000     libmx:libmx.dll
 0004:fff99000       $pdata$??_G?$small_any_policy@PEBD@anyimpl@cvflann@@UEAAPEAXI@Z 0000000180000000     cgCommon.obj
 0000:00000000       .debug$S                   0000000180000000     libmx:libmx.dll
 0002:fffb5000       $unwind$??0?$typed_base_any_policy@H@anyimpl@cvflann@@QEAA@XZ 0000000180000000     cgCommon.obj
 0000:00000000       .debug$S                   0000000180000000     libmx:libmx.dll
 0004:fff99000       $pdata$??0?$typed_base_any_policy@H@anyimpl@cvflann@@QEAA@XZ 0000000180000000     cgCommon.obj
 0000:00000000       .debug$S                   0000000180000000     libmx:libmx.dll
 0002:fffb5000       $unwind$??1?$typed_base_any_policy@H@anyimpl@cvflann@@UEAA@XZ 0000000180000000     cgCommon.obj
 0000:00000000       .debug$S                   0000000180000000     libmx:libmx.dll
 0004:fff99000       $pdata$??1?$typed_base_any_policy@H@anyimpl@cvflann@@UEAA@XZ 0000000180000000     cgCommon.obj
 0000:00000000       .debug$S                   0000000180000000     libmx:libmx.dll
 0002:fffb5000       $unwind$??_G?$typed_base_any_policy@H@anyimpl@cvflann@@UEAAPEAXI@Z 0000000180000000     cgCommon.obj
 0000:00000000       .debug$S                   0000000180000000     libmx:libmx.dll
 0004:fff99000       $pdata$??_G?$typed_base_any_policy@H@anyimpl@cvflann@@UEAAPEAXI@Z 0000000180000000     cgCommon.obj
 0000:00000000       .debug$S                   0000000180000000     libmx:libmx.dll
 0002:fffb5000       $unwind$?copy_from_value@?$small_any_policy@H@anyimpl@cvflann@@UEAAXPEBXPEAPEAX@Z 0000000180000000     cgCommon.obj
 0000:00000000       .debug$S                   0000000180000000     libmx:libmx.dll
 0004:fff99000       $pdata$?copy_from_value@?$small_any_policy@H@anyimpl@cvflann@@UEAAXPEBXPEAPEAX@Z 0000000180000000     cgCommon.obj
 0000:00000000       .debug$S                   0000000180000000     libmx:libmx.dll
 0002:fffb5000       $unwind$?print@?$small_any_policy@H@anyimpl@cvflann@@UEAAXAEAV?$basic_ostream@DU?$char_traits@D@std@@@std@@PEBQEAX@Z 0000000180000000     cgCommon.obj
 0000:00000000       .debug$S                   0000000180000000     libmx:libmx.dll
 0004:fff99000       $pdata$?print@?$small_any_policy@H@anyimpl@cvflann@@UEAAXAEAV?$basic_ostream@DU?$char_traits@D@std@@@std@@PEBQEAX@Z 0000000180000000     cgCommon.obj
 0000:00000000       .debug$S                   0000000180000000     libmx:libmx.dll
 0002:fffb5000       $unwind$??0?$small_any_policy@H@anyimpl@cvflann@@QEAA@XZ 0000000180000000     cgCommon.obj
 0000:00000000       .debug$S                   0000000180000000     libmex:libmex.dll
 0004:fff99000       $pdata$??0?$small_any_policy@H@anyimpl@cvflann@@QEAA@XZ 0000000180000000     cgCommon.obj
 0000:00000000       .debug$S                   0000000180000000     libmex:libmex.dll
 0002:fffb5000       $unwind$??1?$small_any_policy@H@anyimpl@cvflann@@UEAA@XZ 0000000180000000     cgCommon.obj
 0004:fff99000       $pdata$??1?$small_any_policy@H@anyimpl@cvflann@@UEAA@XZ 0000000180000000     cgCommon.obj
 0002:fffb5000       $unwind$??_G?$small_any_policy@H@anyimpl@cvflann@@UEAAPEAXI@Z 0000000180000000     cgCommon.obj
 0004:fff99000       $pdata$??_G?$small_any_policy@H@anyimpl@cvflann@@UEAAPEAXI@Z 0000000180000000     cgCommon.obj
 0000:00000000       .debug$S                   0000000180000000     libmex:libmex.dll
 0002:fffb5000       $unwind$??0?$typed_base_any_policy@M@anyimpl@cvflann@@QEAA@XZ 0000000180000000     cgCommon.obj
 0000:00000000       .debug$S                   0000000180000000     libmex:libmex.dll
 0004:fff99000       $pdata$??0?$typed_base_any_policy@M@anyimpl@cvflann@@QEAA@XZ 0000000180000000     cgCommon.obj
 0000:00000000       .debug$S                   0000000180000000     libmex:libmex.dll
 0002:fffb5000       $unwind$??1?$typed_base_any_policy@M@anyimpl@cvflann@@UEAA@XZ 0000000180000000     cgCommon.obj
 0004:fff99000       $pdata$??1?$typed_base_any_policy@M@anyimpl@cvflann@@UEAA@XZ 0000000180000000     cgCommon.obj
 0002:fffb5000       $unwind$??_G?$typed_base_any_policy@M@anyimpl@cvflann@@UEAAPEAXI@Z 0000000180000000     cgCommon.obj
 0004:fff99000       $pdata$??_G?$typed_base_any_policy@M@anyimpl@cvflann@@UEAAPEAXI@Z 0000000180000000     cgCommon.obj
 0000:00000000       .debug$S                   0000000180000000     libmex:libmex.dll
 0002:fffb5000       $unwind$?copy_from_value@?$small_any_policy@M@anyimpl@cvflann@@UEAAXPEBXPEAPEAX@Z 0000000180000000     cgCommon.obj
 0000:00000000       .debug$S                   0000000180000000     libmex:libmex.dll
 0004:fff99000       $pdata$?copy_from_value@?$small_any_policy@M@anyimpl@cvflann@@UEAAXPEBXPEAPEAX@Z 0000000180000000     cgCommon.obj
 0002:fffb5000       $unwind$??RMatSize@cv@@QEBA?AV?$Size_@H@1@XZ 0000000180000000     mwsurf.obj
 0004:fff99000       $pdata$??RMatSize@cv@@QEBA?AV?$Size_@H@1@XZ 0000000180000000     mwsurf.obj
 0002:fffb5000       $unwind$??0Mat@cv@@QEAA@XZ 0000000180000000     mwsurf.obj
 0004:fff99000       $pdata$??0Mat@cv@@QEAA@XZ  0000000180000000     mwsurf.obj
 0002:fffb5000       $unwind$??0Mat@cv@@QEAA@AEBV01@@Z 0000000180000000     mwsurf.obj
 0004:fff99000       $pdata$??0Mat@cv@@QEAA@AEBV01@@Z 0000000180000000     mwsurf.obj
 0002:fffb5000       $unwind$??0Mat@cv@@QEAA@HHHPEAX_K@Z 0000000180000000     mwsurf.obj
 0004:fff99000       $pdata$??0Mat@cv@@QEAA@HHHPEAX_K@Z 0000000180000000     mwsurf.obj
 0002:fffb5000       $cppxdata$??0Mat@cv@@QEAA@HHHPEAX_K@Z 0000000180000000     mwsurf.obj
 0002:fffb5000       $stateUnwindMap$??0Mat@cv@@QEAA@HHHPEAX_K@Z 0000000180000000     mwsurf.obj
 0002:fffb5000       $ip2state$??0Mat@cv@@QEAA@HHHPEAX_K@Z 0000000180000000     mwsurf.obj
 0002:fffb5000       $unwind$?dtor$0@?0???0Mat@cv@@QEAA@HHHPEAX_K@Z@4HA 0000000180000000     mwsurf.obj
 0004:fff99000       $pdata$?dtor$0@?0???0Mat@cv@@QEAA@HHHPEAX_K@Z@4HA 0000000180000000     mwsurf.obj
 0002:fffb5000       $unwind$?dtor$1@?0???0Mat@cv@@QEAA@HHHPEAX_K@Z@4HA 0000000180000000     mwsurf.obj
 0004:fff99000       $pdata$?dtor$1@?0???0Mat@cv@@QEAA@HHHPEAX_K@Z@4HA 0000000180000000     mwsurf.obj
 0002:fffb5000       $unwind$??1Mat@cv@@QEAA@XZ 0000000180000000     mwsurf.obj
 0004:fff99000       $pdata$??1Mat@cv@@QEAA@XZ  0000000180000000     mwsurf.obj
 0002:fffb5000       $cppxdata$??1Mat@cv@@QEAA@XZ 0000000180000000     mwsurf.obj
 0002:fffb5000       $ip2state$??1Mat@cv@@QEAA@XZ 0000000180000000     mwsurf.obj
 0000:00000000       .debug$S                   0000000180000000     libut:libut.dll
 0002:fffb5000       __guard_fids_?dllmain_dispatch@@YAHQEAUHINSTANCE__@@KQEAX@Z 0000000180000000     MSVCRT:dll_dllmain.obj
 0002:fffb5000       $unwind$?print@?$small_any_policy@M@anyimpl@cvflann@@UEAAXAEAV?$basic_ostream@DU?$char_traits@D@std@@@std@@PEBQEAX@Z 0000000180000000     cgCommon.obj
 0000:00000000       .debug$S                   0000000180000000     libut:libut.dll
 0002:fffb5000       $unwind$?release@Mat@cv@@QEAAXXZ 0000000180000000     mwsurf.obj
 0004:fff99000       $pdata$?release@Mat@cv@@QEAAXXZ 0000000180000000     mwsurf.obj
 0004:fff99000       $pdata$?print@?$small_any_policy@M@anyimpl@cvflann@@UEAAXAEAV?$basic_ostream@DU?$char_traits@D@std@@@std@@PEBQEAX@Z 0000000180000000     cgCommon.obj
 0000:00000000       .debug$S                   0000000180000000     libmwmathutil:libmwmathutil.dll
 0002:fffb5000       $unwind$??0?$small_any_policy@M@anyimpl@cvflann@@QEAA@XZ 0000000180000000     cgCommon.obj
 0000:00000000       .debug$S                   0000000180000000     libmwmathutil:libmwmathutil.dll
 0002:fffb5000       $unwind$?total@Mat@cv@@QEBA_KXZ 0000000180000000     mwsurf.obj
 0004:fff99000       $pdata$?total@Mat@cv@@QEBA_KXZ 0000000180000000     mwsurf.obj
 0004:fff99000       $pdata$??0?$small_any_policy@M@anyimpl@cvflann@@QEAA@XZ 0000000180000000     cgCommon.obj
 0000:00000000       .debug$S                   0000000180000000     libmwmathutil:libmwmathutil.dll
 0002:fffb5000       $unwind$??_GMat@cv@@QEAAPEAXI@Z 0000000180000000     mwsurf.obj
 0004:fff99000       $pdata$??_GMat@cv@@QEAAPEAXI@Z 0000000180000000     mwsurf.obj
 0002:fffb5000       $unwind$??1?$small_any_policy@M@anyimpl@cvflann@@UEAA@XZ 0000000180000000     cgCommon.obj
 0000:00000000       .debug$S                   0000000180000000     libmwmathutil:libmwmathutil.dll
 0004:fff99000       $pdata$??1?$small_any_policy@M@anyimpl@cvflann@@UEAA@XZ 0000000180000000     cgCommon.obj
 0000:00000000       .debug$S                   0000000180000000     libmwmathutil:libmwmathutil.dll
 0002:fffb5000       $unwind$??_G?$small_any_policy@M@anyimpl@cvflann@@UEAAPEAXI@Z 0000000180000000     cgCommon.obj
 0000:00000000       .debug$S                   0000000180000000     libmwmathutil:libmwmathutil.dll
 0004:fff99000       $pdata$??_G?$small_any_policy@M@anyimpl@cvflann@@UEAAPEAXI@Z 0000000180000000     cgCommon.obj
 0000:00000000       .debug$S                   0000000180000000     libmwmathutil:libmwmathutil.dll
 0002:fffb5000       $unwind$??0?$typed_base_any_policy@_N@anyimpl@cvflann@@QEAA@XZ 0000000180000000     cgCommon.obj
 0000:00000000       .debug$S                   0000000180000000     libemlrt:libemlrt.dll
 0004:fff99000       $pdata$??0?$typed_base_any_policy@_N@anyimpl@cvflann@@QEAA@XZ 0000000180000000     cgCommon.obj
 0000:00000000       .debug$S                   0000000180000000     libemlrt:libemlrt.dll
 0002:fffb5000       $unwind$??1?$typed_base_any_policy@_N@anyimpl@cvflann@@UEAA@XZ 0000000180000000     cgCommon.obj
 0000:00000000       .debug$S                   0000000180000000     libemlrt:libemlrt.dll
 0004:fff99000       $pdata$??1?$typed_base_any_policy@_N@anyimpl@cvflann@@UEAA@XZ 0000000180000000     cgCommon.obj
 0000:00000000       .debug$S                   0000000180000000     libemlrt:libemlrt.dll
 0002:fffb5000       $unwind$??_G?$typed_base_any_policy@_N@anyimpl@cvflann@@UEAAPEAXI@Z 0000000180000000     cgCommon.obj
 0000:00000000       .debug$S                   0000000180000000     libemlrt:libemlrt.dll
 0004:fff99000       $pdata$??_G?$typed_base_any_policy@_N@anyimpl@cvflann@@UEAAPEAXI@Z 0000000180000000     cgCommon.obj
 0000:00000000       .debug$S                   0000000180000000     libemlrt:libemlrt.dll
 0002:fffb5000       $unwind$?copy_from_value@?$small_any_policy@_N@anyimpl@cvflann@@UEAAXPEBXPEAPEAX@Z 0000000180000000     cgCommon.obj
 0002:fffb5000       __guard_fids__             0000000180000000     MSVCRT:throw_bad_alloc.obj
 0000:00000000       .debug$S                   0000000180000000     libcovrt:libcovrt.dll
 0002:fffb5000       __guard_fids__             0000000180000000     MSVCRT:throw_bad_alloc.obj
 0004:fff99000       $pdata$?copy_from_value@?$small_any_policy@_N@anyimpl@cvflann@@UEAAXPEBXPEAPEAX@Z 0000000180000000     cgCommon.obj
 0002:fffb5000       __guard_fids__             0000000180000000     MSVCRT:throw_bad_alloc.obj
 0000:00000000       .debug$S                   0000000180000000     libcovrt:libcovrt.dll
 0002:fffb5000       $unwind$?print@?$small_any_policy@_N@anyimpl@cvflann@@UEAAXAEAV?$basic_ostream@DU?$char_traits@D@std@@@std@@PEBQEAX@Z 0000000180000000     cgCommon.obj
 0000:00000000       .debug$S                   0000000180000000     libcovrt:libcovrt.dll
 0004:fff99000       $pdata$?print@?$small_any_policy@_N@anyimpl@cvflann@@UEAAXAEAV?$basic_ostream@DU?$char_traits@D@std@@@std@@PEBQEAX@Z 0000000180000000     cgCommon.obj
 0000:00000000       .debug$S                   0000000180000000     libcovrt:libcovrt.dll
 0002:fffb5000       $unwind$??0?$small_any_policy@_N@anyimpl@cvflann@@QEAA@XZ 0000000180000000     cgCommon.obj
 0000:00000000       .debug$S                   0000000180000000     libcovrt:libcovrt.dll
 0004:fff99000       $pdata$??0?$small_any_policy@_N@anyimpl@cvflann@@QEAA@XZ 0000000180000000     cgCommon.obj
 0000:00000000       .debug$S                   0000000180000000     libcovrt:libcovrt.dll
 0002:fffb5000       $unwind$??1?$small_any_policy@_N@anyimpl@cvflann@@UEAA@XZ 0000000180000000     cgCommon.obj
 0000:00000000       .debug$S                   0000000180000000     libcovrt:libcovrt.dll
 0004:fff99000       $pdata$??1?$small_any_policy@_N@anyimpl@cvflann@@UEAA@XZ 0000000180000000     cgCommon.obj
 0000:00000000       .debug$S                   0000000180000000     libcovrt:libcovrt.dll
 0002:fffb5000       $unwind$??_G?$small_any_policy@_N@anyimpl@cvflann@@UEAAPEAXI@Z 0000000180000000     cgCommon.obj
 0000:00000000       .debug$S                   0000000180000000     libcovrt:libcovrt.dll
 0004:fff99000       $pdata$??_G?$small_any_policy@_N@anyimpl@cvflann@@UEAAPEAXI@Z 0000000180000000     cgCommon.obj
 0002:fffb5000       $unwind$??0?$typed_base_any_policy@I@anyimpl@cvflann@@QEAA@XZ 0000000180000000     cgCommon.obj
 0004:fff99000       $pdata$??0?$typed_base_any_policy@I@anyimpl@cvflann@@QEAA@XZ 0000000180000000     cgCommon.obj
 0002:fffb5000       $unwind$??1?$typed_base_any_policy@I@anyimpl@cvflann@@UEAA@XZ 0000000180000000     cgCommon.obj
 0004:fff99000       $pdata$??1?$typed_base_any_policy@I@anyimpl@cvflann@@UEAA@XZ 0000000180000000     cgCommon.obj
 0002:fffb5000       $unwind$??_G?$typed_base_any_policy@I@anyimpl@cvflann@@UEAAPEAXI@Z 0000000180000000     cgCommon.obj
 0004:fff99000       $pdata$??_G?$typed_base_any_policy@I@anyimpl@cvflann@@UEAAPEAXI@Z 0000000180000000     cgCommon.obj
 0002:fffb5000       $unwind$?copy_from_value@?$small_any_policy@I@anyimpl@cvflann@@UEAAXPEBXPEAPEAX@Z 0000000180000000     cgCommon.obj
 0004:fff99000       $pdata$?copy_from_value@?$small_any_policy@I@anyimpl@cvflann@@UEAAXPEBXPEAPEAX@Z 0000000180000000     cgCommon.obj
 0002:fffb5000       $unwind$?print@?$small_any_policy@I@anyimpl@cvflann@@UEAAXAEAV?$basic_ostream@DU?$char_traits@D@std@@@std@@PEBQEAX@Z 0000000180000000     cgCommon.obj
 0004:fff99000       $pdata$?print@?$small_any_policy@I@anyimpl@cvflann@@UEAAXAEAV?$basic_ostream@DU?$char_traits@D@std@@@std@@PEBQEAX@Z 0000000180000000     cgCommon.obj
 0002:fffb5000       __guard_fids__             0000000180000000     MSVCRT:std_type_info_static.obj
 0002:fffb5000       $unwind$??0?$small_any_policy@I@anyimpl@cvflann@@QEAA@XZ 0000000180000000     cgCommon.obj
 0004:fff99000       $pdata$??0?$small_any_policy@I@anyimpl@cvflann@@QEAA@XZ 0000000180000000     cgCommon.obj
 0002:fffb5000       $unwind$??1?$small_any_policy@I@anyimpl@cvflann@@UEAA@XZ 0000000180000000     cgCommon.obj
 0004:fff99000       $pdata$??1?$small_any_policy@I@anyimpl@cvflann@@UEAA@XZ 0000000180000000     cgCommon.obj
 0002:fffb5000       $unwind$??_G?$small_any_policy@I@anyimpl@cvflann@@UEAAPEAXI@Z 0000000180000000     cgCommon.obj
 0004:fff99000       $pdata$??_G?$small_any_policy@I@anyimpl@cvflann@@UEAAPEAXI@Z 0000000180000000     cgCommon.obj
 0002:fffb5000       $unwind$?deallocate@?$allocator@VKeyPoint@cv@@@std@@QEAAXPEAVKeyPoint@cv@@_K@Z 0000000180000000     mwsurf.obj
 0004:fff99000       $pdata$?deallocate@?$allocator@VKeyPoint@cv@@@std@@QEAAXPEAVKeyPoint@cv@@_K@Z 0000000180000000     mwsurf.obj
 0002:fffb5000       $unwind$?allocate@?$allocator@VKeyPoint@cv@@@std@@QEAAPEAVKeyPoint@cv@@_K@Z 0000000180000000     mwsurf.obj
 0004:fff99000       $pdata$?allocate@?$allocator@VKeyPoint@cv@@@std@@QEAAPEAVKeyPoint@cv@@_K@Z 0000000180000000     mwsurf.obj
 0002:fffb5000       $unwind$?max_size@?$allocator_traits@V?$allocator@VKeyPoint@cv@@@std@@@std@@SA_KAEBV?$allocator@VKeyPoint@cv@@@2@@Z 0000000180000000     mwsurf.obj
 0004:fff99000       $pdata$?max_size@?$allocator_traits@V?$allocator@VKeyPoint@cv@@@std@@@std@@SA_KAEBV?$allocator@VKeyPoint@cv@@@2@@Z 0000000180000000     mwsurf.obj
 0002:fffb5000       $unwind$?allocate@?$_Wrap_alloc@V?$allocator@VKeyPoint@cv@@@std@@@std@@QEAAPEAVKeyPoint@cv@@_K@Z 0000000180000000     mwsurf.obj
 0004:fff99000       $pdata$?allocate@?$_Wrap_alloc@V?$allocator@VKeyPoint@cv@@@std@@@std@@QEAAPEAVKeyPoint@cv@@_K@Z 0000000180000000     mwsurf.obj
 0002:fffb5000       $unwind$?deallocate@?$_Wrap_alloc@V?$allocator@VKeyPoint@cv@@@std@@@std@@QEAAXPEAVKeyPoint@cv@@_K@Z 0000000180000000     mwsurf.obj
 0004:fff99000       $pdata$?deallocate@?$_Wrap_alloc@V?$allocator@VKeyPoint@cv@@@std@@@std@@QEAAXPEAVKeyPoint@cv@@_K@Z 0000000180000000     mwsurf.obj
 0002:fffb5000       $unwind$?max_size@?$_Wrap_alloc@V?$allocator@VKeyPoint@cv@@@std@@@std@@QEBA_KU_Nil@2@@Z 0000000180000000     mwsurf.obj
 0004:fff99000       $pdata$?max_size@?$_Wrap_alloc@V?$allocator@VKeyPoint@cv@@@std@@@std@@QEBA_KU_Nil@2@@Z 0000000180000000     mwsurf.obj
 0002:fffb5000       $unwind$?_Orphan_all@?$_Vector_alloc@U?$_Vec_base_types@VKeyPoint@cv@@V?$allocator@VKeyPoint@cv@@@std@@@std@@@std@@QEAAXXZ 0000000180000000     mwsurf.obj
 0004:fff99000       $pdata$?_Orphan_all@?$_Vector_alloc@U?$_Vec_base_types@VKeyPoint@cv@@V?$allocator@VKeyPoint@cv@@@std@@@std@@@std@@QEAAXXZ 0000000180000000     mwsurf.obj
 0002:fffb5000       $unwind$?_Getal@?$_Vector_alloc@U?$_Vec_base_types@VKeyPoint@cv@@V?$allocator@VKeyPoint@cv@@@std@@@std@@@std@@QEAAAEAU?$_Wrap_alloc@V?$allocator@VKeyPoint@cv@@@std@@@2@XZ 0000000180000000     mwsurf.obj
 0004:fff99000       $pdata$?_Getal@?$_Vector_alloc@U?$_Vec_base_types@VKeyPoint@cv@@V?$allocator@VKeyPoint@cv@@@std@@@std@@@std@@QEAAAEAU?$_Wrap_alloc@V?$allocator@VKeyPoint@cv@@@std@@@2@XZ 0000000180000000     mwsurf.obj
 0002:fffb5000       $unwind$?_Getal@?$_Vector_alloc@U?$_Vec_base_types@VKeyPoint@cv@@V?$allocator@VKeyPoint@cv@@@std@@@std@@@std@@QEBAAEBU?$_Wrap_alloc@V?$allocator@VKeyPoint@cv@@@std@@@2@XZ 0000000180000000     mwsurf.obj
 0004:fff99000       $pdata$?_Getal@?$_Vector_alloc@U?$_Vec_base_types@VKeyPoint@cv@@V?$allocator@VKeyPoint@cv@@@std@@@std@@@std@@QEBAAEBU?$_Wrap_alloc@V?$allocator@VKeyPoint@cv@@@std@@@2@XZ 0000000180000000     mwsurf.obj
 0002:fffb5000       $unwind$?_Get_data@?$_Vector_alloc@U?$_Vec_base_types@VKeyPoint@cv@@V?$allocator@VKeyPoint@cv@@@std@@@std@@@std@@QEAAAEAV?$_Vector_val@U?$_Simple_types@VKeyPoint@cv@@@std@@@2@XZ 0000000180000000     mwsurf.obj
 0004:fff99000       $pdata$?_Get_data@?$_Vector_alloc@U?$_Vec_base_types@VKeyPoint@cv@@V?$allocator@VKeyPoint@cv@@@std@@@std@@@std@@QEAAAEAV?$_Vector_val@U?$_Simple_types@VKeyPoint@cv@@@std@@@2@XZ 0000000180000000     mwsurf.obj
 0002:fffb5000       $unwind$?_Get_data@?$_Vector_alloc@U?$_Vec_base_types@VKeyPoint@cv@@V?$allocator@VKeyPoint@cv@@@std@@@std@@@std@@QEBAAEBV?$_Vector_val@U?$_Simple_types@VKeyPoint@cv@@@std@@@2@XZ 0000000180000000     mwsurf.obj
 0004:fff99000       $pdata$?_Get_data@?$_Vector_alloc@U?$_Vec_base_types@VKeyPoint@cv@@V?$allocator@VKeyPoint@cv@@@std@@@std@@@std@@QEBAAEBV?$_Vector_val@U?$_Simple_types@VKeyPoint@cv@@@std@@@2@XZ 0000000180000000     mwsurf.obj
 0002:fffb5000       $unwind$?_Myfirst@?$_Vector_alloc@U?$_Vec_base_types@VKeyPoint@cv@@V?$allocator@VKeyPoint@cv@@@std@@@std@@@std@@QEAAAEAPEAVKeyPoint@cv@@XZ 0000000180000000     mwsurf.obj
 0004:fff99000       $pdata$?_Myfirst@?$_Vector_alloc@U?$_Vec_base_types@VKeyPoint@cv@@V?$allocator@VKeyPoint@cv@@@std@@@std@@@std@@QEAAAEAPEAVKeyPoint@cv@@XZ 0000000180000000     mwsurf.obj
 0002:fffb5000       $unwind$?_Myfirst@?$_Vector_alloc@U?$_Vec_base_types@VKeyPoint@cv@@V?$allocator@VKeyPoint@cv@@@std@@@std@@@std@@QEBAAEBQEAVKeyPoint@cv@@XZ 0000000180000000     mwsurf.obj
 0004:fff99000       $pdata$?_Myfirst@?$_Vector_alloc@U?$_Vec_base_types@VKeyPoint@cv@@V?$allocator@VKeyPoint@cv@@@std@@@std@@@std@@QEBAAEBQEAVKeyPoint@cv@@XZ 0000000180000000     mwsurf.obj
 0002:fffb5000       $unwind$?_Mylast@?$_Vector_alloc@U?$_Vec_base_types@VKeyPoint@cv@@V?$allocator@VKeyPoint@cv@@@std@@@std@@@std@@QEAAAEAPEAVKeyPoint@cv@@XZ 0000000180000000     mwsurf.obj
 0004:fff99000       $pdata$?_Mylast@?$_Vector_alloc@U?$_Vec_base_types@VKeyPoint@cv@@V?$allocator@VKeyPoint@cv@@@std@@@std@@@std@@QEAAAEAPEAVKeyPoint@cv@@XZ 0000000180000000     mwsurf.obj
 0002:fffb5000       $unwind$?_Mylast@?$_Vector_alloc@U?$_Vec_base_types@VKeyPoint@cv@@V?$allocator@VKeyPoint@cv@@@std@@@std@@@std@@QEBAAEBQEAVKeyPoint@cv@@XZ 0000000180000000     mwsurf.obj
 0004:fff99000       $pdata$?_Mylast@?$_Vector_alloc@U?$_Vec_base_types@VKeyPoint@cv@@V?$allocator@VKeyPoint@cv@@@std@@@std@@@std@@QEBAAEBQEAVKeyPoint@cv@@XZ 0000000180000000     mwsurf.obj
 0002:fffb5000       $unwind$?_Myend@?$_Vector_alloc@U?$_Vec_base_types@VKeyPoint@cv@@V?$allocator@VKeyPoint@cv@@@std@@@std@@@std@@QEAAAEAPEAVKeyPoint@cv@@XZ 0000000180000000     mwsurf.obj
 0004:fff99000       $pdata$?_Myend@?$_Vector_alloc@U?$_Vec_base_types@VKeyPoint@cv@@V?$allocator@VKeyPoint@cv@@@std@@@std@@@std@@QEAAAEAPEAVKeyPoint@cv@@XZ 0000000180000000     mwsurf.obj
 0002:fffb5000       $unwind$?_Myend@?$_Vector_alloc@U?$_Vec_base_types@VKeyPoint@cv@@V?$allocator@VKeyPoint@cv@@@std@@@std@@@std@@QEBAAEBQEAVKeyPoint@cv@@XZ 0000000180000000     mwsurf.obj
 0004:fff99000       $pdata$?_Myend@?$_Vector_alloc@U?$_Vec_base_types@VKeyPoint@cv@@V?$allocator@VKeyPoint@cv@@@std@@@std@@@std@@QEBAAEBQEAVKeyPoint@cv@@XZ 0000000180000000     mwsurf.obj
 0002:fffb5000       $unwind$?push_back@?$vector@VKeyPoint@cv@@V?$allocator@VKeyPoint@cv@@@std@@@std@@QEAAXAEBVKeyPoint@cv@@@Z 0000000180000000     mwsurf.obj
 0004:fff99000       $pdata$?push_back@?$vector@VKeyPoint@cv@@V?$allocator@VKeyPoint@cv@@@std@@@std@@QEAAXAEBVKeyPoint@cv@@@Z 0000000180000000     mwsurf.obj
 0002:fffb5000       ??policy$initializer$@?$SinglePolicy@Uempty_any@anyimpl@cvflann@@@anyimpl@cvflann@@0P6AXXZEA@@3P6AXXZEA 0000000180000000     cgCommon.obj
 0002:fffb5000       __guard_fids__guard_icall_checks_enforced 0000000180000000     MSVCRT:guard_support.obj
 0002:fffb5000       ??policy$initializer$@?$SinglePolicy@PEBD@anyimpl@cvflann@@0P6AXXZEA@@3P6AXXZEA 0000000180000000     cgCommon.obj
 0002:fffb5000       __guard_fids__             0000000180000000     MSVCRT:guard_support.obj
 0002:fffb5000       ??policy$initializer$@?$SinglePolicy@H@anyimpl@cvflann@@0P6AXXZEA@@3P6AXXZEA 0000000180000000     cgCommon.obj
 0002:fffb5000       ??policy$initializer$@?$SinglePolicy@M@anyimpl@cvflann@@0P6AXXZEA@@3P6AXXZEA 0000000180000000     cgCommon.obj
 0002:fffb5000       ??policy$initializer$@?$SinglePolicy@_N@anyimpl@cvflann@@0P6AXXZEA@@3P6AXXZEA 0000000180000000     cgCommon.obj
 0002:fffb5000       ??policy$initializer$@?$SinglePolicy@W4flann_algorithm_t@cvflann@@@anyimpl@cvflann@@0P6AXXZEA@@3P6AXXZEA 0000000180000000     cgCommon.obj
 0002:fffb5000       ??policy$initializer$@?$SinglePolicy@W4flann_centers_init_t@cvflann@@@anyimpl@cvflann@@0P6AXXZEA@@3P6AXXZEA 0000000180000000     cgCommon.obj
 0002:fffb5000       ??policy$initializer$@?$SinglePolicy@I@anyimpl@cvflann@@0P6AXXZEA@@3P6AXXZEA 0000000180000000     cgCommon.obj
 0002:fffb5000       ??policy$initializer$@?$SinglePolicy@VString@cv@@@anyimpl@cvflann@@0P6AXXZEA@@3P6AXXZEA 0000000180000000     cgCommon.obj
 0004:fff99000       $pdata$?_Xlength@?$vector@VKeyPoint@cv@@V?$allocator@VKeyPoint@cv@@@std@@@std@@CAXXZ 0000000180000000     mwsurf.obj
 0002:fffb5000       $unwind$?_Xlength@?$vector@VKeyPoint@cv@@V?$allocator@VKeyPoint@cv@@@std@@@std@@CAXXZ 0000000180000000     mwsurf.obj
 0004:fff99000       $pdata$?_Change_array@?$vector@VKeyPoint@cv@@V?$allocator@VKeyPoint@cv@@@std@@@std@@AEAAXQEAVKeyPoint@cv@@_K1@Z 0000000180000000     mwsurf.obj
 0002:fffb5000       $unwind$?size@?$vector@VKeyPoint@cv@@V?$allocator@VKeyPoint@cv@@@std@@@std@@QEBA_KXZ 0000000180000000     mwsurf.obj
 0004:fff99000       $pdata$?size@?$vector@VKeyPoint@cv@@V?$allocator@VKeyPoint@cv@@@std@@@std@@QEBA_KXZ 0000000180000000     mwsurf.obj
 0002:fffb5000       $unwind$?max_size@?$vector@VKeyPoint@cv@@V?$allocator@VKeyPoint@cv@@@std@@@std@@QEBA_KXZ 0000000180000000     mwsurf.obj
 0004:fff99000       $pdata$?max_size@?$vector@VKeyPoint@cv@@V?$allocator@VKeyPoint@cv@@@std@@@std@@QEBA_KXZ 0000000180000000     mwsurf.obj
 0002:fffb5000       $unwind$?capacity@?$vector@VKeyPoint@cv@@V?$allocator@VKeyPoint@cv@@@std@@@std@@QEBA_KXZ 0000000180000000     mwsurf.obj
 0004:fff99000       $pdata$?capacity@?$vector@VKeyPoint@cv@@V?$allocator@VKeyPoint@cv@@@std@@@std@@QEBA_KXZ 0000000180000000     mwsurf.obj
 0002:fffb5000       $unwind$?_Has_unused_capacity@?$vector@VKeyPoint@cv@@V?$allocator@VKeyPoint@cv@@@std@@@std@@AEBA_NXZ 0000000180000000     mwsurf.obj
 0004:fff99000       $pdata$?_Has_unused_capacity@?$vector@VKeyPoint@cv@@V?$allocator@VKeyPoint@cv@@@std@@@std@@AEBA_NXZ 0000000180000000     mwsurf.obj
 0002:fffb5000       $unwind$??A?$vector@VKeyPoint@cv@@V?$allocator@VKeyPoint@cv@@@std@@@std@@QEAAAEAVKeyPoint@cv@@_K@Z 0000000180000000     mwsurf.obj
 0004:fff99000       $pdata$??A?$vector@VKeyPoint@cv@@V?$allocator@VKeyPoint@cv@@@std@@@std@@QEAAAEAVKeyPoint@cv@@_K@Z 0000000180000000     mwsurf.obj
 0002:fffb5000       $unwind$?_Change_array@?$vector@VKeyPoint@cv@@V?$allocator@VKeyPoint@cv@@@std@@@std@@AEAAXQEAVKeyPoint@cv@@_K1@Z 0000000180000000     mwsurf.obj
 0004:fff99000       $pdata$?_Calculate_growth@?$vector@VKeyPoint@cv@@V?$allocator@VKeyPoint@cv@@@std@@@std@@AEBA_K_K@Z 0000000180000000     mwsurf.obj
 0002:fffb5000       $unwind$?_Umove_if_noexcept1@?$vector@VKeyPoint@cv@@V?$allocator@VKeyPoint@cv@@@std@@@std@@AEAAXPEAVKeyPoint@cv@@00U?$integral_constant@_N$0A@@2@@Z 0000000180000000     mwsurf.obj
 0004:fff99000       $pdata$?_Umove_if_noexcept1@?$vector@VKeyPoint@cv@@V?$allocator@VKeyPoint@cv@@@std@@@std@@AEAAXPEAVKeyPoint@cv@@00U?$integral_constant@_N$0A@@2@@Z 0000000180000000     mwsurf.obj
 0002:fffb5000       $unwind$?_Umove_if_noexcept@?$vector@VKeyPoint@cv@@V?$allocator@VKeyPoint@cv@@@std@@@std@@AEAAXPEAVKeyPoint@cv@@00@Z 0000000180000000     mwsurf.obj
 0004:fff99000       $pdata$?_Umove_if_noexcept@?$vector@VKeyPoint@cv@@V?$allocator@VKeyPoint@cv@@@std@@@std@@AEAAXPEAVKeyPoint@cv@@00@Z 0000000180000000     mwsurf.obj
 0002:fffb5000       $unwind$?_Destroy@?$vector@VKeyPoint@cv@@V?$allocator@VKeyPoint@cv@@@std@@@std@@AEAAXPEAVKeyPoint@cv@@0@Z 0000000180000000     mwsurf.obj
 0004:fff99000       $pdata$?_Destroy@?$vector@VKeyPoint@cv@@V?$allocator@VKeyPoint@cv@@@std@@@std@@AEAAXPEAVKeyPoint@cv@@0@Z 0000000180000000     mwsurf.obj
 0002:fffb5000       $unwind$?_Calculate_growth@?$vector@VKeyPoint@cv@@V?$allocator@VKeyPoint@cv@@@std@@@std@@AEBA_K_K@Z 0000000180000000     mwsurf.obj
 0001:fffff00d       __catch$??$emplace_back@AEBVKeyPoint@cv@@@?$vector@VKeyPoint@cv@@V?$allocator@VKeyPoint@cv@@@std@@@std@@QEAAXAEBVKeyPoint@cv@@@Z$0 000000018000000d f   mwsurf.obj
 0001:fffff00d       __catch$??$_Uninitialized_copy_al_unchecked@PEAVKeyPoint@cv@@PEAV12@V?$allocator@VKeyPoint@cv@@@std@@@std@@YAPEAVKeyPoint@cv@@PEAV12@00AEAU?$_Wrap_alloc@V?$allocator@VKeyPoint@cv@@@std@@@0@U_General_ptr_iterator_tag@0@U_Any_tag@0@@Z$0 000000018000000d f   mwsurf.obj
 0001:fffff018       ?dtor$1@?0???0Mat@cv@@QEAA@HHHPEAX_K@Z@4HA 0000000180000018 f   mwsurf.obj
 0001:fffff018       ?dtor$1@?0???0Mat@cv@@QEAA@HHHPEAX_K@Z@4HA 0000000180000018 f   fastHessianDetectorCore.obj
 0001:fffff01b       ?catch$1@?0???$?6U?$char_traits@D@std@@@std@@YAAEAV?$basic_ostream@DU?$char_traits@D@std@@@0@AEAV10@PEBD@Z@4HA 000000018000001b f   cgCommon.obj
 0001:fffff01b       ?catch$1@?0???$?6U?$char_traits@D@std@@@std@@YAAEAV?$basic_ostream@DU?$char_traits@D@std@@@0@AEAV10@PEBD@Z@4HA 000000018000001b f   fastHessianDetectorCore.obj
 0001:fffff028       __catch$??$?6U?$char_traits@D@std@@@std@@YAAEAV?$basic_ostream@DU?$char_traits@D@std@@@0@AEAV10@PEBD@Z$0 0000000180000028 f   fastHessianDetectorCore.obj
 0001:fffff028       __catch$??$?6U?$char_traits@D@std@@@std@@YAAEAV?$basic_ostream@DU?$char_traits@D@std@@@0@AEAV10@PEBD@Z$0 0000000180000028 f   cgCommon.obj
 0001:00000000       ??__E?policy@?$SinglePolicy@H@anyimpl@cvflann@@0U?$small_any_policy@H@23@A@@YAXXZ 0000000180001000 f   extractSurfCore.obj
 0001:00000030       ??__E?policy@?$SinglePolicy@I@anyimpl@cvflann@@0U?$small_any_policy@I@23@A@@YAXXZ 0000000180001030 f   extractSurfCore.obj
 0001:00000060       ??__E?policy@?$SinglePolicy@M@anyimpl@cvflann@@0U?$small_any_policy@M@23@A@@YAXXZ 0000000180001060 f   extractSurfCore.obj
 0001:00000090       ??__E?policy@?$SinglePolicy@PEBD@anyimpl@cvflann@@0U?$small_any_policy@PEBD@23@A@@YAXXZ 0000000180001090 f   extractSurfCore.obj
 0001:000000c0       ??__E?policy@?$SinglePolicy@Uempty_any@anyimpl@cvflann@@@anyimpl@cvflann@@0U?$big_any_policy@Uempty_any@anyimpl@cvflann@@@23@A@@YAXXZ 00000001800010c0 f   extractSurfCore.obj
 0001:000000f0       ??__E?policy@?$SinglePolicy@VString@cv@@@anyimpl@cvflann@@0U?$big_any_policy@VString@cv@@@23@A@@YAXXZ 00000001800010f0 f   extractSurfCore.obj
 0001:00000120       ??__E?policy@?$SinglePolicy@W4flann_algorithm_t@cvflann@@@anyimpl@cvflann@@0U?$big_any_policy@W4flann_algorithm_t@cvflann@@@23@A@@YAXXZ 0000000180001120 f   extractSurfCore.obj
 0001:00000150       ??__E?policy@?$SinglePolicy@W4flann_centers_init_t@cvflann@@@anyimpl@cvflann@@0U?$big_any_policy@W4flann_centers_init_t@cvflann@@@23@A@@YAXXZ 0000000180001150 f   extractSurfCore.obj
 0001:00000180       ??__E?policy@?$SinglePolicy@_N@anyimpl@cvflann@@0U?$small_any_policy@_N@23@A@@YAXXZ 0000000180001180 f   extractSurfCore.obj
 0001:000001b0       ??__E?policy@?$SinglePolicy@H@anyimpl@cvflann@@0U?$small_any_policy@H@23@A@@YAXXZ 00000001800011b0 f   cgCommon.obj
 0001:000001e0       ??__E?policy@?$SinglePolicy@I@anyimpl@cvflann@@0U?$small_any_policy@I@23@A@@YAXXZ 00000001800011e0 f   cgCommon.obj
 0001:00000210       ??__E?policy@?$SinglePolicy@M@anyimpl@cvflann@@0U?$small_any_policy@M@23@A@@YAXXZ 0000000180001210 f   cgCommon.obj
 0001:00000240       ??__E?policy@?$SinglePolicy@PEBD@anyimpl@cvflann@@0U?$small_any_policy@PEBD@23@A@@YAXXZ 0000000180001240 f   cgCommon.obj
 0001:00000270       ??__E?policy@?$SinglePolicy@Uempty_any@anyimpl@cvflann@@@anyimpl@cvflann@@0U?$big_any_policy@Uempty_any@anyimpl@cvflann@@@23@A@@YAXXZ 0000000180001270 f   cgCommon.obj
 0001:000002a0       ??__E?policy@?$SinglePolicy@VString@cv@@@anyimpl@cvflann@@0U?$big_any_policy@VString@cv@@@23@A@@YAXXZ 00000001800012a0 f   cgCommon.obj
 0001:000002d0       ??__E?policy@?$SinglePolicy@W4flann_algorithm_t@cvflann@@@anyimpl@cvflann@@0U?$big_any_policy@W4flann_algorithm_t@cvflann@@@23@A@@YAXXZ 00000001800012d0 f   cgCommon.obj
 0001:00000300       ??__E?policy@?$SinglePolicy@W4flann_centers_init_t@cvflann@@@anyimpl@cvflann@@0U?$big_any_policy@W4flann_centers_init_t@cvflann@@@23@A@@YAXXZ 0000000180001300 f   cgCommon.obj
 0001:00000330       ??__E?policy@?$SinglePolicy@_N@anyimpl@cvflann@@0U?$small_any_policy@_N@23@A@@YAXXZ 0000000180001330 f   cgCommon.obj
 0001:00000360       ??__E?findMaximaInLayer_m@MWSURFFindInvoker@cv@@2VMutex@2@A@@YAXXZ 0000000180001360 f   mwsurf.obj
 0001:00000390       ??__E?policy@?$SinglePolicy@H@anyimpl@cvflann@@0U?$small_any_policy@H@23@A@@YAXXZ 0000000180001390 f   fastHessianDetectorCore.obj
 0001:000003c0       ??__E?policy@?$SinglePolicy@I@anyimpl@cvflann@@0U?$small_any_policy@I@23@A@@YAXXZ 00000001800013c0 f   fastHessianDetectorCore.obj
 0001:000003f0       ??__E?policy@?$SinglePolicy@M@anyimpl@cvflann@@0U?$small_any_policy@M@23@A@@YAXXZ 00000001800013f0 f   fastHessianDetectorCore.obj
 0001:00000420       ??__E?policy@?$SinglePolicy@PEBD@anyimpl@cvflann@@0U?$small_any_policy@PEBD@23@A@@YAXXZ 0000000180001420 f   fastHessianDetectorCore.obj
 0001:00000450       ??__E?policy@?$SinglePolicy@Uempty_any@anyimpl@cvflann@@@anyimpl@cvflann@@0U?$big_any_policy@Uempty_any@anyimpl@cvflann@@@23@A@@YAXXZ 0000000180001450 f   fastHessianDetectorCore.obj
 0001:00000480       ??__E?policy@?$SinglePolicy@VString@cv@@@anyimpl@cvflann@@0U?$big_any_policy@VString@cv@@@23@A@@YAXXZ 0000000180001480 f   fastHessianDetectorCore.obj
 0001:000004b0       ??__E?policy@?$SinglePolicy@W4flann_algorithm_t@cvflann@@@anyimpl@cvflann@@0U?$big_any_policy@W4flann_algorithm_t@cvflann@@@23@A@@YAXXZ 00000001800014b0 f   fastHessianDetectorCore.obj
 0001:000004e0       ??__E?policy@?$SinglePolicy@W4flann_centers_init_t@cvflann@@@anyimpl@cvflann@@0U?$big_any_policy@W4flann_centers_init_t@cvflann@@@23@A@@YAXXZ 00000001800014e0 f   fastHessianDetectorCore.obj
 0001:00000510       ??__E?policy@?$SinglePolicy@_N@anyimpl@cvflann@@0U?$small_any_policy@_N@23@A@@YAXXZ 0000000180001510 f   fastHessianDetectorCore.obj
 0001:00001680       initialize_c3_MotionObjectDetector 0000000180002680 f   c3_MotionObjectDetector.obj
 0001:00001710       initialize_params_c3_MotionObjectDetector 0000000180002710 f   c3_MotionObjectDetector.obj
 0001:00001720       enable_c3_MotionObjectDetector 0000000180002720 f   c3_MotionObjectDetector.obj
 0001:00001750       disable_c3_MotionObjectDetector 0000000180002750 f   c3_MotionObjectDetector.obj
 0001:00001780       c3_do_animation_call_c3_MotionObjectDetector 0000000180002780 f   c3_MotionObjectDetector.obj
 0001:000017c0       get_sim_state_c3_MotionObjectDetector 00000001800027c0 f   c3_MotionObjectDetector.obj
 0001:000018a0       set_sim_state_c3_MotionObjectDetector 00000001800028a0 f   c3_MotionObjectDetector.obj
 0001:00001920       finalize_c3_MotionObjectDetector 0000000180002920 f   c3_MotionObjectDetector.obj
 0001:00001960       sf_gateway_c3_MotionObjectDetector 0000000180002960 f   c3_MotionObjectDetector.obj
 0001:00001a70       mdl_start_c3_MotionObjectDetector 0000000180002a70 f   c3_MotionObjectDetector.obj
 0001:00001d60       c3_chartstep_c3_MotionObjectDetector 0000000180002d60 f   c3_MotionObjectDetector.obj
 0001:00008cb0       initSimStructsc3_MotionObjectDetector 0000000180009cb0 f   c3_MotionObjectDetector.obj
 0001:00008cc0       c3_SURFPoints_cg_SURFPoints_cg 0000000180009cc0 f   c3_MotionObjectDetector.obj
 0001:0000a3a0       c3_FeaturePointsImpl_checkLocation 000000018000b3a0 f   c3_MotionObjectDetector.obj
 0001:0000b1b0       c3_inputMeetsSizeRequirement 000000018000c1b0 f   c3_MotionObjectDetector.obj
 0001:0000b2d0       c3_FeaturePointsImpl_checkMetric 000000018000c2d0 f   c3_MotionObjectDetector.obj
 0001:0000b980       c3_all                     000000018000c980 f   c3_MotionObjectDetector.obj
 0001:0000bb00       c3_SURFPointsImpl_checkScale 000000018000cb00 f   c3_MotionObjectDetector.obj
 0001:0000c5b0       c3_b_all                   000000018000d5b0 f   c3_MotionObjectDetector.obj
 0001:0000c8f0       c3_check_forloop_overflow_error 000000018000d8f0 f   c3_MotionObjectDetector.obj
 0001:0000cb00       c3_assertValidSizeArg      000000018000db00 f   c3_MotionObjectDetector.obj
 0001:0000cde0       c3_extractFeatures         000000018000dde0 f   c3_MotionObjectDetector.obj
 0001:0000fbc0       c3_extractSurfBuildable_extractSurf_uint8 0000000180010bc0 f   c3_MotionObjectDetector.obj
 0001:00010500       c3_b_SURFPoints_cg_SURFPoints_cg 0000000180011500 f   c3_MotionObjectDetector.obj
 0001:00012650       c3_b_extractSurfBuildable_extractSurf_uint8 0000000180013650 f   c3_MotionObjectDetector.obj
 0001:00012f90       c3_findMatchesExhaustive   0000000180013f90 f   c3_MotionObjectDetector.obj
 0001:000187e0       c3_partialSort             00000001800197e0 f   c3_MotionObjectDetector.obj
 0001:0001bf80       c3_allinrange              000000018001cf80 f   c3_MotionObjectDetector.obj
 0001:0001c090       c3_emlrt_marshallIn        000000018001d090 f   c3_MotionObjectDetector.obj
 0001:0001c100       c3_b_emlrt_marshallIn      000000018001d100 f   c3_MotionObjectDetector.obj
 0001:0001c190       c3_sf_marshallOut_matrix500x500x3_uint8_T 000000018001d190 f   c3_MotionObjectDetector.obj
 0001:0001c330       c3_c_emlrt_marshallIn      000000018001d330 f   c3_MotionObjectDetector.obj
 0001:0001c430       c3_sf_marshallIn_matrix500x500x3_uint8_T 000000018001d430 f   c3_MotionObjectDetector.obj
 0001:0001c5c0       c3_sf_marshallOut_matrix189x267x3_uint8_T 000000018001d5c0 f   c3_MotionObjectDetector.obj
 0001:0001c780       c3_d_emlrt_marshallIn      000000018001d780 f   c3_MotionObjectDetector.obj
 0001:0001c890       c3_sf_marshallIn_matrix189x267x3_uint8_T 000000018001d890 f   c3_MotionObjectDetector.obj
 0001:0001ca20       c3_sf_marshallOut_matrix189x267_uint8_T 000000018001da20 f   c3_MotionObjectDetector.obj
 0001:0001cb90       c3_e_emlrt_marshallIn      000000018001db90 f   c3_MotionObjectDetector.obj
 0001:0001cc90       c3_sf_marshallIn_matrix189x267_uint8_T 000000018001dc90 f   c3_MotionObjectDetector.obj
 0001:0001cde0       c3_sf_marshallOut_matrix500x500_uint8_T 000000018001dde0 f   c3_MotionObjectDetector.obj
 0001:0001cf30       c3_f_emlrt_marshallIn      000000018001df30 f   c3_MotionObjectDetector.obj
 0001:0001d020       c3_sf_marshallIn_matrix500x500_uint8_T 000000018001e020 f   c3_MotionObjectDetector.obj
 0001:0001d160       c3_sf_marshallOut_real_T   000000018001e160 f   c3_MotionObjectDetector.obj
 0001:0001d210       c3_g_emlrt_marshallIn      000000018001e210 f   c3_MotionObjectDetector.obj
 0001:0001d2a0       c3_sf_marshallIn_real_T    000000018001e2a0 f   c3_MotionObjectDetector.obj
 0001:0001d350       c3_emlrt_marshallOut       000000018001e350 f   c3_MotionObjectDetector.obj
 0001:0001d400       c3_b_emlrt_marshallOut     000000018001e400 f   c3_MotionObjectDetector.obj
 0001:0001d490       c3_c_emlrt_marshallOut     000000018001e490 f   c3_MotionObjectDetector.obj
 0001:0001d520       c3_sf_marshallOut_vision_internal_SURFPoints_cg 000000018001e520 f   c3_MotionObjectDetector.obj
 0001:0001d780       c3_h_emlrt_marshallIn      000000018001e780 f   c3_MotionObjectDetector.obj
 0001:0001da30       c3_i_emlrt_marshallIn      000000018001ea30 f   c3_MotionObjectDetector.obj
 0001:0001dd30       c3_j_emlrt_marshallIn      000000018001ed30 f   c3_MotionObjectDetector.obj
 0001:0001df50       c3_k_emlrt_marshallIn      000000018001ef50 f   c3_MotionObjectDetector.obj
 0001:0001e170       c3_sf_marshallIn_vision_internal_SURFPoints_cg 000000018001f170 f   c3_MotionObjectDetector.obj
 0001:0001e250       c3_sf_marshallOut_dynamicmatrix 000000018001f250 f   c3_MotionObjectDetector.obj
 0001:0001e470       c3_l_emlrt_marshallIn      000000018001f470 f   c3_MotionObjectDetector.obj
 0001:0001e770       c3_sf_marshallIn_dynamicmatrix 000000018001f770 f   c3_MotionObjectDetector.obj
 0001:0001e9a0       c3_sf_marshallOut_dynamicmatrix_1 000000018001f9a0 f   c3_MotionObjectDetector.obj
 0001:0001ebc0       c3_m_emlrt_marshallIn      000000018001fbc0 f   c3_MotionObjectDetector.obj
 0001:0001eec0       c3_sf_marshallIn_dynamicmatrix_1 000000018001fec0 f   c3_MotionObjectDetector.obj
 0001:0001f0f0       c3_chart_data_browse_helper 00000001800200f0 f   c3_MotionObjectDetector.obj
 0001:0001f200       c3_c_SURFPointsImpl_configure 0000000180020200 f   c3_MotionObjectDetector.obj
 0001:00020e70       c3_d_SURFPointsImpl_configure 0000000180021e70 f   c3_MotionObjectDetector.obj
 0001:00022cc0       c3_b_normalizeX            0000000180023cc0 f   c3_MotionObjectDetector.obj
 0001:00024700       c3_b_sort                  0000000180025700 f   c3_MotionObjectDetector.obj
 0001:00024ba0       c3_b_sortIdx               0000000180025ba0 f   c3_MotionObjectDetector.obj
 0001:000266a0       c3_b_merge_block           00000001800276a0 f   c3_MotionObjectDetector.obj
 0001:00026930       c3_b_merge                 0000000180027930 f   c3_MotionObjectDetector.obj
 0001:00026d00       c3_emxEnsureCapacity_real32_T 0000000180027d00 f   c3_MotionObjectDetector.obj
 0001:00026e80       c3_emxEnsureCapacity_real32_T1 0000000180027e80 f   c3_MotionObjectDetector.obj
 0001:00027000       c3_emxEnsureCapacity_int8_T 0000000180028000 f   c3_MotionObjectDetector.obj
 0001:00027180       c3_emxCopyStruct_sJTMl20J2MtSHoTgq 0000000180028180 f   c3_MotionObjectDetector.obj
 0001:00027240       c3_emxCopy_real32_T        0000000180028240 f   c3_MotionObjectDetector.obj
 0001:00027390       c3_emxCopy_real32_T1       0000000180028390 f   c3_MotionObjectDetector.obj
 0001:000274e0       c3_emxCopy_int8_T          00000001800284e0 f   c3_MotionObjectDetector.obj
 0001:00027630       c3_emxCopyStruct_vision_internal_S 0000000180028630 f   c3_MotionObjectDetector.obj
 0001:00027710       c3_emxEnsureCapacity_int32_T 0000000180028710 f   c3_MotionObjectDetector.obj
 0001:00027890       c3_emxCopyStruct_s2rdWZ6jAA0S8hk59 0000000180028890 f   c3_MotionObjectDetector.obj
 0001:00027970       c3_emxEnsureCapacity_uint32_T 0000000180028970 f   c3_MotionObjectDetector.obj
 0001:00027af0       c3_emxInitStruct_vision_internal_S 0000000180028af0 f   c3_MotionObjectDetector.obj
 0001:00027bb0       c3_emxInit_real32_T        0000000180028bb0 f   c3_MotionObjectDetector.obj
 0001:00027cb0       c3_emxInit_real32_T1       0000000180028cb0 f   c3_MotionObjectDetector.obj
 0001:00027db0       c3_emxInit_int8_T          0000000180028db0 f   c3_MotionObjectDetector.obj
 0001:00027eb0       c3_emxInit_uint32_T        0000000180028eb0 f   c3_MotionObjectDetector.obj
 0001:00027fb0       c3_emxInitStruct_sJTMl20J2MtSHoTgq 0000000180028fb0 f   c3_MotionObjectDetector.obj
 0001:00028050       c3_emxInitStruct_s2rdWZ6jAA0S8hk59 0000000180029050 f   c3_MotionObjectDetector.obj
 0001:00028110       c3_emxInit_int32_T         0000000180029110 f   c3_MotionObjectDetector.obj
 0001:00028210       c3_emxFree_real32_T        0000000180029210 f   c3_MotionObjectDetector.obj
 0001:00028290       c3_emxFreeStruct_vision_internal_S 0000000180029290 f   c3_MotionObjectDetector.obj
 0001:00028320       c3_emxFree_int8_T          0000000180029320 f   c3_MotionObjectDetector.obj
 0001:000283a0       c3_emxFree_uint32_T        00000001800293a0 f   c3_MotionObjectDetector.obj
 0001:00028420       c3_emxFreeStruct_sJTMl20J2MtSHoTgq 0000000180029420 f   c3_MotionObjectDetector.obj
 0001:00028490       c3_emxFreeStruct_s2rdWZ6jAA0S8hk59 0000000180029490 f   c3_MotionObjectDetector.obj
 0001:00028520       c3_emxFree_int32_T         0000000180029520 f   c3_MotionObjectDetector.obj
 0001:000285a0       c3_emxEnsureCapacity_boolean_T 00000001800295a0 f   c3_MotionObjectDetector.obj
 0001:00028720       c3_emxInitStruct_sTGP517nzdmMmY48R 0000000180029720 f   c3_MotionObjectDetector.obj
 0001:000287c0       c3_emxInit_boolean_T       00000001800297c0 f   c3_MotionObjectDetector.obj
 0001:000288c0       c3_emxFreeStruct_sTGP517nzdmMmY48R 00000001800298c0 f   c3_MotionObjectDetector.obj
 0001:00028930       c3_emxFree_boolean_T       0000000180029930 f   c3_MotionObjectDetector.obj
 0001:000289b0       c3_emxInitStruct_sGhH0Msgf1shDAvf5 00000001800299b0 f   c3_MotionObjectDetector.obj
 0001:00028a70       c3_emxFreeStruct_sGhH0Msgf1shDAvf5 0000000180029a70 f   c3_MotionObjectDetector.obj
 0001:00028b00       c3_emxEnsureCapacity_real_T 0000000180029b00 f   c3_MotionObjectDetector.obj
 0001:00028c80       c3_emxEnsureCapacity_boolean_T1 0000000180029c80 f   c3_MotionObjectDetector.obj
 0001:00028e00       c3_emxEnsureCapacity_int32_T1 0000000180029e00 f   c3_MotionObjectDetector.obj
 0001:00028f80       c3_emxInit_int32_T1        0000000180029f80 f   c3_MotionObjectDetector.obj
 0001:00029080       c3_emxInit_boolean_T1      000000018002a080 f   c3_MotionObjectDetector.obj
 0001:00029180       c3_emxInit_real_T          000000018002a180 f   c3_MotionObjectDetector.obj
 0001:00029280       c3_emxInitMatrix_cell_wrap_21 000000018002a280 f   c3_MotionObjectDetector.obj
 0001:000292e0       c3_emxInitStruct_cell_wrap_21 000000018002a2e0 f   c3_MotionObjectDetector.obj
 0001:00029320       c3_emxFree_real_T          000000018002a320 f   c3_MotionObjectDetector.obj
 0001:000293a0       c3_emxFreeMatrix_cell_wrap_21 000000018002a3a0 f   c3_MotionObjectDetector.obj
 0001:00029400       c3_emxFreeStruct_cell_wrap_21 000000018002a400 f   c3_MotionObjectDetector.obj
 0001:00029430       c3_emxEnsureCapacity_real_T1 000000018002a430 f   c3_MotionObjectDetector.obj
 0001:000295b0       c3_emxInit_real_T1         000000018002a5b0 f   c3_MotionObjectDetector.obj
 0001:000296b0       init_dsm_address_info      000000018002a6b0 f   c3_MotionObjectDetector.obj
 0001:000296c0       init_simulink_io_address   000000018002a6c0 f   c3_MotionObjectDetector.obj
 0001:000299a0       sf_get_sim_state_info_c3_MotionObjectDetector 000000018002a9a0 f   c3_MotionObjectDetector.obj
 0001:00029a60       sf_opaque_initialize_c3_MotionObjectDetector 000000018002aa60 f   c3_MotionObjectDetector.obj
 0001:00029a90       sf_opaque_enable_c3_MotionObjectDetector 000000018002aa90 f   c3_MotionObjectDetector.obj
 0001:00029ab0       sf_opaque_disable_c3_MotionObjectDetector 000000018002aab0 f   c3_MotionObjectDetector.obj
 0001:00029ad0       sf_opaque_gateway_c3_MotionObjectDetector 000000018002aad0 f   c3_MotionObjectDetector.obj
 0001:00029af0       sf_opaque_get_sim_state_c3_MotionObjectDetector 000000018002aaf0 f   c3_MotionObjectDetector.obj
 0001:00029b20       sf_opaque_set_sim_state_c3_MotionObjectDetector 000000018002ab20 f   c3_MotionObjectDetector.obj
 0001:00029b50       sf_opaque_terminate_c3_MotionObjectDetector 000000018002ab50 f   c3_MotionObjectDetector.obj
 0001:00029bf0       mdlProcessParameters_c3_MotionObjectDetector 000000018002abf0 f   c3_MotionObjectDetector.obj
 0001:00029e50       mdlSetWorkWidths_c3_MotionObjectDetector 000000018002ae50 f   c3_MotionObjectDetector.obj
 0001:00029ee0       mdlRTW_c3_MotionObjectDetector 000000018002aee0 f   c3_MotionObjectDetector.obj
 0001:00029f20       mdlStart_c3_MotionObjectDetector 000000018002af20 f   c3_MotionObjectDetector.obj
 0001:0002c648       $LN180                     000000018002d648     MotionObjectDetector_sfun_registry.obj
 0001:0002d434       $LN17                      000000018002e434     MotionObjectDetector_sfun_registry.obj
 0001:0002db34       $LN26                      000000018002eb34     MotionObjectDetector_sfun_registry.obj
 0001:0002e214       $LN23                      000000018002f214     MotionObjectDetector_sfun_registry.obj
 0001:0002edcc       $LN26                      000000018002fdcc     MotionObjectDetector_sfun_registry.obj
 0001:00031780       ProcessMexSfunctionCmdLineCall 0000000180032780 f   MotionObjectDetector_sfun_registry.obj
 0001:00031a90       mdlSetWorkWidths           0000000180032a90 f   MotionObjectDetector_sfun_registry.obj
 0001:00031ae0       mdlProcessParameters       0000000180032ae0 f   MotionObjectDetector_sfun_registry.obj
 0001:00031b10       mdl_start_processing       0000000180032b10 f   MotionObjectDetector_sfun_registry.obj
 0001:00031b70       mdl_terminate_processing   0000000180032b70 f   MotionObjectDetector_sfun_registry.obj
 0001:00031c30       mdlStart                   0000000180032c30 f   MotionObjectDetector_sfun_registry.obj
 0001:00031c60       mdlTerminate               0000000180032c60 f   MotionObjectDetector_sfun_registry.obj
 0001:00031c90       mdlInitializeSizes         0000000180032c90 f   MotionObjectDetector_sfun_registry.obj
 0001:00031cc0       mdlInitializeSampleTimes   0000000180032cc0 f   MotionObjectDetector_sfun_registry.obj
 0001:00031cf0       mdl_outputs_continuous_legacy 0000000180032cf0 f   MotionObjectDetector_sfun_registry.obj
 0001:00031df0       mdl_outputs_processing     0000000180032df0 f   MotionObjectDetector_sfun_registry.obj
 0001:00031f10       mdl_zeroCrossings_processing 0000000180032f10 f   MotionObjectDetector_sfun_registry.obj
 0001:00031f50       mdlZeroCrossings           0000000180032f50 f   MotionObjectDetector_sfun_registry.obj
 0001:00031f80       mdl_derivatives_processing 0000000180032f80 f   MotionObjectDetector_sfun_registry.obj
 0001:00031fd0       mdlDerivatives             0000000180032fd0 f   MotionObjectDetector_sfun_registry.obj
 0001:00032000       mdl_initialize_conditions_processing 0000000180033000 f   MotionObjectDetector_sfun_registry.obj
 0001:00032050       mdlInitializeConditions    0000000180033050 f   MotionObjectDetector_sfun_registry.obj
 0001:00032080       mdl_ext_mode_exec_processing 0000000180033080 f   MotionObjectDetector_sfun_registry.obj
 0001:000320c0       mdlExtModeExec             00000001800330c0 f   MotionObjectDetector_sfun_registry.obj
 0001:000320f0       mdlRTW                     00000001800330f0 f   MotionObjectDetector_sfun_registry.obj
 0001:00032130       mdl_enable_processing      0000000180033130 f   MotionObjectDetector_sfun_registry.obj
 0001:00032170       mdlEnable                  0000000180033170 f   MotionObjectDetector_sfun_registry.obj
 0001:000321a0       mdl_disable_processing     00000001800331a0 f   MotionObjectDetector_sfun_registry.obj
 0001:000321e0       mdlDisable                 00000001800331e0 f   MotionObjectDetector_sfun_registry.obj
 0001:00032210       mdlOutputs                 0000000180033210 f   MotionObjectDetector_sfun_registry.obj
 0001:00032240       mdl_update_processing      0000000180033240 f   MotionObjectDetector_sfun_registry.obj
 0001:00032290       mdlUpdate                  0000000180033290 f   MotionObjectDetector_sfun_registry.obj
 0001:00032470       mdlGetTimeOfNextVarHit     0000000180033470 f   MotionObjectDetector_sfun_registry.obj
 0001:000324c0       _RegNumInputPortsCB        00000001800334c0 f   MotionObjectDetector_sfun_registry.obj
 0001:00032540       _RegNumOutputPortsCB       0000000180033540 f   MotionObjectDetector_sfun_registry.obj
 0001:000325c0       _CreateSimStruct           00000001800335c0 f   MotionObjectDetector_sfun_registry.obj
 0001:000327c0       _ProcessMexSfunctionCmdLineCall 00000001800337c0 f   MotionObjectDetector_sfun_registry.obj
 0001:00033200       ReportIndexOutOfBoundsError 0000000180034200 f   MotionObjectDetector_sfun_registry.obj
 0001:00033530       ?cvRound@@YAHM@Z           0000000180034530 f   extractSurfCore.obj
 0001:00039470       ?cvRound@@YAHM@Z           000000018003a470 f   mwsurf.obj
 0001:000394b0       ?cvCeil@@YAHM@Z            000000018003a4b0 f   mwsurf.obj
 0001:00039500       ?cvMat@@YA?AUCvMat@@HHHPEAX@Z 000000018003a500 f   mwsurf.obj
 0001:000395f0       ?cvPoint@@YA?AUCvPoint@@HH@Z 000000018003a5f0 f   mwsurf.obj
 0001:0003a690       ?resizeHaarPattern@cv@@YAXQEAY04$$CBHPEAUMWSurfHF@1@HHHH@Z 000000018003b690 f   mwsurf.obj
 0001:0003a8b0       ?calcLayerDetAndTrace@cv@@YAXAEBVMat@1@HHAEAV21@1@Z 000000018003b8b0 f   mwsurf.obj
 0001:0003ae40       ?interpolateKeypoint@cv@@YAHQEAY08MHHHAEAVKeyPoint@1@@Z 000000018003be40 f   mwsurf.obj
 0001:0003c4d0       ?fastHessianDetector@cv@@YAXAEBVMat@1@0AEAV?$vector@VKeyPoint@cv@@V?$allocator@VKeyPoint@cv@@@std@@@std@@HHM@Z 000000018003d4d0 f   mwsurf.obj
 0001:0003c9e0       ??$?8H@cv@@YA_NAEBV?$Size_@H@0@0@Z 000000018003d9e0 f   mwsurf.obj
 0001:0003ca30       ??$saturate_cast@H@cv@@YAHH@Z 000000018003da30 f   mwsurf.obj
 0001:0003ca40       ??$determinant@M$02@cv@@YANAEBV?$Matx@M$02$02@0@@Z 000000018003da40 f   mwsurf.obj
 0001:0003e240       ??$_Resize@V<lambda_12eafce8cd5872c88745c0a2a305f7cc>@@@?$vector@V?$Point_@H@cv@@V?$allocator@V?$Point_@H@cv@@@std@@@std@@AEAAX_KV<lambda_12eafce8cd5872c88745c0a2a305f7cc>@@@Z 000000018003f240 f   mwsurf.obj
 0001:0003e4c0       ??$_Resize@V<lambda_3779c35418698644eae238f3df37bd0b>@@@?$vector@VKeyPoint@cv@@V?$allocator@VKeyPoint@cv@@@std@@@std@@AEAAX_KV<lambda_3779c35418698644eae238f3df37bd0b>@@@Z 000000018003f4c0 f   mwsurf.obj
 0001:0003e750       ??$_Resize@V<lambda_a0fd67340d08d33487be225a22701bdb>@@@?$vector@MV?$allocator@M@std@@@std@@AEAAX_KV<lambda_a0fd67340d08d33487be225a22701bdb>@@@Z 000000018003f750 f   mwsurf.obj
 0001:0003fbe0       ??0<lambda_12eafce8cd5872c88745c0a2a305f7cc>@@QEAA@QEAV?$vector@V?$Point_@H@cv@@V?$allocator@V?$Point_@H@cv@@@std@@@std@@@Z 0000000180040be0 f   mwsurf.obj
 0001:0003fc00       ??0<lambda_3779c35418698644eae238f3df37bd0b>@@QEAA@QEAV?$vector@VKeyPoint@cv@@V?$allocator@VKeyPoint@cv@@@std@@@std@@@Z 0000000180040c00 f   mwsurf.obj
 0001:0003fc20       ??0<lambda_a0fd67340d08d33487be225a22701bdb>@@QEAA@QEAV?$vector@MV?$allocator@M@std@@@std@@@Z 0000000180040c20 f   mwsurf.obj
 0001:000415f0       ??R<lambda_12eafce8cd5872c88745c0a2a305f7cc>@@QEBAPEAV?$Point_@H@cv@@PEAV12@_K@Z 00000001800425f0 f   mwsurf.obj
 0001:00041620       ??R<lambda_3779c35418698644eae238f3df37bd0b>@@QEBAPEAVKeyPoint@cv@@PEAV12@_K@Z 0000000180042620 f   mwsurf.obj
 0001:00041650       ??R<lambda_a0fd67340d08d33487be225a22701bdb>@@QEBAPEAMPEAM_K@Z 0000000180042650 f   mwsurf.obj
 0001:00047074       capture_current_context    0000000180048074 f   MSVCRT:gs_report.obj
 0001:000470e4       capture_previous_context   00000001800480e4 f   MSVCRT:gs_report.obj
 0001:000471e0       $$000000                   00000001800481e0     MSVCRT:_amdsecgs_.obj
 0001:00047220       $$000000                   0000000180048220     MSVCRT:_chkstk_.obj
 0001:00047328       ?find_pe_section@@YAPEAU_IMAGE_SECTION_HEADER@@QEAE_K@Z 0000000180048328 f   MSVCRT:utility.obj
 0001:00047374       ?is_potentially_valid_image_base@@YA_NQEAX@Z 0000000180048374 f   MSVCRT:utility.obj
 0001:00047890       ?dllmain_crt_dispatch@@YAHQEAUHINSTANCE__@@KQEAX@Z 0000000180048890 f   MSVCRT:dll_dllmain.obj
 0001:000478e0       ?dllmain_crt_process_attach@@YAHQEAUHINSTANCE__@@QEAX@Z 00000001800488e0 f   MSVCRT:dll_dllmain.obj
 0001:000479f4       ?dllmain_crt_process_detach@@YAH_N@Z 00000001800489f4 f   MSVCRT:dll_dllmain.obj
 0001:00047a80       ?dllmain_dispatch@@YAHQEAUHINSTANCE__@@KQEAX@Z 0000000180048a80 f   MSVCRT:dll_dllmain.obj
 0001:00047b78       ?dllmain_raw@@YAHQEAUHINSTANCE__@@KQEAX@Z 0000000180048b78 f   MSVCRT:dll_dllmain.obj
 0001:00048640       $$000000                   0000000180049640     MSVCRT:_guard_dispatch_.obj
 0001:00048660       extractSurf_assignOutput$dtor$0 0000000180049660 f   extractSurfCore.obj
 0001:00048678       extractSurf_assignOutput$dtor$1 0000000180049678 f   extractSurfCore.obj
 0001:00048693       extractSurf_assignOutputRM$dtor$0 0000000180049693 f   extractSurfCore.obj
 0001:000486ab       extractSurf_assignOutputRM$dtor$1 00000001800496ab f   extractSurfCore.obj
 0001:000486c6       extractSurf_compute$dtor$0 00000001800496c6 f   extractSurfCore.obj
 0001:000486e1       extractSurf_compute$dtor$1 00000001800496e1 f   extractSurfCore.obj
 0001:000486f9       extractSurf_compute$dtor$2 00000001800496f9 f   extractSurfCore.obj
 0001:00048714       extractSurf_compute$dtor$3 0000000180049714 f   extractSurfCore.obj
 0001:00048731       extractSurf_computeRM$dtor$0 0000000180049731 f   extractSurfCore.obj
 0001:0004874c       extractSurf_computeRM$dtor$1 000000018004974c f   extractSurfCore.obj
 0001:00048764       extractSurf_computeRM$dtor$2 0000000180049764 f   extractSurfCore.obj
 0001:0004877f       extractSurf_computeRM$dtor$3 000000018004977f f   extractSurfCore.obj
 0001:000487a0       ?dtor$0@?0???$?0VMWSURF@cv@@@?$Ptr@VMWSURF@cv@@@cv@@QEAA@PEAVMWSURF@1@@Z@4HA 00000001800497a0 f   extractSurfCore.obj
 0001:000487c0       ?dtor$0@?0???$?6U?$char_traits@D@std@@@std@@YAAEAV?$basic_ostream@DU?$char_traits@D@std@@@0@AEAV10@PEBD@Z@4HA 00000001800497c0 f   extractSurfCore.obj
 0001:000487db       ?catch$1@?0???$?6U?$char_traits@D@std@@@std@@YAAEAV?$basic_ostream@DU?$char_traits@D@std@@@0@AEAV10@PEBD@Z@4HA 00000001800497db f   extractSurfCore.obj
 0001:000487e8       __catch$??$?6U?$char_traits@D@std@@@std@@YAAEAV?$basic_ostream@DU?$char_traits@D@std@@@0@AEAV10@PEBD@Z$0 00000001800497e8 f   extractSurfCore.obj
 0001:00048830       ?catch$0@?0???$_Uninitialized_copy_al_unchecked@PEAVKeyPoint@cv@@PEAV12@V?$allocator@VKeyPoint@cv@@@std@@@std@@YAPEAVKeyPoint@cv@@PEAV12@00AEAU?$_Wrap_alloc@V?$allocator@VKeyPoint@cv@@@std@@@0@U_General_ptr_iterator_tag@0@U_Any_tag@0@@Z@4HA 0000000180049830 f   extractSurfCore.obj
 0001:0004883d       __catch$??$_Uninitialized_copy_al_unchecked@PEAVKeyPoint@cv@@PEAV12@V?$allocator@VKeyPoint@cv@@@std@@@std@@YAPEAVKeyPoint@cv@@PEAV12@00AEAU?$_Wrap_alloc@V?$allocator@VKeyPoint@cv@@@std@@@0@U_General_ptr_iterator_tag@0@U_Any_tag@0@@Z$0 000000018004983d f   extractSurfCore.obj
 0001:00048870       ?dtor$0@?0???$construct@VKeyPoint@cv@@AEAV12@@?$allocator@VKeyPoint@cv@@@std@@QEAAXPEAVKeyPoint@cv@@AEAV23@@Z@4HA 0000000180049870 f   extractSurfCore.obj
 0001:00048890       ?dtor$0@?0???$construct@VKeyPoint@cv@@AEBV12@@?$allocator@VKeyPoint@cv@@@std@@QEAAXPEAVKeyPoint@cv@@AEBV23@@Z@4HA 0000000180049890 f   extractSurfCore.obj
 0001:000488b0       ?catch$0@?0???$emplace_back@AEBVKeyPoint@cv@@@?$vector@VKeyPoint@cv@@V?$allocator@VKeyPoint@cv@@@std@@@std@@QEAAXAEBVKeyPoint@cv@@@Z@4HA 00000001800498b0 f   extractSurfCore.obj
 0001:000488bd       __catch$??$emplace_back@AEBVKeyPoint@cv@@@?$vector@VKeyPoint@cv@@V?$allocator@VKeyPoint@cv@@@std@@@std@@QEAAXAEBVKeyPoint@cv@@@Z$0 00000001800498bd f   extractSurfCore.obj
 0001:00048930       ?dtor$0@?0???$makePtr@VMWSURF@cv@@@cv@@YA?AU?$Ptr@VMWSURF@cv@@@0@XZ@4HA 0000000180049930 f   extractSurfCore.obj
 0001:00048950       ?catch$0@?0???0?$vector@VKeyPoint@cv@@V?$allocator@VKeyPoint@cv@@@std@@@std@@QEAA@AEBV01@@Z@4HA 0000000180049950 f   extractSurfCore.obj
 0001:0004895d       __catch$??0?$vector@VKeyPoint@cv@@V?$allocator@VKeyPoint@cv@@@std@@@std@@QEAA@AEBV01@@Z$0 000000018004995d f   extractSurfCore.obj
 0001:00048980       ?dtor$0@?0???0Mat@cv@@QEAA@HHHPEAX_K@Z@4HA 0000000180049980 f   extractSurfCore.obj
 0001:00048998       ?dtor$1@?0???0Mat@cv@@QEAA@HHHPEAX_K@Z@4HA 0000000180049998 f   extractSurfCore.obj
 0001:000489b0       ?dtor$0@?0???0sentry@?$basic_ostream@DU?$char_traits@D@std@@@std@@QEAA@AEAV12@@Z@4HA 00000001800499b0 f   extractSurfCore.obj
 0001:000489d0       ?dtor$0@?0??clone@?$big_any_policy@VString@cv@@@anyimpl@cvflann@@UEAAXPEBQEAXPEAPEAX@Z@4HA 00000001800499d0 f   extractSurfCore.obj
 0001:000489f0       ?dtor$0@?0??copy_from_value@?$big_any_policy@VString@cv@@@anyimpl@cvflann@@UEAAXPEBXPEAPEAX@Z@4HA 00000001800499f0 f   extractSurfCore.obj
 0001:00048a10       ?dtor$0@?0???0MWSURF@cv@@QEAA@XZ@4HA 0000000180049a10 f   mwsurf.obj
 0001:00048a3a       ?dtor$0@?0???0MWSURF@cv@@QEAA@NHH_N0@Z@4HA 0000000180049a3a f   mwsurf.obj
 0001:00048a64       ?dtor$0@?0???RMWSURF@cv@@QEBAXAEBV_InputArray@1@0AEAV?$vector@VKeyPoint@cv@@V?$allocator@VKeyPoint@cv@@@std@@@std@@AEBV_OutputArray@1@_N@Z@4HA 0000000180049a64 f   mwsurf.obj
 0001:00048a7f       ?dtor$1@?0???RMWSURF@cv@@QEBAXAEBV_InputArray@1@0AEAV?$vector@VKeyPoint@cv@@V?$allocator@VKeyPoint@cv@@@std@@@std@@AEBV_OutputArray@1@_N@Z@4HA 0000000180049a7f f   mwsurf.obj
 0001:00048a9a       ?dtor$2@?0???RMWSURF@cv@@QEBAXAEBV_InputArray@1@0AEAV?$vector@VKeyPoint@cv@@V?$allocator@VKeyPoint@cv@@@std@@@std@@AEBV_OutputArray@1@_N@Z@4HA 0000000180049a9a f   mwsurf.obj
 0001:00048ab5       ?dtor$3@?0???RMWSURF@cv@@QEBAXAEBV_InputArray@1@0AEAV?$vector@VKeyPoint@cv@@V?$allocator@VKeyPoint@cv@@@std@@@std@@AEBV_OutputArray@1@_N@Z@4HA 0000000180049ab5 f   mwsurf.obj
 0001:00048ad0       ?dtor$4@?0???RMWSURF@cv@@QEBAXAEBV_InputArray@1@0AEAV?$vector@VKeyPoint@cv@@V?$allocator@VKeyPoint@cv@@@std@@@std@@AEBV_OutputArray@1@_N@Z@4HA 0000000180049ad0 f   mwsurf.obj
 0001:00048aeb       ?dtor$5@?0???RMWSURF@cv@@QEBAXAEBV_InputArray@1@0AEAV?$vector@VKeyPoint@cv@@V?$allocator@VKeyPoint@cv@@@std@@@std@@AEBV_OutputArray@1@_N@Z@4HA 0000000180049aeb f   mwsurf.obj
 0001:00048b06       ?dtor$6@?0???RMWSURF@cv@@QEBAXAEBV_InputArray@1@0AEAV?$vector@VKeyPoint@cv@@V?$allocator@VKeyPoint@cv@@@std@@@std@@AEBV_OutputArray@1@_N@Z@4HA 0000000180049b06 f   mwsurf.obj
 0001:00048b21       ?dtor$7@?0???RMWSURF@cv@@QEBAXAEBV_InputArray@1@0AEAV?$vector@VKeyPoint@cv@@V?$allocator@VKeyPoint@cv@@@std@@@std@@AEBV_OutputArray@1@_N@Z@4HA 0000000180049b21 f   mwsurf.obj
 0001:00048b3c       ?dtor$8@?0???RMWSURF@cv@@QEBAXAEBV_InputArray@1@0AEAV?$vector@VKeyPoint@cv@@V?$allocator@VKeyPoint@cv@@@std@@@std@@AEBV_OutputArray@1@_N@Z@4HA 0000000180049b3c f   mwsurf.obj
 0001:00048b57       ?dtor$9@?0???RMWSURF@cv@@QEBAXAEBV_InputArray@1@0AEAV?$vector@VKeyPoint@cv@@V?$allocator@VKeyPoint@cv@@@std@@@std@@AEBV_OutputArray@1@_N@Z@4HA 0000000180049b57 f   mwsurf.obj
 0001:00048b72       ?dtor$10@?0???RMWSURF@cv@@QEBAXAEBV_InputArray@1@0AEAV?$vector@VKeyPoint@cv@@V?$allocator@VKeyPoint@cv@@@std@@@std@@AEBV_OutputArray@1@_N@Z@4HA 0000000180049b72 f   mwsurf.obj
 0001:00048b8d       ?dtor$11@?0???RMWSURF@cv@@QEBAXAEBV_InputArray@1@0AEAV?$vector@VKeyPoint@cv@@V?$allocator@VKeyPoint@cv@@@std@@@std@@AEBV_OutputArray@1@_N@Z@4HA 0000000180049b8d f   mwsurf.obj
 0001:00048ba8       ?dtor$12@?0???RMWSURF@cv@@QEBAXAEBV_InputArray@1@0AEAV?$vector@VKeyPoint@cv@@V?$allocator@VKeyPoint@cv@@@std@@@std@@AEBV_OutputArray@1@_N@Z@4HA 0000000180049ba8 f   mwsurf.obj
 0001:00048bc3       ?dtor$13@?0???RMWSURF@cv@@QEBAXAEBV_InputArray@1@0AEAV?$vector@VKeyPoint@cv@@V?$allocator@VKeyPoint@cv@@@std@@@std@@AEBV_OutputArray@1@_N@Z@4HA 0000000180049bc3 f   mwsurf.obj
 0001:00048bde       ?dtor$14@?0???RMWSURF@cv@@QEBAXAEBV_InputArray@1@0AEAV?$vector@VKeyPoint@cv@@V?$allocator@VKeyPoint@cv@@@std@@@std@@AEBV_OutputArray@1@_N@Z@4HA 0000000180049bde f   mwsurf.obj
 0001:00048bf9       ?dtor$15@?0???RMWSURF@cv@@QEBAXAEBV_InputArray@1@0AEAV?$vector@VKeyPoint@cv@@V?$allocator@VKeyPoint@cv@@@std@@@std@@AEBV_OutputArray@1@_N@Z@4HA 0000000180049bf9 f   mwsurf.obj
 0001:00048c14       ?dtor$16@?0???RMWSURF@cv@@QEBAXAEBV_InputArray@1@0AEAV?$vector@VKeyPoint@cv@@V?$allocator@VKeyPoint@cv@@@std@@@std@@AEBV_OutputArray@1@_N@Z@4HA 0000000180049c14 f   mwsurf.obj
 0001:00048c2f       ?dtor$17@?0???RMWSURF@cv@@QEBAXAEBV_InputArray@1@0AEAV?$vector@VKeyPoint@cv@@V?$allocator@VKeyPoint@cv@@@std@@@std@@AEBV_OutputArray@1@_N@Z@4HA 0000000180049c2f f   mwsurf.obj
 0001:00048c4a       ?dtor$18@?0???RMWSURF@cv@@QEBAXAEBV_InputArray@1@0AEAV?$vector@VKeyPoint@cv@@V?$allocator@VKeyPoint@cv@@@std@@@std@@AEBV_OutputArray@1@_N@Z@4HA 0000000180049c4a f   mwsurf.obj
 0001:00048c65       ?dtor$19@?0???RMWSURF@cv@@QEBAXAEBV_InputArray@1@0AEAV?$vector@VKeyPoint@cv@@V?$allocator@VKeyPoint@cv@@@std@@@std@@AEBV_OutputArray@1@_N@Z@4HA 0000000180049c65 f   mwsurf.obj
 0001:00048c80       ?dtor$20@?0???RMWSURF@cv@@QEBAXAEBV_InputArray@1@0AEAV?$vector@VKeyPoint@cv@@V?$allocator@VKeyPoint@cv@@@std@@@std@@AEBV_OutputArray@1@_N@Z@4HA 0000000180049c80 f   mwsurf.obj
 0001:00048c9b       ?dtor$21@?0???RMWSURF@cv@@QEBAXAEBV_InputArray@1@0AEAV?$vector@VKeyPoint@cv@@V?$allocator@VKeyPoint@cv@@@std@@@std@@AEBV_OutputArray@1@_N@Z@4HA 0000000180049c9b f   mwsurf.obj
 0001:00048cb6       ?dtor$22@?0???RMWSURF@cv@@QEBAXAEBV_InputArray@1@0AEAV?$vector@VKeyPoint@cv@@V?$allocator@VKeyPoint@cv@@@std@@@std@@AEBV_OutputArray@1@_N@Z@4HA 0000000180049cb6 f   mwsurf.obj
 0001:00048cd1       ?dtor$23@?0???RMWSURF@cv@@QEBAXAEBV_InputArray@1@0AEAV?$vector@VKeyPoint@cv@@V?$allocator@VKeyPoint@cv@@@std@@@std@@AEBV_OutputArray@1@_N@Z@4HA 0000000180049cd1 f   mwsurf.obj
 0001:00048cec       ?dtor$24@?0???RMWSURF@cv@@QEBAXAEBV_InputArray@1@0AEAV?$vector@VKeyPoint@cv@@V?$allocator@VKeyPoint@cv@@@std@@@std@@AEBV_OutputArray@1@_N@Z@4HA 0000000180049cec f   mwsurf.obj
 0001:00048d07       ?dtor$25@?0???RMWSURF@cv@@QEBAXAEBV_InputArray@1@0AEAV?$vector@VKeyPoint@cv@@V?$allocator@VKeyPoint@cv@@@std@@@std@@AEBV_OutputArray@1@_N@Z@4HA 0000000180049d07 f   mwsurf.obj
 0001:00048d22       ?dtor$0@?0??detectImpl@MWSURF@cv@@IEBAXAEBVMat@2@AEAV?$vector@VKeyPoint@cv@@V?$allocator@VKeyPoint@cv@@@std@@@std@@0@Z@4HA 0000000180049d22 f   mwsurf.obj
 0001:00048d3a       ?dtor$1@?0??detectImpl@MWSURF@cv@@IEBAXAEBVMat@2@AEAV?$vector@VKeyPoint@cv@@V?$allocator@VKeyPoint@cv@@@std@@@std@@0@Z@4HA 0000000180049d3a f   mwsurf.obj
 0001:00048d52       ?dtor$0@?0??computeImpl@MWSURF@cv@@IEBAXAEBVMat@2@AEAV?$vector@VKeyPoint@cv@@V?$allocator@VKeyPoint@cv@@@std@@@std@@AEAV32@@Z@4HA 0000000180049d52 f   mwsurf.obj
 0001:00048d6a       ?dtor$1@?0??computeImpl@MWSURF@cv@@IEBAXAEBVMat@2@AEAV?$vector@VKeyPoint@cv@@V?$allocator@VKeyPoint@cv@@@std@@@std@@AEAV32@@Z@4HA 0000000180049d6a f   mwsurf.obj
 0001:00048d85       ?dtor$2@?0??computeImpl@MWSURF@cv@@IEBAXAEBVMat@2@AEAV?$vector@VKeyPoint@cv@@V?$allocator@VKeyPoint@cv@@@std@@@std@@AEAV32@@Z@4HA 0000000180049d85 f   mwsurf.obj
 0001:00048d9d       ?dtor$3@?0??computeImpl@MWSURF@cv@@IEBAXAEBVMat@2@AEAV?$vector@VKeyPoint@cv@@V?$allocator@VKeyPoint@cv@@@std@@@std@@AEAV32@@Z@4HA 0000000180049d9d f   mwsurf.obj
 0001:00048db5       ?dtor$0@?0??findMaximaInLayer@MWSURFFindInvoker@cv@@SAXAEBVMat@2@0AEBV?$vector@VMat@cv@@V?$allocator@VMat@cv@@@std@@@std@@1AEBV?$vector@HV?$allocator@H@std@@@5@AEAV?$vector@VKeyPoint@cv@@V?$allocator@VKeyPoint@cv@@@std@@@5@HHMH@Z@4HA 0000000180049db5 f   mwsurf.obj
 0001:00048dd0       ?dtor$0@?0??fastHessianDetector@cv@@YAXAEBVMat@1@0AEAV?$vector@VKeyPoint@cv@@V?$allocator@VKeyPoint@cv@@@std@@@std@@HHM@Z@4HA 0000000180049dd0 f   mwsurf.obj
 0001:00048deb       ?dtor$1@?0??fastHessianDetector@cv@@YAXAEBVMat@1@0AEAV?$vector@VKeyPoint@cv@@V?$allocator@VKeyPoint@cv@@@std@@@std@@HHM@Z@4HA 0000000180049deb f   mwsurf.obj
 0001:00048e06       ?dtor$2@?0??fastHessianDetector@cv@@YAXAEBVMat@1@0AEAV?$vector@VKeyPoint@cv@@V?$allocator@VKeyPoint@cv@@@std@@@std@@HHM@Z@4HA 0000000180049e06 f   mwsurf.obj
 0001:00048e21       ?dtor$3@?0??fastHessianDetector@cv@@YAXAEBVMat@1@0AEAV?$vector@VKeyPoint@cv@@V?$allocator@VKeyPoint@cv@@@std@@@std@@HHM@Z@4HA 0000000180049e21 f   mwsurf.obj
 0001:00048e3c       ?dtor$4@?0??fastHessianDetector@cv@@YAXAEBVMat@1@0AEAV?$vector@VKeyPoint@cv@@V?$allocator@VKeyPoint@cv@@@std@@@std@@HHM@Z@4HA 0000000180049e3c f   mwsurf.obj
 0001:00048e57       ?dtor$5@?0??fastHessianDetector@cv@@YAXAEBVMat@1@0AEAV?$vector@VKeyPoint@cv@@V?$allocator@VKeyPoint@cv@@@std@@@std@@HHM@Z@4HA 0000000180049e57 f   mwsurf.obj
 0001:00048e72       ?dtor$6@?0??fastHessianDetector@cv@@YAXAEBVMat@1@0AEAV?$vector@VKeyPoint@cv@@V?$allocator@VKeyPoint@cv@@@std@@@std@@HHM@Z@4HA 0000000180049e72 f   mwsurf.obj
 0001:00048e90       ?dtor$0@?0???$?0M$02$00@Mat@cv@@QEAA@AEBV?$Matx@M$02$00@1@_N@Z@4HA 0000000180049e90 f   mwsurf.obj
 0001:00048ea8       ?dtor$1@?0???$?0M$02$00@Mat@cv@@QEAA@AEBV?$Matx@M$02$00@1@_N@Z@4HA 0000000180049ea8 f   mwsurf.obj
 0001:00048ed0       ?dtor$0@?0???$?0M$02$02@Mat@cv@@QEAA@AEBV?$Matx@M$02$02@1@_N@Z@4HA 0000000180049ed0 f   mwsurf.obj
 0001:00048ee8       ?dtor$1@?0???$?0M$02$02@Mat@cv@@QEAA@AEBV?$Matx@M$02$02@1@_N@Z@4HA 0000000180049ee8 f   mwsurf.obj
 0001:00048f10       ?dtor$0@?0???$?0UCvMat@@@?$Ptr@UCvMat@@@cv@@QEAA@PEAUCvMat@@@Z@4HA 0000000180049f10 f   mwsurf.obj
 0001:00048f30       ?catch$0@?0???$_Resize@V<lambda_12eafce8cd5872c88745c0a2a305f7cc>@@@?$vector@V?$Point_@H@cv@@V?$allocator@V?$Point_@H@cv@@@std@@@std@@AEAAX_KV<lambda_12eafce8cd5872c88745c0a2a305f7cc>@@@Z@4HA 0000000180049f30 f   mwsurf.obj
 0001:00048f3d       __catch$??$_Resize@V<lambda_12eafce8cd5872c88745c0a2a305f7cc>@@@?$vector@V?$Point_@H@cv@@V?$allocator@V?$Point_@H@cv@@@std@@@std@@AEAAX_KV<lambda_12eafce8cd5872c88745c0a2a305f7cc>@@@Z$0 0000000180049f3d f   mwsurf.obj
 0001:00048f90       ?catch$0@?0???$_Resize@V<lambda_3779c35418698644eae238f3df37bd0b>@@@?$vector@VKeyPoint@cv@@V?$allocator@VKeyPoint@cv@@@std@@@std@@AEAAX_KV<lambda_3779c35418698644eae238f3df37bd0b>@@@Z@4HA 0000000180049f90 f   mwsurf.obj
 0001:00048f9d       __catch$??$_Resize@V<lambda_3779c35418698644eae238f3df37bd0b>@@@?$vector@VKeyPoint@cv@@V?$allocator@VKeyPoint@cv@@@std@@@std@@AEAAX_KV<lambda_3779c35418698644eae238f3df37bd0b>@@@Z$0 0000000180049f9d f   mwsurf.obj
 0001:00048ff0       ?catch$0@?0???$_Resize@V<lambda_a0fd67340d08d33487be225a22701bdb>@@@?$vector@MV?$allocator@M@std@@@std@@AEAAX_KV<lambda_a0fd67340d08d33487be225a22701bdb>@@@Z@4HA 0000000180049ff0 f   mwsurf.obj
 0001:00048ffd       __catch$??$_Resize@V<lambda_a0fd67340d08d33487be225a22701bdb>@@@?$vector@MV?$allocator@M@std@@@std@@AEAAX_KV<lambda_a0fd67340d08d33487be225a22701bdb>@@@Z$0 0000000180049ffd f   mwsurf.obj
 0001:00049050       ?catch$0@?0???$_Uninitialized_copy_al_unchecked@PEAV?$Point_@H@cv@@PEAV12@V?$allocator@V?$Point_@H@cv@@@std@@@std@@YAPEAV?$Point_@H@cv@@PEAV12@00AEAU?$_Wrap_alloc@V?$allocator@V?$Point_@H@cv@@@std@@@0@U_General_ptr_iterator_tag@0@U_Any_tag@0@@Z@4HA 000000018004a050 f   mwsurf.obj
 0001:0004905d       __catch$??$_Uninitialized_copy_al_unchecked@PEAV?$Point_@H@cv@@PEAV12@V?$allocator@V?$Point_@H@cv@@@std@@@std@@YAPEAV?$Point_@H@cv@@PEAV12@00AEAU?$_Wrap_alloc@V?$allocator@V?$Point_@H@cv@@@std@@@0@U_General_ptr_iterator_tag@0@U_Any_tag@0@@Z$0 000000018004a05d f   mwsurf.obj
 0001:00049090       ?catch$0@?0???$_Uninitialized_default_fill_n1@PEAV?$Point_@H@cv@@_KV?$allocator@V?$Point_@H@cv@@@std@@@std@@YAPEAV?$Point_@H@cv@@PEAV12@_KAEAU?$_Wrap_alloc@V?$allocator@V?$Point_@H@cv@@@std@@@0@U?$integral_constant@_N$0A@@0@@Z@4HA 000000018004a090 f   mwsurf.obj
 0001:0004909d       __catch$??$_Uninitialized_default_fill_n1@PEAV?$Point_@H@cv@@_KV?$allocator@V?$Point_@H@cv@@@std@@@std@@YAPEAV?$Point_@H@cv@@PEAV12@_KAEAU?$_Wrap_alloc@V?$allocator@V?$Point_@H@cv@@@std@@@0@U?$integral_constant@_N$0A@@0@@Z$0 000000018004a09d f   mwsurf.obj
 0001:000490d0       ?catch$0@?0???$_Uninitialized_default_fill_n1@PEAVKeyPoint@cv@@_KV?$allocator@VKeyPoint@cv@@@std@@@std@@YAPEAVKeyPoint@cv@@PEAV12@_KAEAU?$_Wrap_alloc@V?$allocator@VKeyPoint@cv@@@std@@@0@U?$integral_constant@_N$0A@@0@@Z@4HA 000000018004a0d0 f   mwsurf.obj
 0001:000490dd       __catch$??$_Uninitialized_default_fill_n1@PEAVKeyPoint@cv@@_KV?$allocator@VKeyPoint@cv@@@std@@@std@@YAPEAVKeyPoint@cv@@PEAV12@_KAEAU?$_Wrap_alloc@V?$allocator@VKeyPoint@cv@@@std@@@0@U?$integral_constant@_N$0A@@0@@Z$0 000000018004a0dd f   mwsurf.obj
 0001:00049110       ?catch$0@?0???$_Uninitialized_default_fill_n1@PEAVMat@cv@@_KV?$allocator@VMat@cv@@@std@@@std@@YAPEAVMat@cv@@PEAV12@_KAEAU?$_Wrap_alloc@V?$allocator@VMat@cv@@@std@@@0@U?$integral_constant@_N$0A@@0@@Z@4HA 000000018004a110 f   mwsurf.obj
 0001:0004911d       __catch$??$_Uninitialized_default_fill_n1@PEAVMat@cv@@_KV?$allocator@VMat@cv@@@std@@@std@@YAPEAVMat@cv@@PEAV12@_KAEAU?$_Wrap_alloc@V?$allocator@VMat@cv@@@std@@@0@U?$integral_constant@_N$0A@@0@@Z$0 000000018004a11d f   mwsurf.obj
 0001:00049150       ?dtor$0@?0???$construct@V?$Point_@H@cv@@$$V@?$allocator@V?$Point_@H@cv@@@std@@QEAAXPEAV?$Point_@H@cv@@@Z@4HA 000000018004a150 f   mwsurf.obj
 0001:00049170       ?dtor$0@?0???$construct@V?$Point_@H@cv@@AEAV12@@?$allocator@V?$Point_@H@cv@@@std@@QEAAXPEAV?$Point_@H@cv@@AEAV23@@Z@4HA 000000018004a170 f   mwsurf.obj
 0001:00049190       ?dtor$0@?0???$construct@VKeyPoint@cv@@$$V@?$allocator@VKeyPoint@cv@@@std@@QEAAXPEAVKeyPoint@cv@@@Z@4HA 000000018004a190 f   mwsurf.obj
 0001:000491b0       ?dtor$0@?0???$construct@VMat@cv@@$$V@?$allocator@VMat@cv@@@std@@QEAAXPEAVMat@cv@@@Z@4HA 000000018004a1b0 f   mwsurf.obj
 0001:000491d0       ?dtor$0@?0???$solve@$00@?$Matx@M$02$02@cv@@QEBA?AV?$Matx@M$02$00@1@AEBV21@H@Z@4HA 000000018004a1d0 f   mwsurf.obj
 0001:000491eb       ?dtor$1@?0???$solve@$00@?$Matx@M$02$02@cv@@QEBA?AV?$Matx@M$02$00@1@AEBV21@H@Z@4HA 000000018004a1eb f   mwsurf.obj
 0001:00049206       ?dtor$2@?0???$solve@$00@?$Matx@M$02$02@cv@@QEBA?AV?$Matx@M$02$00@1@AEBV21@H@Z@4HA 000000018004a206 f   mwsurf.obj
 0001:00049221       ?dtor$3@?0???$solve@$00@?$Matx@M$02$02@cv@@QEBA?AV?$Matx@M$02$00@1@AEBV21@H@Z@4HA 000000018004a221 f   mwsurf.obj
 0001:0004923c       ?dtor$4@?0???$solve@$00@?$Matx@M$02$02@cv@@QEBA?AV?$Matx@M$02$00@1@AEBV21@H@Z@4HA 000000018004a23c f   mwsurf.obj
 0001:00049254       ?dtor$5@?0???$solve@$00@?$Matx@M$02$02@cv@@QEBA?AV?$Matx@M$02$00@1@AEBV21@H@Z@4HA 000000018004a254 f   mwsurf.obj
 0001:00049270       ?catch$0@?0???0?$vector@HV?$allocator@H@std@@@std@@QEAA@_KAEBV?$allocator@H@1@@Z@4HA 000000018004a270 f   mwsurf.obj
 0001:0004927d       __catch$??0?$vector@HV?$allocator@H@std@@@std@@QEAA@_KAEBV?$allocator@H@1@@Z$0 000000018004a27d f   mwsurf.obj
 0001:000492a0       ?catch$0@?0???0?$vector@VMat@cv@@V?$allocator@VMat@cv@@@std@@@std@@QEAA@_KAEBV?$allocator@VMat@cv@@@1@@Z@4HA 000000018004a2a0 f   mwsurf.obj
 0001:000492ad       __catch$??0?$vector@VMat@cv@@V?$allocator@VMat@cv@@@std@@@std@@QEAA@_KAEBV?$allocator@VMat@cv@@@1@@Z$0 000000018004a2ad f   mwsurf.obj
 0001:000492d0       ?dtor$0@?0???0MWSURFInvoker@cv@@QEAA@AEBVMat@1@0AEAV?$vector@VKeyPoint@cv@@V?$allocator@VKeyPoint@cv@@@std@@@std@@AEAV21@_N3@Z@4HA 000000018004a2d0 f   mwsurf.obj
 0001:000492eb       ?dtor$1@?0???0MWSURFInvoker@cv@@QEAA@AEBVMat@1@0AEAV?$vector@VKeyPoint@cv@@V?$allocator@VKeyPoint@cv@@@std@@@std@@AEAV21@_N3@Z@4HA 000000018004a2eb f   mwsurf.obj
 0001:0004930a       ?dtor$2@?0???0MWSURFInvoker@cv@@QEAA@AEBVMat@1@0AEAV?$vector@VKeyPoint@cv@@V?$allocator@VKeyPoint@cv@@@std@@@std@@AEAV21@_N3@Z@4HA 000000018004a30a f   mwsurf.obj
 0001:00049329       ?dtor$3@?0???0MWSURFInvoker@cv@@QEAA@AEBVMat@1@0AEAV?$vector@VKeyPoint@cv@@V?$allocator@VKeyPoint@cv@@@std@@@std@@AEAV21@_N3@Z@4HA 000000018004a329 f   mwsurf.obj
 0001:00049348       ?dtor$4@?0???0MWSURFInvoker@cv@@QEAA@AEBVMat@1@0AEAV?$vector@VKeyPoint@cv@@V?$allocator@VKeyPoint@cv@@@std@@@std@@AEAV21@_N3@Z@4HA 000000018004a348 f   mwsurf.obj
 0001:00049363       ?dtor$5@?0???0MWSURFInvoker@cv@@QEAA@AEBVMat@1@0AEAV?$vector@VKeyPoint@cv@@V?$allocator@VKeyPoint@cv@@@std@@@std@@AEAV21@_N3@Z@4HA 000000018004a363 f   mwsurf.obj
 0001:0004937b       ?dtor$6@?0???0MWSURFInvoker@cv@@QEAA@AEBVMat@1@0AEAV?$vector@VKeyPoint@cv@@V?$allocator@VKeyPoint@cv@@@std@@@std@@AEAV21@_N3@Z@4HA 000000018004a37b f   mwsurf.obj
 0001:000493a0       ?dtor$0@?0???0_OutputArray@cv@@QEAA@AEAVMat@1@@Z@4HA 000000018004a3a0 f   mwsurf.obj
 0001:000493c0       ?dtor$0@?0???RMWSURFInvoker@cv@@UEBAXAEBVRange@1@@Z@4HA 000000018004a3c0 f   mwsurf.obj
 0001:000493db       ?dtor$1@?0???RMWSURFInvoker@cv@@UEBAXAEBVRange@1@@Z@4HA 000000018004a3db f   mwsurf.obj
 0001:000493f6       ?dtor$2@?0???RMWSURFInvoker@cv@@UEBAXAEBVRange@1@@Z@4HA 000000018004a3f6 f   mwsurf.obj
 0001:00049411       ?dtor$3@?0???RMWSURFInvoker@cv@@UEBAXAEBVRange@1@@Z@4HA 000000018004a411 f   mwsurf.obj
 0001:0004942c       ?dtor$4@?0???RMWSURFInvoker@cv@@UEBAXAEBVRange@1@@Z@4HA 000000018004a42c f   mwsurf.obj
 0001:00049447       ?dtor$5@?0???RMWSURFInvoker@cv@@UEBAXAEBVRange@1@@Z@4HA 000000018004a447 f   mwsurf.obj
 0001:00049470       fastHessianDetector_uint8$dtor$0 000000018004a470 f   fastHessianDetectorCore.obj
 0001:0004948b       fastHessianDetector_uint8$dtor$1 000000018004a48b f   fastHessianDetectorCore.obj
 0001:000494a3       fastHessianDetector_uint8$dtor$2 000000018004a4a3 f   fastHessianDetectorCore.obj
 0001:000494be       fastHessianDetector_uint8$dtor$4 000000018004a4be f   fastHessianDetectorCore.obj
 0001:000494d9       ?dtor$0@?0??configureSURFDetectorCore@@YAXU?$Ptr@VMWSURF@cv@@@cv@@HHH_K1@Z@4HA 000000018004a4d9 f   fastHessianDetectorCore.obj
 0001:000494f1       __scrt_is_nonwritable_in_current_image$filt$0 000000018004a4f1 f   MSVCRT:utility.obj
 0001:00049509       ?fin$0@?0??dllmain_crt_process_attach@@YAHQEAUHINSTANCE__@@QEAX@Z@4HA 000000018004a509 f   MSVCRT:dll_dllmain.obj
 0001:00049520       ?fin$0@?0??dllmain_crt_process_detach@@YAH_N@Z@4HA 000000018004a520 f   MSVCRT:dll_dllmain.obj
 0001:0004953c       ?filt$0@?0??dllmain_dispatch@@YAHQEAUHINSTANCE__@@KQEAX@Z@4HA 000000018004a53c f   MSVCRT:dll_dllmain.obj
 0001:00049580       ??__F?policy@?$SinglePolicy@H@anyimpl@cvflann@@0U?$small_any_policy@H@23@A@@YAXXZ 000000018004a580 f   extractSurfCore.obj
 0001:000495a0       ??__F?policy@?$SinglePolicy@I@anyimpl@cvflann@@0U?$small_any_policy@I@23@A@@YAXXZ 000000018004a5a0 f   extractSurfCore.obj
 0001:000495c0       ??__F?policy@?$SinglePolicy@M@anyimpl@cvflann@@0U?$small_any_policy@M@23@A@@YAXXZ 000000018004a5c0 f   extractSurfCore.obj
 0001:000495e0       ??__F?policy@?$SinglePolicy@PEBD@anyimpl@cvflann@@0U?$small_any_policy@PEBD@23@A@@YAXXZ 000000018004a5e0 f   extractSurfCore.obj
 0001:00049600       ??__F?policy@?$SinglePolicy@Uempty_any@anyimpl@cvflann@@@anyimpl@cvflann@@0U?$big_any_policy@Uempty_any@anyimpl@cvflann@@@23@A@@YAXXZ 000000018004a600 f   extractSurfCore.obj
 0001:00049620       ??__F?policy@?$SinglePolicy@VString@cv@@@anyimpl@cvflann@@0U?$big_any_policy@VString@cv@@@23@A@@YAXXZ 000000018004a620 f   extractSurfCore.obj
 0001:00049640       ??__F?policy@?$SinglePolicy@W4flann_algorithm_t@cvflann@@@anyimpl@cvflann@@0U?$big_any_policy@W4flann_algorithm_t@cvflann@@@23@A@@YAXXZ 000000018004a640 f   extractSurfCore.obj
 0001:00049660       ??__F?policy@?$SinglePolicy@W4flann_centers_init_t@cvflann@@@anyimpl@cvflann@@0U?$big_any_policy@W4flann_centers_init_t@cvflann@@@23@A@@YAXXZ 000000018004a660 f   extractSurfCore.obj
 0001:00049680       ??__F?policy@?$SinglePolicy@_N@anyimpl@cvflann@@0U?$small_any_policy@_N@23@A@@YAXXZ 000000018004a680 f   extractSurfCore.obj
 0001:000496a0       ??__F?policy@?$SinglePolicy@H@anyimpl@cvflann@@0U?$small_any_policy@H@23@A@@YAXXZ 000000018004a6a0 f   cgCommon.obj
 0001:000496c0       ??__F?policy@?$SinglePolicy@I@anyimpl@cvflann@@0U?$small_any_policy@I@23@A@@YAXXZ 000000018004a6c0 f   cgCommon.obj
 0001:000496e0       ??__F?policy@?$SinglePolicy@M@anyimpl@cvflann@@0U?$small_any_policy@M@23@A@@YAXXZ 000000018004a6e0 f   cgCommon.obj
 0001:00049700       ??__F?policy@?$SinglePolicy@PEBD@anyimpl@cvflann@@0U?$small_any_policy@PEBD@23@A@@YAXXZ 000000018004a700 f   cgCommon.obj
 0001:00049720       ??__F?policy@?$SinglePolicy@Uempty_any@anyimpl@cvflann@@@anyimpl@cvflann@@0U?$big_any_policy@Uempty_any@anyimpl@cvflann@@@23@A@@YAXXZ 000000018004a720 f   cgCommon.obj
 0001:00049740       ??__F?policy@?$SinglePolicy@VString@cv@@@anyimpl@cvflann@@0U?$big_any_policy@VString@cv@@@23@A@@YAXXZ 000000018004a740 f   cgCommon.obj
 0001:00049760       ??__F?policy@?$SinglePolicy@W4flann_algorithm_t@cvflann@@@anyimpl@cvflann@@0U?$big_any_policy@W4flann_algorithm_t@cvflann@@@23@A@@YAXXZ 000000018004a760 f   cgCommon.obj
 0001:00049780       ??__F?policy@?$SinglePolicy@W4flann_centers_init_t@cvflann@@@anyimpl@cvflann@@0U?$big_any_policy@W4flann_centers_init_t@cvflann@@@23@A@@YAXXZ 000000018004a780 f   cgCommon.obj
 0001:000497a0       ??__F?policy@?$SinglePolicy@_N@anyimpl@cvflann@@0U?$small_any_policy@_N@23@A@@YAXXZ 000000018004a7a0 f   cgCommon.obj
 0001:000497c0       ??__F?findMaximaInLayer_m@MWSURFFindInvoker@cv@@2VMutex@2@A@@YAXXZ 000000018004a7c0 f   mwsurf.obj
 0001:000497e0       ??__F?policy@?$SinglePolicy@H@anyimpl@cvflann@@0U?$small_any_policy@H@23@A@@YAXXZ 000000018004a7e0 f   fastHessianDetectorCore.obj
 0001:00049800       ??__F?policy@?$SinglePolicy@I@anyimpl@cvflann@@0U?$small_any_policy@I@23@A@@YAXXZ 000000018004a800 f   fastHessianDetectorCore.obj
 0001:00049820       ??__F?policy@?$SinglePolicy@M@anyimpl@cvflann@@0U?$small_any_policy@M@23@A@@YAXXZ 000000018004a820 f   fastHessianDetectorCore.obj
 0001:00049840       ??__F?policy@?$SinglePolicy@PEBD@anyimpl@cvflann@@0U?$small_any_policy@PEBD@23@A@@YAXXZ 000000018004a840 f   fastHessianDetectorCore.obj
 0001:00049860       ??__F?policy@?$SinglePolicy@Uempty_any@anyimpl@cvflann@@@anyimpl@cvflann@@0U?$big_any_policy@Uempty_any@anyimpl@cvflann@@@23@A@@YAXXZ 000000018004a860 f   fastHessianDetectorCore.obj
 0001:00049880       ??__F?policy@?$SinglePolicy@VString@cv@@@anyimpl@cvflann@@0U?$big_any_policy@VString@cv@@@23@A@@YAXXZ 000000018004a880 f   fastHessianDetectorCore.obj
 0001:000498a0       ??__F?policy@?$SinglePolicy@W4flann_algorithm_t@cvflann@@@anyimpl@cvflann@@0U?$big_any_policy@W4flann_algorithm_t@cvflann@@@23@A@@YAXXZ 000000018004a8a0 f   fastHessianDetectorCore.obj
 0001:000498c0       ??__F?policy@?$SinglePolicy@W4flann_centers_init_t@cvflann@@@anyimpl@cvflann@@0U?$big_any_policy@W4flann_centers_init_t@cvflann@@@23@A@@YAXXZ 000000018004a8c0 f   fastHessianDetectorCore.obj
 0001:000498e0       ??__F?policy@?$SinglePolicy@_N@anyimpl@cvflann@@0U?$small_any_policy@_N@23@A@@YAXXZ 000000018004a8e0 f   fastHessianDetectorCore.obj
 0002:00000800       ??policy$initializer$@?$SinglePolicy@Uempty_any@anyimpl@cvflann@@@anyimpl@cvflann@@0P6AXXZEA@@3P6AXXZEA 000000018004b800     extractSurfCore.obj
 0002:00000808       ??policy$initializer$@?$SinglePolicy@PEBD@anyimpl@cvflann@@0P6AXXZEA@@3P6AXXZEA 000000018004b808     extractSurfCore.obj
 0002:00000810       ??policy$initializer$@?$SinglePolicy@H@anyimpl@cvflann@@0P6AXXZEA@@3P6AXXZEA 000000018004b810     extractSurfCore.obj
 0002:00000818       ??policy$initializer$@?$SinglePolicy@M@anyimpl@cvflann@@0P6AXXZEA@@3P6AXXZEA 000000018004b818     extractSurfCore.obj
 0002:00000820       ??policy$initializer$@?$SinglePolicy@_N@anyimpl@cvflann@@0P6AXXZEA@@3P6AXXZEA 000000018004b820     extractSurfCore.obj
 0002:00000828       ??policy$initializer$@?$SinglePolicy@W4flann_algorithm_t@cvflann@@@anyimpl@cvflann@@0P6AXXZEA@@3P6AXXZEA 000000018004b828     extractSurfCore.obj
 0002:00000830       ??policy$initializer$@?$SinglePolicy@W4flann_centers_init_t@cvflann@@@anyimpl@cvflann@@0P6AXXZEA@@3P6AXXZEA 000000018004b830     extractSurfCore.obj
 0002:00000838       ??policy$initializer$@?$SinglePolicy@I@anyimpl@cvflann@@0P6AXXZEA@@3P6AXXZEA 000000018004b838     extractSurfCore.obj
 0002:00000840       ??policy$initializer$@?$SinglePolicy@VString@cv@@@anyimpl@cvflann@@0P6AXXZEA@@3P6AXXZEA 000000018004b840     extractSurfCore.obj
 0002:00000848       ??findMaximaInLayer_m$initializer$@MWSURFFindInvoker@cv@@2P6AXXZEA@@3P6AXXZEA 000000018004b848     mwsurf.obj
 0002:000008f0       c3_cv                      000000018004b8f0     c3_MotionObjectDetector.obj
 0002:00000914       ?c3_decisionTxtStartIdx@?1??mdl_start_c3_MotionObjectDetector@@9@9 000000018004b914     c3_MotionObjectDetector.obj
 0002:00000918       c3_cv1                     000000018004b918     c3_MotionObjectDetector.obj
 0002:00000948       c3_cv2                     000000018004b948     c3_MotionObjectDetector.obj
 0002:00000970       c3_cv3                     000000018004b970     c3_MotionObjectDetector.obj
 0002:00000998       c3_cv4                     000000018004b998     c3_MotionObjectDetector.obj
 0002:000009a8       c3_cv5                     000000018004b9a8     c3_MotionObjectDetector.obj
 0002:000009dc       ?c3_decisionTxtEndIdx@?1??mdl_start_c3_MotionObjectDetector@@9@9 000000018004b9dc     c3_MotionObjectDetector.obj
 0002:000009e0       c3_cv6                     000000018004b9e0     c3_MotionObjectDetector.obj
 0002:00000a10       c3_cv7                     000000018004ba10     c3_MotionObjectDetector.obj
 0002:00000a48       c3_cv8                     000000018004ba48     c3_MotionObjectDetector.obj
 0002:00000a78       c3_cv9                     000000018004ba78     c3_MotionObjectDetector.obj
 0002:00000b70       $SG147461                  000000018004bb70     extractSurfCore.obj
 0002:00000be9       ?piecewise_construct@std@@3Upiecewise_construct_t@1@B 000000018004bbe9     extractSurfCore.obj
 0002:00000bf0       $SG147462                  000000018004bbf0     extractSurfCore.obj
 0002:00000c44       $SG66692                   000000018004bc44     extractSurfCore.obj
 0002:00000c48       $SG64648                   000000018004bc48     extractSurfCore.obj
 0002:00000c50       $SG147463                  000000018004bc50     extractSurfCore.obj
 0002:00000ca0       $SG146518                  000000018004bca0     extractSurfCore.obj
 0002:00000d20       $SG146519                  000000018004bd20     extractSurfCore.obj
 0002:00000d80       $SG146520                  000000018004bd80     extractSurfCore.obj
 0002:00000dd0       $SG129171                  000000018004bdd0     extractSurfCore.obj
 0002:00000e28       $SG129172                  000000018004be28     extractSurfCore.obj
 0002:00000e40       $SG129173                  000000018004be40     extractSurfCore.obj
 0002:00000e70       $SG147613                  000000018004be70     extractSurfCore.obj
 0002:00000ef0       $SG147614                  000000018004bef0     extractSurfCore.obj
 0002:00000f50       $SG147615                  000000018004bf50     extractSurfCore.obj
 0002:00000fa0       $SG129216                  000000018004bfa0     extractSurfCore.obj
 0002:00000ff8       $SG129217                  000000018004bff8     extractSurfCore.obj
 0002:00001010       $SG129218                  000000018004c010     extractSurfCore.obj
 0002:00001040       $SG146670                  000000018004c040     extractSurfCore.obj
 0002:000010c0       $SG146671                  000000018004c0c0     extractSurfCore.obj
 0002:00001120       $SG146672                  000000018004c120     extractSurfCore.obj
 0002:00001170       $SG147765                  000000018004c170     extractSurfCore.obj
 0002:000011f0       $SG147766                  000000018004c1f0     extractSurfCore.obj
 0002:00001250       $SG147767                  000000018004c250     extractSurfCore.obj
 0002:000012a0       $SG146853                  000000018004c2a0     extractSurfCore.obj
 0002:00001320       $SG146854                  000000018004c320     extractSurfCore.obj
 0002:00001380       $SG146855                  000000018004c380     extractSurfCore.obj
 0002:000013d0       $SG147917                  000000018004c3d0     extractSurfCore.obj
 0002:00001450       $SG147918                  000000018004c450     extractSurfCore.obj
 0002:000014b0       $SG147919                  000000018004c4b0     extractSurfCore.obj
 0002:00001500       $SG147005                  000000018004c500     extractSurfCore.obj
 0002:00001580       $SG147006                  000000018004c580     extractSurfCore.obj
 0002:000015e0       $SG147007                  000000018004c5e0     extractSurfCore.obj
 0002:00001630       $SG70214                   000000018004c630     extractSurfCore.obj
 0002:00001700       $SG70215                   000000018004c700     extractSurfCore.obj
 0002:00001730       $SG148069                  000000018004c730     extractSurfCore.obj
 0002:000017b0       $SG148070                  000000018004c7b0     extractSurfCore.obj
 0002:00001810       $SG148071                  000000018004c810     extractSurfCore.obj
 0002:00001860       $SG68281                   000000018004c860     extractSurfCore.obj
 0002:00001930       $SG68282                   000000018004c930     extractSurfCore.obj
 0002:00001980       $SG147157                  000000018004c980     extractSurfCore.obj
 0002:00001a00       $SG68309                   000000018004ca00     extractSurfCore.obj
 0002:00001ad0       $SG147158                  000000018004cad0     extractSurfCore.obj
 0002:00001b30       $SG68310                   000000018004cb30     extractSurfCore.obj
 0002:00001bd0       $SG147159                  000000018004cbd0     extractSurfCore.obj
 0002:00001c20       $SG68313                   000000018004cc20     extractSurfCore.obj
 0002:00001cf0       $SG68314                   000000018004ccf0     extractSurfCore.obj
 0002:00001d20       $SG68337                   000000018004cd20     extractSurfCore.obj
 0002:00001df0       $SG68338                   000000018004cdf0     extractSurfCore.obj
 0002:00001e90       $SG68341                   000000018004ce90     extractSurfCore.obj
 0002:00001f60       $SG68342                   000000018004cf60     extractSurfCore.obj
 0002:00001f90       $SG148221                  000000018004cf90     extractSurfCore.obj
 0002:00002010       $SG148222                  000000018004d010     extractSurfCore.obj
 0002:00002070       $SG148223                  000000018004d070     extractSurfCore.obj
 0002:000020c0       $SG147309                  000000018004d0c0     extractSurfCore.obj
 0002:00002140       $SG147310                  000000018004d140     extractSurfCore.obj
 0002:000021b0       $SG147311                  000000018004d1b0     extractSurfCore.obj
 0002:00002200       $SG148404                  000000018004d200     extractSurfCore.obj
 0002:00002280       $SG146356                  000000018004d280     extractSurfCore.obj
 0002:00002300       $SG148405                  000000018004d300     extractSurfCore.obj
 0002:00002360       $SG146357                  000000018004d360     extractSurfCore.obj
 0002:000023b0       $SG148406                  000000018004d3b0     extractSurfCore.obj
 0002:00002400       $SG146358                  000000018004d400     extractSurfCore.obj
 0002:00002450       $cppxdata$extractSurf_assignOutput 000000018004d450     extractSurfCore.obj
 0002:00002478       $cppxdata$extractSurf_assignOutputRM 000000018004d478     extractSurfCore.obj
 0002:000024a0       $cppxdata$extractSurf_compute 000000018004d4a0     extractSurfCore.obj
 0002:000024c8       $cppxdata$extractSurf_computeRM 000000018004d4c8     extractSurfCore.obj
 0002:000024f0       $cppxdata$?length@?$char_traits@D@std@@SA_KQEBD@Z 000000018004d4f0     extractSurfCore.obj
 0002:00002518       $cppxdata$??1String@cv@@QEAA@XZ 000000018004d518     extractSurfCore.obj
 0002:00002540       $cppxdata$??0Mat@cv@@QEAA@HHHPEAX_K@Z 000000018004d540     extractSurfCore.obj
 0002:00002568       $cppxdata$??1Mat@cv@@QEAA@XZ 000000018004d568     extractSurfCore.obj
 0002:00002590       $cppxdata$??0?$vector@VKeyPoint@cv@@V?$allocator@VKeyPoint@cv@@@std@@@std@@QEAA@XZ 000000018004d590     extractSurfCore.obj
 0002:000025b8       $cppxdata$??0?$vector@VKeyPoint@cv@@V?$allocator@VKeyPoint@cv@@@std@@@std@@QEAA@AEBV01@@Z 000000018004d5b8     extractSurfCore.obj
 0002:000025e0       $cppxdata$??1?$vector@VKeyPoint@cv@@V?$allocator@VKeyPoint@cv@@@std@@@std@@QEAA@XZ 000000018004d5e0     extractSurfCore.obj
 0002:00002608       $cppxdata$??$?6U?$char_traits@D@std@@@std@@YAAEAV?$basic_ostream@DU?$char_traits@D@std@@@0@AEAV10@PEBD@Z 000000018004d608     extractSurfCore.obj
 0002:00002630       $cppxdata$?copy_from_value@?$big_any_policy@VString@cv@@@anyimpl@cvflann@@UEAAXPEBXPEAPEAX@Z 000000018004d630     extractSurfCore.obj
 0002:00002658       $cppxdata$?clone@?$big_any_policy@VString@cv@@@anyimpl@cvflann@@UEAAXPEBQEAXPEAPEAX@Z 000000018004d658     extractSurfCore.obj
 0002:00002680       $cppxdata$??1?$Ptr@VMWSURF@cv@@@cv@@QEAA@XZ 000000018004d680     extractSurfCore.obj
 0002:000026a8       $cppxdata$??$makePtr@VMWSURF@cv@@@cv@@YA?AU?$Ptr@VMWSURF@cv@@@0@XZ 000000018004d6a8     extractSurfCore.obj
 0002:000026d0       $cppxdata$??$emplace_back@AEBVKeyPoint@cv@@@?$vector@VKeyPoint@cv@@V?$allocator@VKeyPoint@cv@@@std@@@std@@QEAAXAEBVKeyPoint@cv@@@Z 000000018004d6d0     extractSurfCore.obj
 0002:000026f8       $cppxdata$??1_Sentry_base@?$basic_ostream@DU?$char_traits@D@std@@@std@@QEAA@XZ 000000018004d6f8     extractSurfCore.obj
 0002:00002720       $cppxdata$??0sentry@?$basic_ostream@DU?$char_traits@D@std@@@std@@QEAA@AEAV12@@Z 000000018004d720     extractSurfCore.obj
 0002:00002748       $cppxdata$??1sentry@?$basic_ostream@DU?$char_traits@D@std@@@std@@QEAA@XZ 000000018004d748     extractSurfCore.obj
 0002:00002770       $cppxdata$??$?0VMWSURF@cv@@@?$Ptr@VMWSURF@cv@@@cv@@QEAA@PEAVMWSURF@1@@Z 000000018004d770     extractSurfCore.obj
 0002:00002798       $cppxdata$??$_Uninitialized_copy_al_unchecked@PEAVKeyPoint@cv@@PEAV12@V?$allocator@VKeyPoint@cv@@@std@@@std@@YAPEAVKeyPoint@cv@@PEAV12@00AEAU?$_Wrap_alloc@V?$allocator@VKeyPoint@cv@@@std@@@0@U_General_ptr_iterator_tag@0@U_Any_tag@0@@Z 000000018004d798     extractSurfCore.obj
 0002:000027c0       $cppxdata$??$construct@VKeyPoint@cv@@AEBV12@@?$allocator@VKeyPoint@cv@@@std@@QEAAXPEAVKeyPoint@cv@@AEBV23@@Z 000000018004d7c0     extractSurfCore.obj
 0002:000027e8       $cppxdata$??$construct@VKeyPoint@cv@@AEAV12@@?$allocator@VKeyPoint@cv@@@std@@QEAAXPEAVKeyPoint@cv@@AEAV23@@Z 000000018004d7e8     extractSurfCore.obj
 0002:00002fd0       $SG66693                   000000018004dfd0     surfCommon.obj
 0002:00002fd4       $SG64649                   000000018004dfd4     surfCommon.obj
 0002:00002fd8       $SG70216                   000000018004dfd8     surfCommon.obj
 0002:00003000       $SG80263                   000000018004e000     surfCommon.obj
 0002:00003058       $SG80264                   000000018004e058     surfCommon.obj
 0002:00003068       $SG80265                   000000018004e068     surfCommon.obj
 0002:000030a0       $SG70215                   000000018004e0a0     surfCommon.obj
 0002:00003170       $SG68282                   000000018004e170     surfCommon.obj
 0002:00003240       $SG68283                   000000018004e240     surfCommon.obj
 0002:00003290       $SG68310                   000000018004e290     surfCommon.obj
 0002:00003360       $SG68311                   000000018004e360     surfCommon.obj
 0002:00003400       $SG68314                   000000018004e400     surfCommon.obj
 0002:000034d0       $SG68315                   000000018004e4d0     surfCommon.obj
 0002:000034f8       $SG68343                   000000018004e4f8     surfCommon.obj
 0002:00003520       $SG68338                   000000018004e520     surfCommon.obj
 0002:000035f0       $SG68339                   000000018004e5f0     surfCommon.obj
 0002:00003690       $SG68342                   000000018004e690     surfCommon.obj
 0002:00003760       $SG147465                  000000018004e760     cgCommon.obj
 0002:000037d9       ?piecewise_construct@std@@3Upiecewise_construct_t@1@B 000000018004e7d9     cgCommon.obj
 0002:000037e0       $SG147466                  000000018004e7e0     cgCommon.obj
 0002:00003840       $SG147467                  000000018004e840     cgCommon.obj
 0002:00003890       $SG146553                  000000018004e890     cgCommon.obj
 0002:00003910       $SG146554                  000000018004e910     cgCommon.obj
 0002:00003968       $SG66894                   000000018004e968     cgCommon.obj
 0002:00003970       $SG146555                  000000018004e970     cgCommon.obj
 0002:000039c0       $SG147617                  000000018004e9c0     cgCommon.obj
 0002:00003a40       $SG147618                  000000018004ea40     cgCommon.obj
 0002:00003aa0       $SG147619                  000000018004eaa0     cgCommon.obj
 0002:00003af0       $SG146705                  000000018004eaf0     cgCommon.obj
 0002:00003b70       $SG146706                  000000018004eb70     cgCommon.obj
 0002:00003bd0       $SG146707                  000000018004ebd0     cgCommon.obj
 0002:00003c20       $SG147769                  000000018004ec20     cgCommon.obj
 0002:00003ca0       $SG147770                  000000018004eca0     cgCommon.obj
 0002:00003d00       $SG147771                  000000018004ed00     cgCommon.obj
 0002:00003d50       $SG64850                   000000018004ed50     cgCommon.obj
 0002:00003d60       $SG146857                  000000018004ed60     cgCommon.obj
 0002:00003de0       $SG146858                  000000018004ede0     cgCommon.obj
 0002:00003e50       $SG146859                  000000018004ee50     cgCommon.obj
 0002:00003ea0       $SG147952                  000000018004eea0     cgCommon.obj
 0002:00003f20       $SG145904                  000000018004ef20     cgCommon.obj
 0002:00003fa0       $SG147953                  000000018004efa0     cgCommon.obj
 0002:00004000       $SG145905                  000000018004f000     cgCommon.obj
 0002:00004050       $SG147954                  000000018004f050     cgCommon.obj
 0002:000040a0       $SG145906                  000000018004f0a0     cgCommon.obj
 0002:000040f0       $SG147009                  000000018004f0f0     cgCommon.obj
 0002:00004170       $SG147010                  000000018004f170     cgCommon.obj
 0002:000041d0       $SG147011                  000000018004f1d0     cgCommon.obj
 0002:00004220       $SG146066                  000000018004f220     cgCommon.obj
 0002:000042a0       $SG146067                  000000018004f2a0     cgCommon.obj
 0002:00004300       $SG146068                  000000018004f300     cgCommon.obj
 0002:00004350       $SG147161                  000000018004f350     cgCommon.obj
 0002:000043d0       $SG147162                  000000018004f3d0     cgCommon.obj
 0002:00004430       $SG147163                  000000018004f430     cgCommon.obj
 0002:00004480       $SG70416                   000000018004f480     cgCommon.obj
 0002:00004550       $SG70417                   000000018004f550     cgCommon.obj
 0002:00004580       $SG146218                  000000018004f580     cgCommon.obj
 0002:00004600       $SG146219                  000000018004f600     cgCommon.obj
 0002:00004660       $SG146220                  000000018004f660     cgCommon.obj
 0002:000046b0       $SG147313                  000000018004f6b0     cgCommon.obj
 0002:00004730       $SG147314                  000000018004f730     cgCommon.obj
 0002:00004790       $SG147315                  000000018004f790     cgCommon.obj
 0002:000047e0       $SG68483                   000000018004f7e0     cgCommon.obj
 0002:000048b0       $SG68484                   000000018004f8b0     cgCommon.obj
 0002:00004900       $SG68511                   000000018004f900     cgCommon.obj
 0002:000049d0       $SG68512                   000000018004f9d0     cgCommon.obj
 0002:00004a70       $SG68515                   000000018004fa70     cgCommon.obj
 0002:00004b40       $SG68516                   000000018004fb40     cgCommon.obj
 0002:00004b70       $SG68539                   000000018004fb70     cgCommon.obj
 0002:00004c40       $SG68540                   000000018004fc40     cgCommon.obj
 0002:00004ce0       $SG68543                   000000018004fce0     cgCommon.obj
 0002:00004db0       $SG68544                   000000018004fdb0     cgCommon.obj
 0002:00004de0       $SG146401                  000000018004fde0     cgCommon.obj
 0002:00004e60       $SG146402                  000000018004fe60     cgCommon.obj
 0002:00004ec0       $SG146403                  000000018004fec0     cgCommon.obj
 0002:00004f10       $cppxdata$?begin@?$vector@V?$Rect_@H@cv@@V?$allocator@V?$Rect_@H@cv@@@std@@@std@@QEBA?AV?$_Vector_const_iterator@V?$_Vector_val@U?$_Simple_types@V?$Rect_@H@cv@@@std@@@std@@@2@XZ 000000018004ff10     cgCommon.obj
 0002:00004f38       $cppxdata$?end@?$vector@V?$Rect_@H@cv@@V?$allocator@V?$Rect_@H@cv@@@std@@@std@@QEBA?AV?$_Vector_const_iterator@V?$_Vector_val@U?$_Simple_types@V?$Rect_@H@cv@@@std@@@std@@@2@XZ 000000018004ff38     cgCommon.obj
 0002:00004f60       $SG66693                   000000018004ff60     mwsurf.obj
 0002:00004f64       $SG64649                   000000018004ff64     mwsurf.obj
 0002:00004f68       $SG84220                   000000018004ff68     mwsurf.obj
 0002:00004f80       $SG84219                   000000018004ff80     mwsurf.obj
 0002:00004fd0       $SG84221                   000000018004ffd0     mwsurf.obj
 0002:00004ff8       $SG84227                   000000018004fff8     mwsurf.obj
 0002:00005010       $SG84226                   0000000180050010     mwsurf.obj
 0002:00005060       $SG84228                   0000000180050060     mwsurf.obj
 0002:000050a0       $SG84231                   00000001800500a0     mwsurf.obj
 0002:000050f0       $SG84232                   00000001800500f0     mwsurf.obj
 0002:00005108       $SG84233                   0000000180050108     mwsurf.obj
 0002:00005120       $SG84236                   0000000180050120     mwsurf.obj
 0002:00005170       $SG84237                   0000000180050170     mwsurf.obj
 0002:00005188       $SG84238                   0000000180050188     mwsurf.obj
 0002:000051a0       $SG84241                   00000001800501a0     mwsurf.obj
 0002:000051f0       $SG84242                   00000001800501f0     mwsurf.obj
 0002:00005208       $SG84243                   0000000180050208     mwsurf.obj
 0002:00005220       $SG80263                   0000000180050220     mwsurf.obj
 0002:00005278       $SG80264                   0000000180050278     mwsurf.obj
 0002:00005288       $SG80265                   0000000180050288     mwsurf.obj
 0002:000052c0       $SG70215                   00000001800502c0     mwsurf.obj
 0002:00005390       $SG70216                   0000000180050390     mwsurf.obj
 0002:000053c0       $SG68282                   00000001800503c0     mwsurf.obj
 0002:00005490       $SG68283                   0000000180050490     mwsurf.obj
 0002:000054e0       $SG68310                   00000001800504e0     mwsurf.obj
 0002:000055b0       $SG68311                   00000001800505b0     mwsurf.obj
 0002:00005650       $SG68314                   0000000180050650     mwsurf.obj
 0002:00005720       $SG68315                   0000000180050720     mwsurf.obj
 0002:00005748       $SG68343                   0000000180050748     mwsurf.obj
 0002:00005770       $SG68338                   0000000180050770     mwsurf.obj
 0002:00005840       $SG68339                   0000000180050840     mwsurf.obj
 0002:000058e0       $SG68342                   00000001800508e0     mwsurf.obj
 0002:000059b0       $cppxdata$??0MWSURF@cv@@QEAA@XZ 00000001800509b0     mwsurf.obj
 0002:000059d8       $cppxdata$??0MWSURF@cv@@QEAA@NHH_N0@Z 00000001800509d8     mwsurf.obj
 0002:00005a00       $cppxdata$??RMWSURF@cv@@QEBAXAEBV_InputArray@1@0AEAV?$vector@VKeyPoint@cv@@V?$allocator@VKeyPoint@cv@@@std@@@std@@AEBV_OutputArray@1@_N@Z 0000000180050a00     mwsurf.obj
 0002:00005a28       $cppxdata$?detectImpl@MWSURF@cv@@IEBAXAEBVMat@2@AEAV?$vector@VKeyPoint@cv@@V?$allocator@VKeyPoint@cv@@@std@@@std@@0@Z 0000000180050a28     mwsurf.obj
 0002:00005a50       $cppxdata$?computeImpl@MWSURF@cv@@IEBAXAEBVMat@2@AEAV?$vector@VKeyPoint@cv@@V?$allocator@VKeyPoint@cv@@@std@@@std@@AEAV32@@Z 0000000180050a50     mwsurf.obj
 0002:00005a78       $cppxdata$?findMaximaInLayer@MWSURFFindInvoker@cv@@SAXAEBVMat@2@0AEBV?$vector@VMat@cv@@V?$allocator@VMat@cv@@@std@@@std@@1AEBV?$vector@HV?$allocator@H@std@@@5@AEAV?$vector@VKeyPoint@cv@@V?$allocator@VKeyPoint@cv@@@std@@@5@HHMH@Z 0000000180050a78     mwsurf.obj
 0002:00005aa0       $cppxdata$?fastHessianDetector@cv@@YAXAEBVMat@1@0AEAV?$vector@VKeyPoint@cv@@V?$allocator@VKeyPoint@cv@@@std@@@std@@HHM@Z 0000000180050aa0     mwsurf.obj
 0002:00005ac8       $cppxdata$?abs@@YAMM@Z     0000000180050ac8     mwsurf.obj
 0002:00005af0       $cppxdata$?cos@@YAMM@Z     0000000180050af0     mwsurf.obj
 0002:00005b18       $cppxdata$?fabs@@YAMM@Z    0000000180050b18     mwsurf.obj
 0002:00005b40       $cppxdata$?sin@@YAMM@Z     0000000180050b40     mwsurf.obj
 0002:00005b68       $cppxdata$??0?$vector@HV?$allocator@H@std@@@std@@QEAA@_KAEBV?$allocator@H@1@@Z 0000000180050b68     mwsurf.obj
 0002:00005b90       $cppxdata$??1?$vector@HV?$allocator@H@std@@@std@@QEAA@XZ 0000000180050b90     mwsurf.obj
 0002:00005bb8       $cppxdata$??0_OutputArray@cv@@QEAA@AEAVMat@1@@Z 0000000180050bb8     mwsurf.obj
 0002:00005be0       $cppxdata$??0?$vector@VMat@cv@@V?$allocator@VMat@cv@@@std@@@std@@QEAA@_KAEBV?$allocator@VMat@cv@@@1@@Z 0000000180050be0     mwsurf.obj
 0002:00005c08       $cppxdata$??1?$vector@VMat@cv@@V?$allocator@VMat@cv@@@std@@@std@@QEAA@XZ 0000000180050c08     mwsurf.obj
 0002:00005c30       $cppxdata$?clear@?$vector@VKeyPoint@cv@@V?$allocator@VKeyPoint@cv@@@std@@@std@@QEAAXXZ 0000000180050c30     mwsurf.obj
 0002:00005c58       $cppxdata$?begin@?$vector@VKeyPoint@cv@@V?$allocator@VKeyPoint@cv@@@std@@@std@@QEAA?AV?$_Vector_iterator@V?$_Vector_val@U?$_Simple_types@VKeyPoint@cv@@@std@@@std@@@2@XZ 0000000180050c58     mwsurf.obj
 0002:00005c80       $cppxdata$?end@?$vector@VKeyPoint@cv@@V?$allocator@VKeyPoint@cv@@@std@@@std@@QEAA?AV?$_Vector_iterator@V?$_Vector_val@U?$_Simple_types@VKeyPoint@cv@@@std@@@std@@@2@XZ 0000000180050c80     mwsurf.obj
 0002:00005ca8       $cppxdata$??1AutoLock@cv@@QEAA@XZ 0000000180050ca8     mwsurf.obj
 0002:00005cd0       $cppxdata$??$solve@$00@?$Matx@M$02$02@cv@@QEBA?AV?$Matx@M$02$00@1@AEBV21@H@Z 0000000180050cd0     mwsurf.obj
 0002:00005cf8       $cppxdata$??0MWSURFInvoker@cv@@QEAA@AEBVMat@1@0AEAV?$vector@VKeyPoint@cv@@V?$allocator@VKeyPoint@cv@@@std@@@std@@AEAV21@_N3@Z 0000000180050cf8     mwsurf.obj
 0002:00005d20       $cppxdata$??RMWSURFInvoker@cv@@UEBAXAEBVRange@1@@Z 0000000180050d20     mwsurf.obj
 0002:00005d48       $cppxdata$??0?$vector@V?$Point_@H@cv@@V?$allocator@V?$Point_@H@cv@@@std@@@std@@QEAA@XZ 0000000180050d48     mwsurf.obj
 0002:00005d70       $cppxdata$??1?$vector@V?$Point_@H@cv@@V?$allocator@V?$Point_@H@cv@@@std@@@std@@QEAA@XZ 0000000180050d70     mwsurf.obj
 0002:00005d98       $cppxdata$??0?$vector@MV?$allocator@M@std@@@std@@QEAA@XZ 0000000180050d98     mwsurf.obj
 0002:00005dc0       $cppxdata$??1?$vector@MV?$allocator@M@std@@@std@@QEAA@XZ 0000000180050dc0     mwsurf.obj
 0002:00005de8       $cppxdata$??1?$Ptr@UCvMat@@@cv@@QEAA@XZ 0000000180050de8     mwsurf.obj
 0002:00005e10       $cppxdata$??$?0UCvMat@@@?$Ptr@UCvMat@@@cv@@QEAA@PEAUCvMat@@@Z 0000000180050e10     mwsurf.obj
 0002:00005e38       $cppxdata$??$_Resize@V<lambda_12eafce8cd5872c88745c0a2a305f7cc>@@@?$vector@V?$Point_@H@cv@@V?$allocator@V?$Point_@H@cv@@@std@@@std@@AEAAX_KV<lambda_12eafce8cd5872c88745c0a2a305f7cc>@@@Z 0000000180050e38     mwsurf.obj
 0002:00005e60       $cppxdata$??$_Resize@V<lambda_a0fd67340d08d33487be225a22701bdb>@@@?$vector@MV?$allocator@M@std@@@std@@AEAAX_KV<lambda_a0fd67340d08d33487be225a22701bdb>@@@Z 0000000180050e60     mwsurf.obj
 0002:00005e88       $cppxdata$??$_Resize@V<lambda_3779c35418698644eae238f3df37bd0b>@@@?$vector@VKeyPoint@cv@@V?$allocator@VKeyPoint@cv@@@std@@@std@@AEAAX_KV<lambda_3779c35418698644eae238f3df37bd0b>@@@Z 0000000180050e88     mwsurf.obj
 0002:00005eb0       $cppxdata$??$_Uninitialized_default_fill_n1@PEAV?$Point_@H@cv@@_KV?$allocator@V?$Point_@H@cv@@@std@@@std@@YAPEAV?$Point_@H@cv@@PEAV12@_KAEAU?$_Wrap_alloc@V?$allocator@V?$Point_@H@cv@@@std@@@0@U?$integral_constant@_N$0A@@0@@Z 0000000180050eb0     mwsurf.obj
 0002:00005ed8       $cppxdata$??$_Uninitialized_default_fill_n1@PEAVMat@cv@@_KV?$allocator@VMat@cv@@@std@@@std@@YAPEAVMat@cv@@PEAV12@_KAEAU?$_Wrap_alloc@V?$allocator@VMat@cv@@@std@@@0@U?$integral_constant@_N$0A@@0@@Z 0000000180050ed8     mwsurf.obj
 0002:00005f00       $cppxdata$??$_Uninitialized_default_fill_n1@PEAVKeyPoint@cv@@_KV?$allocator@VKeyPoint@cv@@@std@@@std@@YAPEAVKeyPoint@cv@@PEAV12@_KAEAU?$_Wrap_alloc@V?$allocator@VKeyPoint@cv@@@std@@@0@U?$integral_constant@_N$0A@@0@@Z 0000000180050f00     mwsurf.obj
 0002:00005f28       $cppxdata$??$?0M$02$02@Mat@cv@@QEAA@AEBV?$Matx@M$02$02@1@_N@Z 0000000180050f28     mwsurf.obj
 0002:00005f50       $cppxdata$??$?0M$02$00@Mat@cv@@QEAA@AEBV?$Matx@M$02$00@1@_N@Z 0000000180050f50     mwsurf.obj
 0002:00005f78       $cppxdata$??$_Uninitialized_copy_al_unchecked@PEAV?$Point_@H@cv@@PEAV12@V?$allocator@V?$Point_@H@cv@@@std@@@std@@YAPEAV?$Point_@H@cv@@PEAV12@00AEAU?$_Wrap_alloc@V?$allocator@V?$Point_@H@cv@@@std@@@0@U_General_ptr_iterator_tag@0@U_Any_tag@0@@Z 0000000180050f78     mwsurf.obj
 0002:00005fa0       $cppxdata$??$construct@V?$Point_@H@cv@@$$V@?$allocator@V?$Point_@H@cv@@@std@@QEAAXPEAV?$Point_@H@cv@@@Z 0000000180050fa0     mwsurf.obj
 0002:00005fc8       $cppxdata$??$construct@VMat@cv@@$$V@?$allocator@VMat@cv@@@std@@QEAAXPEAVMat@cv@@@Z 0000000180050fc8     mwsurf.obj
 0002:00005ff0       $cppxdata$??$construct@VKeyPoint@cv@@$$V@?$allocator@VKeyPoint@cv@@@std@@QEAAXPEAVKeyPoint@cv@@@Z 0000000180050ff0     mwsurf.obj
 0002:00006018       $cppxdata$??$construct@V?$Point_@H@cv@@AEAV12@@?$allocator@V?$Point_@H@cv@@@std@@QEAAXPEAV?$Point_@H@cv@@AEAV23@@Z 0000000180051018     mwsurf.obj
 0002:00006310       $SG146506                  0000000180051310     fastHessianDetectorCore.obj
 0002:00006389       ?piecewise_construct@std@@3Upiecewise_construct_t@1@B 0000000180051389     fastHessianDetectorCore.obj
 0002:00006390       $SG146507                  0000000180051390     fastHessianDetectorCore.obj
 0002:000063e8       $SG66692                   00000001800513e8     fastHessianDetectorCore.obj
 0002:000063f0       $SG146508                  00000001800513f0     fastHessianDetectorCore.obj
 0002:00006440       $SG147570                  0000000180051440     fastHessianDetectorCore.obj
 0002:000064c0       $SG147571                  00000001800514c0     fastHessianDetectorCore.obj
 0002:00006520       $SG147572                  0000000180051520     fastHessianDetectorCore.obj
 0002:00006570       $SG64648                   0000000180051570     fastHessianDetectorCore.obj
 0002:00006580       $SG146658                  0000000180051580     fastHessianDetectorCore.obj
 0002:00006600       $SG146659                  0000000180051600     fastHessianDetectorCore.obj
 0002:00006660       $SG146660                  0000000180051660     fastHessianDetectorCore.obj
 0002:000066b0       $SG147722                  00000001800516b0     fastHessianDetectorCore.obj
 0002:00006730       $SG147723                  0000000180051730     fastHessianDetectorCore.obj
 0002:00006790       $SG147724                  0000000180051790     fastHessianDetectorCore.obj
 0002:000067e0       $SG146810                  00000001800517e0     fastHessianDetectorCore.obj
 0002:00006860       $SG146811                  0000000180051860     fastHessianDetectorCore.obj
 0002:000068d0       $SG146812                  00000001800518d0     fastHessianDetectorCore.obj
 0002:00006920       $SG147905                  0000000180051920     fastHessianDetectorCore.obj
 0002:000069a0       $SG145857                  00000001800519a0     fastHessianDetectorCore.obj
 0002:00006a20       $SG147906                  0000000180051a20     fastHessianDetectorCore.obj
 0002:00006a80       $SG145858                  0000000180051a80     fastHessianDetectorCore.obj
 0002:00006ad0       $SG147907                  0000000180051ad0     fastHessianDetectorCore.obj
 0002:00006b20       $SG145859                  0000000180051b20     fastHessianDetectorCore.obj
 0002:00006b70       $SG146962                  0000000180051b70     fastHessianDetectorCore.obj
 0002:00006bf0       $SG146963                  0000000180051bf0     fastHessianDetectorCore.obj
 0002:00006c50       $SG146964                  0000000180051c50     fastHessianDetectorCore.obj
 0002:00006ca0       $SG70214                   0000000180051ca0     fastHessianDetectorCore.obj
 0002:00006d70       $SG70215                   0000000180051d70     fastHessianDetectorCore.obj
 0002:00006da0       $SG146019                  0000000180051da0     fastHessianDetectorCore.obj
 0002:00006e20       $SG146020                  0000000180051e20     fastHessianDetectorCore.obj
 0002:00006e80       $SG146021                  0000000180051e80     fastHessianDetectorCore.obj
 0002:00006ed0       $SG147114                  0000000180051ed0     fastHessianDetectorCore.obj
 0002:00006f50       $SG147115                  0000000180051f50     fastHessianDetectorCore.obj
 0002:00006fb0       $SG147116                  0000000180051fb0     fastHessianDetectorCore.obj
 0002:00007000       $SG68281                   0000000180052000     fastHessianDetectorCore.obj
 0002:000070d0       $SG68282                   00000001800520d0     fastHessianDetectorCore.obj
 0002:00007120       $SG68309                   0000000180052120     fastHessianDetectorCore.obj
 0002:000071f0       $SG68310                   00000001800521f0     fastHessianDetectorCore.obj
 0002:00007290       $SG68313                   0000000180052290     fastHessianDetectorCore.obj
 0002:00007360       $SG68314                   0000000180052360     fastHessianDetectorCore.obj
 0002:00007390       $SG68337                   0000000180052390     fastHessianDetectorCore.obj
 0002:00007460       $SG68338                   0000000180052460     fastHessianDetectorCore.obj
 0002:00007500       $SG68341                   0000000180052500     fastHessianDetectorCore.obj
 0002:000075d0       $SG68342                   00000001800525d0     fastHessianDetectorCore.obj
 0002:00007600       $SG146171                  0000000180052600     fastHessianDetectorCore.obj
 0002:00007680       $SG146172                  0000000180052680     fastHessianDetectorCore.obj
 0002:000076e0       $SG146173                  00000001800526e0     fastHessianDetectorCore.obj
 0002:00007730       $SG147266                  0000000180052730     fastHessianDetectorCore.obj
 0002:000077b0       $SG147267                  00000001800527b0     fastHessianDetectorCore.obj
 0002:00007810       $SG147268                  0000000180052810     fastHessianDetectorCore.obj
 0002:00007860       $SG146354                  0000000180052860     fastHessianDetectorCore.obj
 0002:000078e0       $SG146355                  00000001800528e0     fastHessianDetectorCore.obj
 0002:00007940       $SG146356                  0000000180052940     fastHessianDetectorCore.obj
 0002:00007990       $SG147418                  0000000180052990     fastHessianDetectorCore.obj
 0002:00007a10       $SG147419                  0000000180052a10     fastHessianDetectorCore.obj
 0002:00007a70       $SG147420                  0000000180052a70     fastHessianDetectorCore.obj
 0002:00007ac0       $SG128999                  0000000180052ac0     fastHessianDetectorCore.obj
 0002:00007b20       $SG129000                  0000000180052b20     fastHessianDetectorCore.obj
 0002:00007b40       $SG129001                  0000000180052b40     fastHessianDetectorCore.obj
 0002:00007b68       $cppxdata$fastHessianDetector_uint8 0000000180052b68     fastHessianDetectorCore.obj
 0002:00007b90       $cppxdata$?configureSURFDetectorCore@@YAXU?$Ptr@VMWSURF@cv@@@cv@@HHH_K1@Z 0000000180052b90     fastHessianDetectorCore.obj
 0002:00007bb8       GS_ExceptionPointers       0000000180052bb8     MSVCRT:gs_report.obj
 0002:000090d0       $unwind$load_MotionObjectDetector_optimization_info 00000001800540d0     MotionObjectDetector_sfun.obj
 0002:000090d8       $unwind$unload_MotionObjectDetector_optimization_info 00000001800540d8     MotionObjectDetector_sfun.obj
 0002:000090e0       $unwind$sf_MotionObjectDetector_method_dispatcher 00000001800540e0     MotionObjectDetector_sfun.obj
 0002:000090e8       $unwind$sf_MotionObjectDetector_process_check_sum_call 00000001800540e8     MotionObjectDetector_sfun.obj
 0002:000090f8       $unwind$sf_MotionObjectDetector_get_eml_resolved_functions_info 00000001800540f8     MotionObjectDetector_sfun.obj
 0002:00009108       $unwind$sf_MotionObjectDetector_third_party_uses_info 0000000180054108     MotionObjectDetector_sfun.obj
 0002:00009118       $unwind$sf_MotionObjectDetector_jit_fallback_info 0000000180054118     MotionObjectDetector_sfun.obj
 0002:00009128       $unwind$sf_MotionObjectDetector_get_post_codegen_info 0000000180054128     MotionObjectDetector_sfun.obj
 0002:00009138       $unwind$sf_MotionObjectDetector_updateBuildInfo_args_info 0000000180054138     MotionObjectDetector_sfun.obj
 0002:00009148       $unwind$sf_c3_MotionObjectDetector_get_eml_resolved_functions_info 0000000180054148     c3_MotionObjectDetector.obj
 0002:00009150       $unwind$sf_c3_MotionObjectDetector_get_check_sum 0000000180054150     c3_MotionObjectDetector.obj
 0002:00009158       $unwind$c3_MotionObjectDetector_method_dispatcher 0000000180054158     c3_MotionObjectDetector.obj
 0002:00009160       $unwind$initialize_c3_MotionObjectDetector 0000000180054160     c3_MotionObjectDetector.obj
 0002:00009168       $unwind$enable_c3_MotionObjectDetector 0000000180054168     c3_MotionObjectDetector.obj
 0002:00009170       $unwind$disable_c3_MotionObjectDetector 0000000180054170     c3_MotionObjectDetector.obj
 0002:00009178       $unwind$c3_do_animation_call_c3_MotionObjectDetector 0000000180054178     c3_MotionObjectDetector.obj
 0002:00009180       $unwind$get_sim_state_c3_MotionObjectDetector 0000000180054180     c3_MotionObjectDetector.obj
 0002:00009188       $unwind$set_sim_state_c3_MotionObjectDetector 0000000180054188     c3_MotionObjectDetector.obj
 0002:00009190       $unwind$finalize_c3_MotionObjectDetector 0000000180054190     c3_MotionObjectDetector.obj
 0002:00009198       $unwind$sf_gateway_c3_MotionObjectDetector 0000000180054198     c3_MotionObjectDetector.obj
 0002:000091a0       $unwind$mdl_start_c3_MotionObjectDetector 00000001800541a0     c3_MotionObjectDetector.obj
 0002:000091a8       $unwind$c3_chartstep_c3_MotionObjectDetector 00000001800541a8     c3_MotionObjectDetector.obj
 0002:000091bc       $unwind$c3_SURFPoints_cg_SURFPoints_cg 00000001800541bc     c3_MotionObjectDetector.obj
 0002:000091c8       $unwind$c3_FeaturePointsImpl_checkLocation 00000001800541c8     c3_MotionObjectDetector.obj
 0002:000091d0       $unwind$c3_inputMeetsSizeRequirement 00000001800541d0     c3_MotionObjectDetector.obj
 0002:000091d8       $unwind$c3_FeaturePointsImpl_checkMetric 00000001800541d8     c3_MotionObjectDetector.obj
 0002:000091e0       $unwind$c3_all             00000001800541e0     c3_MotionObjectDetector.obj
 0002:000091e8       $unwind$c3_SURFPointsImpl_checkScale 00000001800541e8     c3_MotionObjectDetector.obj
 0002:000091f0       $unwind$c3_b_all           00000001800541f0     c3_MotionObjectDetector.obj
 0002:000091f8       $unwind$c3_check_forloop_overflow_error 00000001800541f8     c3_MotionObjectDetector.obj
 0002:00009200       $unwind$c3_assertValidSizeArg 0000000180054200     c3_MotionObjectDetector.obj
 0002:00009208       $unwind$c3_extractFeatures 0000000180054208     c3_MotionObjectDetector.obj
 0002:0000921c       $unwind$c3_extractSurfBuildable_extractSurf_uint8 000000018005421c     c3_MotionObjectDetector.obj
 0002:00009224       $unwind$c3_b_SURFPoints_cg_SURFPoints_cg 0000000180054224     c3_MotionObjectDetector.obj
 0002:00009230       $unwind$c3_b_extractSurfBuildable_extractSurf_uint8 0000000180054230     c3_MotionObjectDetector.obj
 0002:00009238       $unwind$c3_findMatchesExhaustive 0000000180054238     c3_MotionObjectDetector.obj
 0002:00009240       $unwind$c3_partialSort     0000000180054240     c3_MotionObjectDetector.obj
 0002:00009248       $unwind$c3_allinrange      0000000180054248     c3_MotionObjectDetector.obj
 0002:00009250       $unwind$c3_emlrt_marshallIn 0000000180054250     c3_MotionObjectDetector.obj
 0002:00009258       $unwind$c3_b_emlrt_marshallIn 0000000180054258     c3_MotionObjectDetector.obj
 0002:00009260       $unwind$c3_sf_marshallOut_matrix500x500x3_uint8_T 0000000180054260     c3_MotionObjectDetector.obj
 0002:00009268       $unwind$c3_c_emlrt_marshallIn 0000000180054268     c3_MotionObjectDetector.obj
 0002:00009270       $unwind$c3_sf_marshallIn_matrix500x500x3_uint8_T 0000000180054270     c3_MotionObjectDetector.obj
 0002:00009278       $unwind$c3_sf_marshallOut_matrix189x267x3_uint8_T 0000000180054278     c3_MotionObjectDetector.obj
 0002:00009288       $unwind$c3_d_emlrt_marshallIn 0000000180054288     c3_MotionObjectDetector.obj
 0002:00009298       $unwind$c3_sf_marshallIn_matrix189x267x3_uint8_T 0000000180054298     c3_MotionObjectDetector.obj
 0002:000092a0       $unwind$c3_sf_marshallOut_matrix189x267_uint8_T 00000001800542a0     c3_MotionObjectDetector.obj
 0002:000092b0       $unwind$c3_e_emlrt_marshallIn 00000001800542b0     c3_MotionObjectDetector.obj
 0002:000092c0       $unwind$c3_sf_marshallIn_matrix189x267_uint8_T 00000001800542c0     c3_MotionObjectDetector.obj
 0002:000092d0       $unwind$c3_sf_marshallOut_matrix500x500_uint8_T 00000001800542d0     c3_MotionObjectDetector.obj
 0002:000092d8       $unwind$c3_f_emlrt_marshallIn 00000001800542d8     c3_MotionObjectDetector.obj
 0002:000092e0       $unwind$c3_sf_marshallIn_matrix500x500_uint8_T 00000001800542e0     c3_MotionObjectDetector.obj
 0002:000092e8       $unwind$c3_sf_marshallOut_real_T 00000001800542e8     c3_MotionObjectDetector.obj
 0002:000092f0       $unwind$c3_g_emlrt_marshallIn 00000001800542f0     c3_MotionObjectDetector.obj
 0002:000092f8       $unwind$c3_sf_marshallIn_real_T 00000001800542f8     c3_MotionObjectDetector.obj
 0002:00009300       $unwind$c3_emlrt_marshallOut 0000000180054300     c3_MotionObjectDetector.obj
 0002:00009308       $unwind$c3_b_emlrt_marshallOut 0000000180054308     c3_MotionObjectDetector.obj
 0002:00009310       $unwind$c3_c_emlrt_marshallOut 0000000180054310     c3_MotionObjectDetector.obj
 0002:00009318       $unwind$c3_sf_marshallOut_vision_internal_SURFPoints_cg 0000000180054318     c3_MotionObjectDetector.obj
 0002:00009328       $unwind$c3_h_emlrt_marshallIn 0000000180054328     c3_MotionObjectDetector.obj
 0002:00009338       $unwind$c3_i_emlrt_marshallIn 0000000180054338     c3_MotionObjectDetector.obj
 0002:00009340       $unwind$c3_j_emlrt_marshallIn 0000000180054340     c3_MotionObjectDetector.obj
 0002:00009348       $unwind$c3_k_emlrt_marshallIn 0000000180054348     c3_MotionObjectDetector.obj
 0002:00009350       $unwind$c3_sf_marshallIn_vision_internal_SURFPoints_cg 0000000180054350     c3_MotionObjectDetector.obj
 0002:00009358       $unwind$c3_sf_marshallOut_dynamicmatrix 0000000180054358     c3_MotionObjectDetector.obj
 0002:00009360       $unwind$c3_l_emlrt_marshallIn 0000000180054360     c3_MotionObjectDetector.obj
 0002:00009368       $unwind$c3_sf_marshallIn_dynamicmatrix 0000000180054368     c3_MotionObjectDetector.obj
 0002:00009370       $unwind$c3_sf_marshallOut_dynamicmatrix_1 0000000180054370     c3_MotionObjectDetector.obj
 0002:00009378       $unwind$c3_m_emlrt_marshallIn 0000000180054378     c3_MotionObjectDetector.obj
 0002:00009380       $unwind$c3_sf_marshallIn_dynamicmatrix_1 0000000180054380     c3_MotionObjectDetector.obj
 0002:00009388       $unwind$c3_chart_data_browse_helper 0000000180054388     c3_MotionObjectDetector.obj
 0002:00009390       $unwind$c3_c_SURFPointsImpl_configure 0000000180054390     c3_MotionObjectDetector.obj
 0002:00009398       $unwind$c3_d_SURFPointsImpl_configure 0000000180054398     c3_MotionObjectDetector.obj
 0002:000093a0       $unwind$c3_b_normalizeX    00000001800543a0     c3_MotionObjectDetector.obj
 0002:000093b0       $unwind$c3_b_sort          00000001800543b0     c3_MotionObjectDetector.obj
 0002:000093b8       $unwind$c3_b_sortIdx       00000001800543b8     c3_MotionObjectDetector.obj
 0002:000093c8       $unwind$c3_b_merge_block   00000001800543c8     c3_MotionObjectDetector.obj
 0002:000093d0       $unwind$c3_b_merge         00000001800543d0     c3_MotionObjectDetector.obj
 0002:000093d8       $unwind$c3_emxEnsureCapacity_real32_T 00000001800543d8     c3_MotionObjectDetector.obj
 0002:000093e0       $unwind$c3_emxEnsureCapacity_real32_T1 00000001800543e0     c3_MotionObjectDetector.obj
 0002:000093e8       $unwind$c3_emxEnsureCapacity_int8_T 00000001800543e8     c3_MotionObjectDetector.obj
 0002:000093f0       $unwind$c3_emxCopyStruct_sJTMl20J2MtSHoTgq 00000001800543f0     c3_MotionObjectDetector.obj
 0002:000093f8       $unwind$c3_emxCopy_real32_T 00000001800543f8     c3_MotionObjectDetector.obj
 0002:00009400       $unwind$c3_emxCopy_real32_T1 0000000180054400     c3_MotionObjectDetector.obj
 0002:00009408       $unwind$c3_emxCopy_int8_T  0000000180054408     c3_MotionObjectDetector.obj
 0002:00009410       $unwind$c3_emxCopyStruct_vision_internal_S 0000000180054410     c3_MotionObjectDetector.obj
 0002:00009418       $unwind$c3_emxEnsureCapacity_int32_T 0000000180054418     c3_MotionObjectDetector.obj
 0002:00009420       $unwind$c3_emxCopyStruct_s2rdWZ6jAA0S8hk59 0000000180054420     c3_MotionObjectDetector.obj
 0002:00009428       $unwind$c3_emxEnsureCapacity_uint32_T 0000000180054428     c3_MotionObjectDetector.obj
 0002:00009430       $unwind$c3_emxInitStruct_vision_internal_S 0000000180054430     c3_MotionObjectDetector.obj
 0002:00009438       $unwind$c3_emxInit_real32_T 0000000180054438     c3_MotionObjectDetector.obj
 0002:00009440       $unwind$c3_emxInit_real32_T1 0000000180054440     c3_MotionObjectDetector.obj
 0002:00009448       $unwind$c3_emxInit_int8_T  0000000180054448     c3_MotionObjectDetector.obj
 0002:00009450       $unwind$c3_emxInit_uint32_T 0000000180054450     c3_MotionObjectDetector.obj
 0002:00009458       $unwind$c3_emxInitStruct_sJTMl20J2MtSHoTgq 0000000180054458     c3_MotionObjectDetector.obj
 0002:00009460       $unwind$c3_emxInitStruct_s2rdWZ6jAA0S8hk59 0000000180054460     c3_MotionObjectDetector.obj
 0002:00009468       $unwind$c3_emxInit_int32_T 0000000180054468     c3_MotionObjectDetector.obj
 0002:00009470       $unwind$c3_emxFree_real32_T 0000000180054470     c3_MotionObjectDetector.obj
 0002:00009478       $unwind$c3_emxFreeStruct_vision_internal_S 0000000180054478     c3_MotionObjectDetector.obj
 0002:00009480       $unwind$c3_emxFree_int8_T  0000000180054480     c3_MotionObjectDetector.obj
 0002:00009488       $unwind$c3_emxFree_uint32_T 0000000180054488     c3_MotionObjectDetector.obj
 0002:00009490       $unwind$c3_emxFreeStruct_sJTMl20J2MtSHoTgq 0000000180054490     c3_MotionObjectDetector.obj
 0002:00009498       $unwind$c3_emxFreeStruct_s2rdWZ6jAA0S8hk59 0000000180054498     c3_MotionObjectDetector.obj
 0002:000094a0       $unwind$c3_emxFree_int32_T 00000001800544a0     c3_MotionObjectDetector.obj
 0002:000094a8       $unwind$c3_emxEnsureCapacity_boolean_T 00000001800544a8     c3_MotionObjectDetector.obj
 0002:000094b0       $unwind$c3_emxInitStruct_sTGP517nzdmMmY48R 00000001800544b0     c3_MotionObjectDetector.obj
 0002:000094b8       $unwind$c3_emxInit_boolean_T 00000001800544b8     c3_MotionObjectDetector.obj
 0002:000094c0       $unwind$c3_emxFreeStruct_sTGP517nzdmMmY48R 00000001800544c0     c3_MotionObjectDetector.obj
 0002:000094c8       $unwind$c3_emxFree_boolean_T 00000001800544c8     c3_MotionObjectDetector.obj
 0002:000094d0       $unwind$c3_emxInitStruct_sGhH0Msgf1shDAvf5 00000001800544d0     c3_MotionObjectDetector.obj
 0002:000094d8       $unwind$c3_emxFreeStruct_sGhH0Msgf1shDAvf5 00000001800544d8     c3_MotionObjectDetector.obj
 0002:000094e0       $unwind$c3_emxEnsureCapacity_real_T 00000001800544e0     c3_MotionObjectDetector.obj
 0002:000094e8       $unwind$c3_emxEnsureCapacity_boolean_T1 00000001800544e8     c3_MotionObjectDetector.obj
 0002:000094f0       $unwind$c3_emxEnsureCapacity_int32_T1 00000001800544f0     c3_MotionObjectDetector.obj
 0002:000094f8       $unwind$c3_emxInit_int32_T1 00000001800544f8     c3_MotionObjectDetector.obj
 0002:00009500       $unwind$c3_emxInit_boolean_T1 0000000180054500     c3_MotionObjectDetector.obj
 0002:00009508       $unwind$c3_emxInit_real_T  0000000180054508     c3_MotionObjectDetector.obj
 0002:00009510       $unwind$c3_emxInitMatrix_cell_wrap_21 0000000180054510     c3_MotionObjectDetector.obj
 0002:00009518       $unwind$c3_emxInitStruct_cell_wrap_21 0000000180054518     c3_MotionObjectDetector.obj
 0002:00009520       $unwind$c3_emxFree_real_T  0000000180054520     c3_MotionObjectDetector.obj
 0002:00009528       $unwind$c3_emxFreeMatrix_cell_wrap_21 0000000180054528     c3_MotionObjectDetector.obj
 0002:00009530       $unwind$c3_emxFreeStruct_cell_wrap_21 0000000180054530     c3_MotionObjectDetector.obj
 0002:00009538       $unwind$c3_emxEnsureCapacity_real_T1 0000000180054538     c3_MotionObjectDetector.obj
 0002:00009540       $unwind$c3_emxInit_real_T1 0000000180054540     c3_MotionObjectDetector.obj
 0002:00009548       $unwind$init_simulink_io_address 0000000180054548     c3_MotionObjectDetector.obj
 0002:00009550       $unwind$sf_c3_MotionObjectDetector_third_party_uses_info 0000000180054550     c3_MotionObjectDetector.obj
 0002:00009558       $unwind$sf_c3_MotionObjectDetector_jit_fallback_info 0000000180054558     c3_MotionObjectDetector.obj
 0002:00009568       $unwind$sf_c3_MotionObjectDetector_updateBuildInfo_args_info 0000000180054568     c3_MotionObjectDetector.obj
 0002:00009570       $unwind$sf_get_sim_state_info_c3_MotionObjectDetector 0000000180054570     c3_MotionObjectDetector.obj
 0002:00009578       $unwind$sf_opaque_initialize_c3_MotionObjectDetector 0000000180054578     c3_MotionObjectDetector.obj
 0002:00009580       $unwind$sf_opaque_enable_c3_MotionObjectDetector 0000000180054580     c3_MotionObjectDetector.obj
 0002:00009588       $unwind$sf_opaque_disable_c3_MotionObjectDetector 0000000180054588     c3_MotionObjectDetector.obj
 0002:00009590       $unwind$sf_opaque_gateway_c3_MotionObjectDetector 0000000180054590     c3_MotionObjectDetector.obj
 0002:00009598       $unwind$sf_opaque_get_sim_state_c3_MotionObjectDetector 0000000180054598     c3_MotionObjectDetector.obj
 0002:000095a0       $unwind$sf_opaque_set_sim_state_c3_MotionObjectDetector 00000001800545a0     c3_MotionObjectDetector.obj
 0002:000095a8       $unwind$sf_opaque_terminate_c3_MotionObjectDetector 00000001800545a8     c3_MotionObjectDetector.obj
 0002:000095b0       $unwind$mdlProcessParameters_c3_MotionObjectDetector 00000001800545b0     c3_MotionObjectDetector.obj
 0002:000095b8       $unwind$sf_c3_MotionObjectDetector_get_post_codegen_info 00000001800545b8     c3_MotionObjectDetector.obj
 0002:000095c8       $unwind$mdlSetWorkWidths_c3_MotionObjectDetector 00000001800545c8     c3_MotionObjectDetector.obj
 0002:000095d0       $unwind$mdlRTW_c3_MotionObjectDetector 00000001800545d0     c3_MotionObjectDetector.obj
 0002:000095d8       $unwind$mdlStart_c3_MotionObjectDetector 00000001800545d8     c3_MotionObjectDetector.obj
 0002:000095e0       $unwind$_vsnprintf_l       00000001800545e0     MotionObjectDetector_sfun_registry.obj
 0002:000095e8       $unwind$_vsprintf_l        00000001800545e8     MotionObjectDetector_sfun_registry.obj
 0002:000095f0       $unwind$sprintf            00000001800545f0     MotionObjectDetector_sfun_registry.obj
 0002:000095f8       $unwind$mexFunction        00000001800545f8     MotionObjectDetector_sfun_registry.obj
 0002:00009608       $unwind$_ssSetInputPortDirectFeedThroughFcn 0000000180054608     MotionObjectDetector_sfun_registry.obj
 0002:00009618       $unwind$_ssSetRWorkValueFcn 0000000180054618     MotionObjectDetector_sfun_registry.obj
 0002:00009620       $unwind$_ssGetRWorkValueFcn 0000000180054620     MotionObjectDetector_sfun_registry.obj
 0002:00009628       $unwind$_ssSetIWorkValueFcn 0000000180054628     MotionObjectDetector_sfun_registry.obj
 0002:00009630       $unwind$_ssGetIWorkValueFcn 0000000180054630     MotionObjectDetector_sfun_registry.obj
 0002:00009638       $unwind$_ssSetPWorkValueFcn 0000000180054638     MotionObjectDetector_sfun_registry.obj
 0002:00009640       $unwind$_ssGetPWorkValueFcn 0000000180054640     MotionObjectDetector_sfun_registry.obj
 0002:00009648       $unwind$_ssGetInputPortSignalFcn 0000000180054648     MotionObjectDetector_sfun_registry.obj
 0002:00009658       $unwind$_ssGetInputPortBufferDstPortFcn 0000000180054658     MotionObjectDetector_sfun_registry.obj
 0002:00009660       $unwind$_ssGetInputPortSignalPtrsFcn 0000000180054660     MotionObjectDetector_sfun_registry.obj
 0002:00009670       $unwind$ssGetParameterTuningCompliance 0000000180054670     MotionObjectDetector_sfun_registry.obj
 0002:00009678       $unwind$ssGetDTypeIdFromMxArray 0000000180054678     MotionObjectDetector_sfun_registry.obj
 0002:00009680       $unwind$ssWriteRTWMx2dMatParam 0000000180054680     MotionObjectDetector_sfun_registry.obj
 0002:00009688       $unwind$ssWriteRTWMxVectParam 0000000180054688     MotionObjectDetector_sfun_registry.obj
 0002:00009690       $unwind$ssWriteRTWParameters 0000000180054690     MotionObjectDetector_sfun_registry.obj
 0002:00009698       $unwind$ssWriteRTWParamSettings 0000000180054698     MotionObjectDetector_sfun_registry.obj
 0002:000096a0       $unwind$ssWriteRTWStr      00000001800546a0     MotionObjectDetector_sfun_registry.obj
 0002:000096a8       $unwind$ssWriteRTWWorkVect 00000001800546a8     MotionObjectDetector_sfun_registry.obj
 0002:000096bc       $unwind$ssWarning          00000001800546bc     MotionObjectDetector_sfun_registry.obj
 0002:000096d0       $unwind$ssWriteRTWNameValuePair 00000001800546d0     MotionObjectDetector_sfun_registry.obj
 0002:000096d8       $unwind$_ssSetInputPortMatrixDimensions 00000001800546d8     MotionObjectDetector_sfun_registry.obj
 0002:000096e4       $unwind$_ssSetOutputPortMatrixDimensions 00000001800546e4     MotionObjectDetector_sfun_registry.obj
 0002:000096f0       $unwind$_ssSetInputPortVectorDimension 00000001800546f0     MotionObjectDetector_sfun_registry.obj
 0002:000096fc       $unwind$_ssSetOutputPortVectorDimension 00000001800546fc     MotionObjectDetector_sfun_registry.obj
 0002:00009708       $unwind$ssIsRunTimeParamTunable 0000000180054708     MotionObjectDetector_sfun_registry.obj
 0002:00009710       $unwind$ssGetSFuncBlockHandle 0000000180054710     MotionObjectDetector_sfun_registry.obj
 0002:00009718       $unwind$_ssGetCurrentInputPortWidth 0000000180054718     MotionObjectDetector_sfun_registry.obj
 0002:00009720       $unwind$_ssGetCurrentOutputPortWidth 0000000180054720     MotionObjectDetector_sfun_registry.obj
 0002:00009728       $unwind$_ssGetCallSystemNumFcnCallDestinations 0000000180054728     MotionObjectDetector_sfun_registry.obj
 0002:00009730       $unwind$ssGetIsZeroCrossControlDisabled 0000000180054730     MotionObjectDetector_sfun_registry.obj
 0002:00009738       $unwind$ssSetIsInputPortUsedForContZcSignal 0000000180054738     MotionObjectDetector_sfun_registry.obj
 0002:00009740       $unwind$ssSetZcSignalIsZcElementDisc 0000000180054740     MotionObjectDetector_sfun_registry.obj
 0002:00009750       $unwind$ssSetZcSignalName  0000000180054750     MotionObjectDetector_sfun_registry.obj
 0002:00009758       $unwind$ssSetZcSignalWidth 0000000180054758     MotionObjectDetector_sfun_registry.obj
 0002:00009760       $unwind$ssSetZcSignalZcEventType 0000000180054760     MotionObjectDetector_sfun_registry.obj
 0002:00009768       $unwind$ssSetZcSignalType  0000000180054768     MotionObjectDetector_sfun_registry.obj
 0002:00009770       $unwind$ssSetZcSignalZcTol 0000000180054770     MotionObjectDetector_sfun_registry.obj
 0002:00009778       $unwind$ssSetZcSignalNeedsEventNotification 0000000180054778     MotionObjectDetector_sfun_registry.obj
 0002:00009780       $unwind$ssCreateAndAddZcSignalInfo 0000000180054780     MotionObjectDetector_sfun_registry.obj
 0002:00009788       $unwind$ssCloneAndAddZcSignalInfo 0000000180054788     MotionObjectDetector_sfun_registry.obj
 0002:00009790       $unwind$ssGetNumZcSignals  0000000180054790     MotionObjectDetector_sfun_registry.obj
 0002:00009798       $unwind$ssGetZcSignalVector 0000000180054798     MotionObjectDetector_sfun_registry.obj
 0002:000097a0       $unwind$ssGetZcSignalName  00000001800547a0     MotionObjectDetector_sfun_registry.obj
 0002:000097a8       $unwind$ssGetZcSignalWidth 00000001800547a8     MotionObjectDetector_sfun_registry.obj
 0002:000097b0       $unwind$ssGetZcSignalZcEventType 00000001800547b0     MotionObjectDetector_sfun_registry.obj
 0002:000097b8       $unwind$ssGetZcSignalZcEvents 00000001800547b8     MotionObjectDetector_sfun_registry.obj
 0002:000097c0       $unwind$ssGetZcSignalType  00000001800547c0     MotionObjectDetector_sfun_registry.obj
 0002:000097c8       $unwind$ssGetZcSignalZcTol 00000001800547c8     MotionObjectDetector_sfun_registry.obj
 0002:000097d0       $unwind$ssGetZcSignalNeedsEventNotification 00000001800547d0     MotionObjectDetector_sfun_registry.obj
 0002:000097d8       $unwind$ssGetZcSignalIsZcElementDisc 00000001800547d8     MotionObjectDetector_sfun_registry.obj
 0002:000097e8       $unwind$ssGetIsInputPortElementContinuous 00000001800547e8     MotionObjectDetector_sfun_registry.obj
 0002:000097f8       $unwind$_ssGetAbsTol       00000001800547f8     MotionObjectDetector_sfun_registry.obj
 0002:00009800       $unwind$_ssSetInputPortReusableFcn 0000000180054800     MotionObjectDetector_sfun_registry.obj
 0002:00009808       $unwind$_ssSetOutputPortReusableFcn 0000000180054808     MotionObjectDetector_sfun_registry.obj
 0002:00009810       $unwind$_ssSetSymbolicDimsSupport 0000000180054810     MotionObjectDetector_sfun_registry.obj
 0002:00009818       $unwind$_ssRegisterSymbolicDimsExpr 0000000180054818     MotionObjectDetector_sfun_registry.obj
 0002:00009820       $unwind$_ssRegisterSymbolicDims 0000000180054820     MotionObjectDetector_sfun_registry.obj
 0002:00009828       $unwind$_ssRegisterSymbolicDimsString 0000000180054828     MotionObjectDetector_sfun_registry.obj
 0002:00009830       $unwind$_ssRegisterSymbolicDimsIntValue 0000000180054830     MotionObjectDetector_sfun_registry.obj
 0002:00009838       $unwind$_ssRegisterSymbolicDimsPlus 0000000180054838     MotionObjectDetector_sfun_registry.obj
 0002:00009840       $unwind$_ssRegisterSymbolicDimsMinus 0000000180054840     MotionObjectDetector_sfun_registry.obj
 0002:00009848       $unwind$_ssRegisterSymbolicDimsMultiply 0000000180054848     MotionObjectDetector_sfun_registry.obj
 0002:00009850       $unwind$_ssRegisterSymbolicDimsDivide 0000000180054850     MotionObjectDetector_sfun_registry.obj
 0002:00009858       $unwind$_ssGetNumSymbolicDims 0000000180054858     MotionObjectDetector_sfun_registry.obj
 0002:00009860       $unwind$_ssGetSymbolicDim  0000000180054860     MotionObjectDetector_sfun_registry.obj
 0002:00009868       $unwind$_ssSetInputPortSymbolicDimsId 0000000180054868     MotionObjectDetector_sfun_registry.obj
 0002:00009870       $unwind$_ssGetCompInputPortSymbolicDimsId 0000000180054870     MotionObjectDetector_sfun_registry.obj
 0002:00009878       $unwind$_ssSetCompInputPortSymbolicDimsId 0000000180054878     MotionObjectDetector_sfun_registry.obj
 0002:00009880       $unwind$_ssSetOutputPortSymbolicDimsId 0000000180054880     MotionObjectDetector_sfun_registry.obj
 0002:00009888       $unwind$_ssGetCompOutputPortSymbolicDimsId 0000000180054888     MotionObjectDetector_sfun_registry.obj
 0002:00009890       $unwind$_ssSetCompOutputPortSymbolicDimsId 0000000180054890     MotionObjectDetector_sfun_registry.obj
 0002:00009898       $unwind$_ssSetCompDWorkSymbolicDimsId 0000000180054898     MotionObjectDetector_sfun_registry.obj
 0002:000098a0       $unwind$sf_process_check_sum_call 00000001800548a0     MotionObjectDetector_sfun_registry.obj
 0002:000098a8       $unwind$sf_process_get_third_party_uses_info_call 00000001800548a8     MotionObjectDetector_sfun_registry.obj
 0002:000098b8       $unwind$sf_process_get_jit_fallback_info_call 00000001800548b8     MotionObjectDetector_sfun_registry.obj
 0002:000098c8       $unwind$sf_process_get_post_codegen_info_call 00000001800548c8     MotionObjectDetector_sfun_registry.obj
 0002:000098d8       $unwind$sf_process_get_updateBuildInfo_args_info_call 00000001800548d8     MotionObjectDetector_sfun_registry.obj
 0002:000098e8       $unwind$sf_process_get_eml_resolved_functions_info_call 00000001800548e8     MotionObjectDetector_sfun_registry.obj
 0002:000098f8       $unwind$sf_mex_unlock_call 00000001800548f8     MotionObjectDetector_sfun_registry.obj
 0002:00009908       $unwind$ProcessMexSfunctionCmdLineCall 0000000180054908     MotionObjectDetector_sfun_registry.obj
 0002:00009910       $unwind$sf_machine_global_initializer_called 0000000180054910     MotionObjectDetector_sfun_registry.obj
 0002:00009918       $unwind$sf_machine_global_method_dispatcher 0000000180054918     MotionObjectDetector_sfun_registry.obj
 0002:00009920       $unwind$sf_machine_global_terminator 0000000180054920     MotionObjectDetector_sfun_registry.obj
 0002:00009928       $unwind$sf_register_machine_exported_symbols 0000000180054928     MotionObjectDetector_sfun_registry.obj
 0002:00009930       $unwind$sf_machine_global_initializer 0000000180054930     MotionObjectDetector_sfun_registry.obj
 0002:00009938       $unwind$mdlGetSimState     0000000180054938     MotionObjectDetector_sfun_registry.obj
 0002:00009940       $unwind$mdlSetSimState     0000000180054940     MotionObjectDetector_sfun_registry.obj
 0002:00009948       $unwind$mdlSetWorkWidths   0000000180054948     MotionObjectDetector_sfun_registry.obj
 0002:00009950       $unwind$mdlProcessParameters 0000000180054950     MotionObjectDetector_sfun_registry.obj
 0002:00009958       $unwind$mdl_start_processing 0000000180054958     MotionObjectDetector_sfun_registry.obj
 0002:00009960       $unwind$mdl_terminate_processing 0000000180054960     MotionObjectDetector_sfun_registry.obj
 0002:00009968       $unwind$mdlStart           0000000180054968     MotionObjectDetector_sfun_registry.obj
 0002:00009970       $unwind$mdlTerminate       0000000180054970     MotionObjectDetector_sfun_registry.obj
 0002:00009978       $unwind$mdlInitializeSizes 0000000180054978     MotionObjectDetector_sfun_registry.obj
 0002:00009980       $unwind$mdlInitializeSampleTimes 0000000180054980     MotionObjectDetector_sfun_registry.obj
 0002:00009988       $unwind$mdl_outputs_continuous_legacy 0000000180054988     MotionObjectDetector_sfun_registry.obj
 0002:00009990       $unwind$mdl_outputs_processing 0000000180054990     MotionObjectDetector_sfun_registry.obj
 0002:00009998       $unwind$mdl_zeroCrossings_processing 0000000180054998     MotionObjectDetector_sfun_registry.obj
 0002:000099a0       $unwind$mdlZeroCrossings   00000001800549a0     MotionObjectDetector_sfun_registry.obj
 0002:000099a8       $unwind$mdl_derivatives_processing 00000001800549a8     MotionObjectDetector_sfun_registry.obj
 0002:000099b0       $unwind$mdlDerivatives     00000001800549b0     MotionObjectDetector_sfun_registry.obj
 0002:000099b8       $unwind$mdl_initialize_conditions_processing 00000001800549b8     MotionObjectDetector_sfun_registry.obj
 0002:000099c0       $unwind$mdlInitializeConditions 00000001800549c0     MotionObjectDetector_sfun_registry.obj
 0002:000099c8       $unwind$mdl_ext_mode_exec_processing 00000001800549c8     MotionObjectDetector_sfun_registry.obj
 0002:000099d0       $unwind$mdlExtModeExec     00000001800549d0     MotionObjectDetector_sfun_registry.obj
 0002:000099d8       $unwind$mdlRTW             00000001800549d8     MotionObjectDetector_sfun_registry.obj
 0002:000099e0       $unwind$mdl_enable_processing 00000001800549e0     MotionObjectDetector_sfun_registry.obj
 0002:000099e8       $unwind$mdlEnable          00000001800549e8     MotionObjectDetector_sfun_registry.obj
 0002:000099f0       $unwind$mdl_disable_processing 00000001800549f0     MotionObjectDetector_sfun_registry.obj
 0002:000099f8       $unwind$mdlDisable         00000001800549f8     MotionObjectDetector_sfun_registry.obj
 0002:00009a00       $unwind$mdlOutputs         0000000180054a00     MotionObjectDetector_sfun_registry.obj
 0002:00009a08       $unwind$mdl_update_processing 0000000180054a08     MotionObjectDetector_sfun_registry.obj
 0002:00009a10       $unwind$mdlUpdate          0000000180054a10     MotionObjectDetector_sfun_registry.obj
 0002:00009a18       $unwind$ProcessMexSfunctionEveryCall 0000000180054a18     MotionObjectDetector_sfun_registry.obj
 0002:00009a20       $unwind$_RegNumInputPortsCB 0000000180054a20     MotionObjectDetector_sfun_registry.obj
 0002:00009a28       $unwind$_RegNumOutputPortsCB 0000000180054a28     MotionObjectDetector_sfun_registry.obj
 0002:00009a30       $unwind$_CreateSimStruct   0000000180054a30     MotionObjectDetector_sfun_registry.obj
 0002:00009a38       $unwind$_ProcessMexSfunctionCmdLineCall 0000000180054a38     MotionObjectDetector_sfun_registry.obj
 0002:00009a48       $unwind$ReportIndexOutOfBoundsError 0000000180054a48     MotionObjectDetector_sfun_registry.obj
 0002:00009a58       $unwind$?length@?$char_traits@D@std@@SA_KQEBD@Z 0000000180054a58     extractSurfCore.obj
 0002:00009a68       $ip2state$?length@?$char_traits@D@std@@SA_KQEBD@Z 0000000180054a68     extractSurfCore.obj
 0002:00009a70       $unwind$?eq_int_type@?$char_traits@D@std@@SA_NAEBH0@Z 0000000180054a70     extractSurfCore.obj
 0002:00009a78       $unwind$?_Allocate@std@@YAPEAX_K0_N@Z 0000000180054a78     extractSurfCore.obj
 0002:00009a80       $unwind$?_Deallocate@std@@YAXPEAX_K1@Z 0000000180054a80     extractSurfCore.obj
 0002:00009a88       $unwind$??0String@cv@@QEAA@PEBD@Z 0000000180054a88     extractSurfCore.obj
 0002:00009a90       $unwind$??1String@cv@@QEAA@XZ 0000000180054a90     extractSurfCore.obj
 0002:00009aa0       $ip2state$??1String@cv@@QEAA@XZ 0000000180054aa0     extractSurfCore.obj
 0002:00009aa8       $unwind$??4String@cv@@QEAAAEAV01@AEBV01@@Z 0000000180054aa8     extractSurfCore.obj
 0002:00009ab0       $unwind$?c_str@String@cv@@QEBAPEBDXZ 0000000180054ab0     extractSurfCore.obj
 0002:00009ab8       $unwind$??_GString@cv@@QEAAPEAXI@Z 0000000180054ab8     extractSurfCore.obj
 0002:00009ac0       $unwind$?decRef@PtrOwner@detail@cv@@QEAAXXZ 0000000180054ac0     extractSurfCore.obj
 0002:00009ac8       $unwind$??_GPtrOwner@detail@cv@@MEAAPEAXI@Z 0000000180054ac8     extractSurfCore.obj
 0002:00009ad0       $unwind$?cvRound@@YAHM@Z   0000000180054ad0     extractSurfCore.obj
 0002:00009ad8       $unwind$extractSurf_assignOutput 0000000180054ad8     extractSurfCore.obj
 0002:00009aec       $stateUnwindMap$extractSurf_assignOutput 0000000180054aec     extractSurfCore.obj
 0002:00009afc       $ip2state$extractSurf_assignOutput 0000000180054afc     extractSurfCore.obj
 0002:00009b24       $unwind$extractSurf_assignOutput$dtor$0 0000000180054b24     extractSurfCore.obj
 0002:00009b2c       $unwind$extractSurf_assignOutput$dtor$1 0000000180054b2c     extractSurfCore.obj
 0002:00009b34       $unwind$extractSurf_assignOutputRM 0000000180054b34     extractSurfCore.obj
 0002:00009b48       $stateUnwindMap$extractSurf_assignOutputRM 0000000180054b48     extractSurfCore.obj
 0002:00009b58       $ip2state$extractSurf_assignOutputRM 0000000180054b58     extractSurfCore.obj
 0002:00009b80       $unwind$extractSurf_assignOutputRM$dtor$0 0000000180054b80     extractSurfCore.obj
 0002:00009b88       $unwind$extractSurf_assignOutputRM$dtor$1 0000000180054b88     extractSurfCore.obj
 0002:00009b90       $unwind$extractSurf_compute 0000000180054b90     extractSurfCore.obj
 0002:00009ba4       $stateUnwindMap$extractSurf_compute 0000000180054ba4     extractSurfCore.obj
 0002:00009bc4       $ip2state$extractSurf_compute 0000000180054bc4     extractSurfCore.obj
 0002:00009c0c       $unwind$extractSurf_compute$dtor$0 0000000180054c0c     extractSurfCore.obj
 0002:00009c14       $unwind$extractSurf_compute$dtor$1 0000000180054c14     extractSurfCore.obj
 0002:00009c1c       $unwind$extractSurf_compute$dtor$2 0000000180054c1c     extractSurfCore.obj
 0002:00009c24       $unwind$extractSurf_compute$dtor$3 0000000180054c24     extractSurfCore.obj
 0002:00009c2c       $unwind$extractSurf_computeRM 0000000180054c2c     extractSurfCore.obj
 0002:00009c40       $stateUnwindMap$extractSurf_computeRM 0000000180054c40     extractSurfCore.obj
 0002:00009c60       $ip2state$extractSurf_computeRM 0000000180054c60     extractSurfCore.obj
 0002:00009ca8       $unwind$extractSurf_computeRM$dtor$0 0000000180054ca8     extractSurfCore.obj
 0002:00009cb0       $unwind$extractSurf_computeRM$dtor$1 0000000180054cb0     extractSurfCore.obj
 0002:00009cb8       $unwind$extractSurf_computeRM$dtor$2 0000000180054cb8     extractSurfCore.obj
 0002:00009cc0       $unwind$extractSurf_computeRM$dtor$3 0000000180054cc0     extractSurfCore.obj
 0002:00009cc8       $unwind$?keyPoints2Fields@@YAXAEAV?$vector@VKeyPoint@cv@@V?$allocator@VKeyPoint@cv@@@std@@@std@@_NPEAM22PEAC2@Z 0000000180054cc8     extractSurfCore.obj
 0002:00009cd0       $unwind$?keyPoints2FieldsRM@@YAXAEAV?$vector@VKeyPoint@cv@@V?$allocator@VKeyPoint@cv@@@std@@@std@@_NPEAM22PEAC2@Z 0000000180054cd0     extractSurfCore.obj
 0002:00009cd8       $unwind$?struct2KeyPoints@@YAXPEAM00PEACAEAV?$vector@VKeyPoint@cv@@V?$allocator@VKeyPoint@cv@@@std@@@std@@H@Z 0000000180054cd8     extractSurfCore.obj
 0002:00009ce0       $unwind$?struct2KeyPointsRM@@YAXPEAM00PEACAEAV?$vector@VKeyPoint@cv@@V?$allocator@VKeyPoint@cv@@@std@@@std@@H@Z 0000000180054ce0     extractSurfCore.obj
 0002:00009ce8       $unwind$??0KeyPoint@cv@@QEAA@MMMMMHH@Z 0000000180054ce8     extractSurfCore.obj
 0002:00009cf0       $unwind$??0KeyPoint@cv@@QEAA@AEBV01@@Z 0000000180054cf0     extractSurfCore.obj
 0002:00009cf8       $unwind$??RMatSize@cv@@QEBA?AV?$Size_@H@1@XZ 0000000180054cf8     extractSurfCore.obj
 0002:00009d00       $unwind$??0Mat@cv@@QEAA@XZ 0000000180054d00     extractSurfCore.obj
 0002:00009d08       $unwind$??0Mat@cv@@QEAA@AEBV01@@Z 0000000180054d08     extractSurfCore.obj
 0002:00009d10       $unwind$??0Mat@cv@@QEAA@HHHPEAX_K@Z 0000000180054d10     extractSurfCore.obj
 0002:00009d20       $stateUnwindMap$??0Mat@cv@@QEAA@HHHPEAX_K@Z 0000000180054d20     extractSurfCore.obj
 0002:00009d30       $ip2state$??0Mat@cv@@QEAA@HHHPEAX_K@Z 0000000180054d30     extractSurfCore.obj
 0002:00009d58       $unwind$?dtor$0@?0???0Mat@cv@@QEAA@HHHPEAX_K@Z@4HA 0000000180054d58     extractSurfCore.obj
 0002:00009d60       $unwind$?dtor$1@?0???0Mat@cv@@QEAA@HHHPEAX_K@Z@4HA 0000000180054d60     extractSurfCore.obj
 0002:00009d68       $unwind$??1Mat@cv@@QEAA@XZ 0000000180054d68     extractSurfCore.obj
 0002:00009d78       $ip2state$??1Mat@cv@@QEAA@XZ 0000000180054d78     extractSurfCore.obj
 0002:00009d80       $unwind$?release@Mat@cv@@QEAAXXZ 0000000180054d80     extractSurfCore.obj
 0002:00009d88       $unwind$?total@Mat@cv@@QEBA_KXZ 0000000180054d88     extractSurfCore.obj
 0002:00009d90       $unwind$??_GMat@cv@@QEAAPEAXI@Z 0000000180054d90     extractSurfCore.obj
 0002:00009d98       $unwind$?deallocate@?$allocator@VKeyPoint@cv@@@std@@QEAAXPEAVKeyPoint@cv@@_K@Z 0000000180054d98     extractSurfCore.obj
 0002:00009da0       $unwind$?allocate@?$allocator@VKeyPoint@cv@@@std@@QEAAPEAVKeyPoint@cv@@_K@Z 0000000180054da0     extractSurfCore.obj
 0002:00009da8       $unwind$?max_size@?$allocator_traits@V?$allocator@VKeyPoint@cv@@@std@@@std@@SA_KAEBV?$allocator@VKeyPoint@cv@@@2@@Z 0000000180054da8     extractSurfCore.obj
 0002:00009db0       $unwind$?select_on_container_copy_construction@?$allocator_traits@V?$allocator@VKeyPoint@cv@@@std@@@std@@SA?AV?$allocator@VKeyPoint@cv@@@2@AEBV32@@Z 0000000180054db0     extractSurfCore.obj
 0002:00009db8       $unwind$?select_on_container_copy_construction@?$_Wrap_alloc@V?$allocator@VKeyPoint@cv@@@std@@@std@@QEBA?AU12@U_Nil@2@@Z 0000000180054db8     extractSurfCore.obj
 0002:00009dc0       $unwind$??0?$_Wrap_alloc@V?$allocator@VKeyPoint@cv@@@std@@@std@@QEAA@XZ 0000000180054dc0     extractSurfCore.obj
 0002:00009dc8       $unwind$??0?$_Wrap_alloc@V?$allocator@VKeyPoint@cv@@@std@@@std@@QEAA@$$QEAU01@@Z 0000000180054dc8     extractSurfCore.obj
 0002:00009dd0       $unwind$?allocate@?$_Wrap_alloc@V?$allocator@VKeyPoint@cv@@@std@@@std@@QEAAPEAVKeyPoint@cv@@_K@Z 0000000180054dd0     extractSurfCore.obj
 0002:00009dd8       $unwind$?deallocate@?$_Wrap_alloc@V?$allocator@VKeyPoint@cv@@@std@@@std@@QEAAXPEAVKeyPoint@cv@@_K@Z 0000000180054dd8     extractSurfCore.obj
 0002:00009de0       $unwind$?max_size@?$_Wrap_alloc@V?$allocator@VKeyPoint@cv@@@std@@@std@@QEBA_KU_Nil@2@@Z 0000000180054de0     extractSurfCore.obj
 0002:00009de8       $unwind$??0?$_Vector_alloc@U?$_Vec_base_types@VKeyPoint@cv@@V?$allocator@VKeyPoint@cv@@@std@@@std@@@std@@QEAA@XZ 0000000180054de8     extractSurfCore.obj
 0002:00009df0       $unwind$?_Orphan_all@?$_Vector_alloc@U?$_Vec_base_types@VKeyPoint@cv@@V?$allocator@VKeyPoint@cv@@@std@@@std@@@std@@QEAAXXZ 0000000180054df0     extractSurfCore.obj
 0002:00009df8       $unwind$?_Getal@?$_Vector_alloc@U?$_Vec_base_types@VKeyPoint@cv@@V?$allocator@VKeyPoint@cv@@@std@@@std@@@std@@QEAAAEAU?$_Wrap_alloc@V?$allocator@VKeyPoint@cv@@@std@@@2@XZ 0000000180054df8     extractSurfCore.obj
 0002:00009e00       $unwind$?_Getal@?$_Vector_alloc@U?$_Vec_base_types@VKeyPoint@cv@@V?$allocator@VKeyPoint@cv@@@std@@@std@@@std@@QEBAAEBU?$_Wrap_alloc@V?$allocator@VKeyPoint@cv@@@std@@@2@XZ 0000000180054e00     extractSurfCore.obj
 0002:00009e08       $unwind$?_Get_data@?$_Vector_alloc@U?$_Vec_base_types@VKeyPoint@cv@@V?$allocator@VKeyPoint@cv@@@std@@@std@@@std@@QEAAAEAV?$_Vector_val@U?$_Simple_types@VKeyPoint@cv@@@std@@@2@XZ 0000000180054e08     extractSurfCore.obj
 0002:00009e10       $unwind$?_Get_data@?$_Vector_alloc@U?$_Vec_base_types@VKeyPoint@cv@@V?$allocator@VKeyPoint@cv@@@std@@@std@@@std@@QEBAAEBV?$_Vector_val@U?$_Simple_types@VKeyPoint@cv@@@std@@@2@XZ 0000000180054e10     extractSurfCore.obj
 0002:00009e18       $unwind$?_Myfirst@?$_Vector_alloc@U?$_Vec_base_types@VKeyPoint@cv@@V?$allocator@VKeyPoint@cv@@@std@@@std@@@std@@QEAAAEAPEAVKeyPoint@cv@@XZ 0000000180054e18     extractSurfCore.obj
 0002:00009e20       $unwind$?_Myfirst@?$_Vector_alloc@U?$_Vec_base_types@VKeyPoint@cv@@V?$allocator@VKeyPoint@cv@@@std@@@std@@@std@@QEBAAEBQEAVKeyPoint@cv@@XZ 0000000180054e20     extractSurfCore.obj
 0002:00009e28       $unwind$?_Mylast@?$_Vector_alloc@U?$_Vec_base_types@VKeyPoint@cv@@V?$allocator@VKeyPoint@cv@@@std@@@std@@@std@@QEAAAEAPEAVKeyPoint@cv@@XZ 0000000180054e28     extractSurfCore.obj
 0002:00009e30       $unwind$?_Mylast@?$_Vector_alloc@U?$_Vec_base_types@VKeyPoint@cv@@V?$allocator@VKeyPoint@cv@@@std@@@std@@@std@@QEBAAEBQEAVKeyPoint@cv@@XZ 0000000180054e30     extractSurfCore.obj
 0002:00009e38       $unwind$?_Myend@?$_Vector_alloc@U?$_Vec_base_types@VKeyPoint@cv@@V?$allocator@VKeyPoint@cv@@@std@@@std@@@std@@QEAAAEAPEAVKeyPoint@cv@@XZ 0000000180054e38     extractSurfCore.obj
 0002:00009e40       $unwind$?_Myend@?$_Vector_alloc@U?$_Vec_base_types@VKeyPoint@cv@@V?$allocator@VKeyPoint@cv@@@std@@@std@@@std@@QEBAAEBQEAVKeyPoint@cv@@XZ 0000000180054e40     extractSurfCore.obj
 0002:00009e48       $unwind$??0?$vector@VKeyPoint@cv@@V?$allocator@VKeyPoint@cv@@@std@@@std@@QEAA@XZ 0000000180054e48     extractSurfCore.obj
 0002:00009e58       $ip2state$??0?$vector@VKeyPoint@cv@@V?$allocator@VKeyPoint@cv@@@std@@@std@@QEAA@XZ 0000000180054e58     extractSurfCore.obj
 0002:00009e60       $unwind$??0?$vector@VKeyPoint@cv@@V?$allocator@VKeyPoint@cv@@@std@@@std@@QEAA@AEBV01@@Z 0000000180054e60     extractSurfCore.obj
 0002:00009e70       $stateUnwindMap$??0?$vector@VKeyPoint@cv@@V?$allocator@VKeyPoint@cv@@@std@@@std@@QEAA@AEBV01@@Z 0000000180054e70     extractSurfCore.obj
 0002:00009e80       $tryMap$??0?$vector@VKeyPoint@cv@@V?$allocator@VKeyPoint@cv@@@std@@@std@@QEAA@AEBV01@@Z 0000000180054e80     extractSurfCore.obj
 0002:00009e94       $handlerMap$0$??0?$vector@VKeyPoint@cv@@V?$allocator@VKeyPoint@cv@@@std@@@std@@QEAA@AEBV01@@Z 0000000180054e94     extractSurfCore.obj
 0002:00009ea8       $ip2state$??0?$vector@VKeyPoint@cv@@V?$allocator@VKeyPoint@cv@@@std@@@std@@QEAA@AEBV01@@Z 0000000180054ea8     extractSurfCore.obj
 0002:00009ed8       $unwind$?catch$0@?0???0?$vector@VKeyPoint@cv@@V?$allocator@VKeyPoint@cv@@@std@@@std@@QEAA@AEBV01@@Z@4HA 0000000180054ed8     extractSurfCore.obj
 0002:00009ee8       $unwind$??1?$vector@VKeyPoint@cv@@V?$allocator@VKeyPoint@cv@@@std@@@std@@QEAA@XZ 0000000180054ee8     extractSurfCore.obj
 0002:00009ef8       $ip2state$??1?$vector@VKeyPoint@cv@@V?$allocator@VKeyPoint@cv@@@std@@@std@@QEAA@XZ 0000000180054ef8     extractSurfCore.obj
 0002:00009f00       $unwind$?push_back@?$vector@VKeyPoint@cv@@V?$allocator@VKeyPoint@cv@@@std@@@std@@QEAAXAEBVKeyPoint@cv@@@Z 0000000180054f00     extractSurfCore.obj
 0002:00009f08       $unwind$?size@?$vector@VKeyPoint@cv@@V?$allocator@VKeyPoint@cv@@@std@@@std@@QEBA_KXZ 0000000180054f08     extractSurfCore.obj
 0002:00009f10       $unwind$?max_size@?$vector@VKeyPoint@cv@@V?$allocator@VKeyPoint@cv@@@std@@@std@@QEBA_KXZ 0000000180054f10     extractSurfCore.obj
 0002:00009f18       $unwind$?capacity@?$vector@VKeyPoint@cv@@V?$allocator@VKeyPoint@cv@@@std@@@std@@QEBA_KXZ 0000000180054f18     extractSurfCore.obj
 0002:00009f20       $unwind$?_Has_unused_capacity@?$vector@VKeyPoint@cv@@V?$allocator@VKeyPoint@cv@@@std@@@std@@AEBA_NXZ 0000000180054f20     extractSurfCore.obj
 0002:00009f28       $unwind$??A?$vector@VKeyPoint@cv@@V?$allocator@VKeyPoint@cv@@@std@@@std@@QEAAAEAVKeyPoint@cv@@_K@Z 0000000180054f28     extractSurfCore.obj
 0002:00009f30       $unwind$?_Umove_if_noexcept1@?$vector@VKeyPoint@cv@@V?$allocator@VKeyPoint@cv@@@std@@@std@@AEAAXPEAVKeyPoint@cv@@00U?$integral_constant@_N$0A@@2@@Z 0000000180054f30     extractSurfCore.obj
 0002:00009f38       $unwind$?_Umove_if_noexcept@?$vector@VKeyPoint@cv@@V?$allocator@VKeyPoint@cv@@@std@@@std@@AEAAXPEAVKeyPoint@cv@@00@Z 0000000180054f38     extractSurfCore.obj
 0002:00009f40       $unwind$?_Destroy@?$vector@VKeyPoint@cv@@V?$allocator@VKeyPoint@cv@@@std@@@std@@AEAAXPEAVKeyPoint@cv@@0@Z 0000000180054f40     extractSurfCore.obj
 0002:00009f48       $unwind$?_Calculate_growth@?$vector@VKeyPoint@cv@@V?$allocator@VKeyPoint@cv@@@std@@@std@@AEBA_K_K@Z 0000000180054f48     extractSurfCore.obj
 0002:00009f50       $unwind$?_Buy@?$vector@VKeyPoint@cv@@V?$allocator@VKeyPoint@cv@@@std@@@std@@AEAA_N_K@Z 0000000180054f50     extractSurfCore.obj
 0002:00009f58       $unwind$?_Change_array@?$vector@VKeyPoint@cv@@V?$allocator@VKeyPoint@cv@@@std@@@std@@AEAAXQEAVKeyPoint@cv@@_K1@Z 0000000180054f58     extractSurfCore.obj
 0002:00009f60       $unwind$?_Tidy@?$vector@VKeyPoint@cv@@V?$allocator@VKeyPoint@cv@@@std@@@std@@AEAAXXZ 0000000180054f60     extractSurfCore.obj
 0002:00009f68       $unwind$?_Xlength@?$vector@VKeyPoint@cv@@V?$allocator@VKeyPoint@cv@@@std@@@std@@CAXXZ 0000000180054f68     extractSurfCore.obj
 0002:00009f70       $unwind$??_G?$vector@VKeyPoint@cv@@V?$allocator@VKeyPoint@cv@@@std@@@std@@QEAAPEAXI@Z 0000000180054f70     extractSurfCore.obj
 0002:00009f78       $unwind$??$?6U?$char_traits@D@std@@@std@@YAAEAV?$basic_ostream@DU?$char_traits@D@std@@@0@AEAV10@PEBD@Z 0000000180054f78     extractSurfCore.obj
 0002:00009f88       $stateUnwindMap$??$?6U?$char_traits@D@std@@@std@@YAAEAV?$basic_ostream@DU?$char_traits@D@std@@@0@AEAV10@PEBD@Z 0000000180054f88     extractSurfCore.obj
 0002:00009fa0       $tryMap$??$?6U?$char_traits@D@std@@@std@@YAAEAV?$basic_ostream@DU?$char_traits@D@std@@@0@AEAV10@PEBD@Z 0000000180054fa0     extractSurfCore.obj
 0002:00009fb4       $handlerMap$0$??$?6U?$char_traits@D@std@@@std@@YAAEAV?$basic_ostream@DU?$char_traits@D@std@@@0@AEAV10@PEBD@Z 0000000180054fb4     extractSurfCore.obj
 0002:00009fd0       $ip2state$??$?6U?$char_traits@D@std@@@std@@YAAEAV?$basic_ostream@DU?$char_traits@D@std@@@0@AEAV10@PEBD@Z 0000000180054fd0     extractSurfCore.obj
 0002:0000a010       $unwind$?dtor$0@?0???$?6U?$char_traits@D@std@@@std@@YAAEAV?$basic_ostream@DU?$char_traits@D@std@@@0@AEAV10@PEBD@Z@4HA 0000000180055010     extractSurfCore.obj
 0002:0000a018       $unwind$?catch$1@?0???$?6U?$char_traits@D@std@@@std@@YAAEAV?$basic_ostream@DU?$char_traits@D@std@@@0@AEAV10@PEBD@Z@4HA 0000000180055018     extractSurfCore.obj
 0002:0000a028       $unwind$??6anyimpl@cvflann@@YAAEAV?$basic_ostream@DU?$char_traits@D@std@@@std@@AEAV23@AEBUempty_any@01@@Z 0000000180055028     extractSurfCore.obj
 0002:0000a030       $unwind$??_Gbase_any_policy@anyimpl@cvflann@@UEAAPEAXI@Z 0000000180055030     extractSurfCore.obj
 0002:0000a038       $unwind$??0?$typed_base_any_policy@W4flann_centers_init_t@cvflann@@@anyimpl@cvflann@@QEAA@XZ 0000000180055038     extractSurfCore.obj
 0002:0000a040       $unwind$??1?$typed_base_any_policy@W4flann_centers_init_t@cvflann@@@anyimpl@cvflann@@UEAA@XZ 0000000180055040     extractSurfCore.obj
 0002:0000a048       $unwind$??_G?$typed_base_any_policy@W4flann_centers_init_t@cvflann@@@anyimpl@cvflann@@UEAAPEAXI@Z 0000000180055048     extractSurfCore.obj
 0002:0000a050       $unwind$?static_delete@?$big_any_policy@W4flann_centers_init_t@cvflann@@@anyimpl@cvflann@@UEAAXPEAPEAX@Z 0000000180055050     extractSurfCore.obj
 0002:0000a058       $unwind$?copy_from_value@?$big_any_policy@W4flann_centers_init_t@cvflann@@@anyimpl@cvflann@@UEAAXPEBXPEAPEAX@Z 0000000180055058     extractSurfCore.obj
 0002:0000a060       $unwind$?clone@?$big_any_policy@W4flann_centers_init_t@cvflann@@@anyimpl@cvflann@@UEAAXPEBQEAXPEAPEAX@Z 0000000180055060     extractSurfCore.obj
 0002:0000a068       $unwind$?print@?$big_any_policy@W4flann_centers_init_t@cvflann@@@anyimpl@cvflann@@UEAAXAEAV?$basic_ostream@DU?$char_traits@D@std@@@std@@PEBQEAX@Z 0000000180055068     extractSurfCore.obj
 0002:0000a070       $unwind$??0?$big_any_policy@W4flann_centers_init_t@cvflann@@@anyimpl@cvflann@@QEAA@XZ 0000000180055070     extractSurfCore.obj
 0002:0000a078       $unwind$??1?$big_any_policy@W4flann_centers_init_t@cvflann@@@anyimpl@cvflann@@UEAA@XZ 0000000180055078     extractSurfCore.obj
 0002:0000a080       $unwind$??_G?$big_any_policy@W4flann_centers_init_t@cvflann@@@anyimpl@cvflann@@UEAAPEAXI@Z 0000000180055080     extractSurfCore.obj
 0002:0000a088       $unwind$??0?$typed_base_any_policy@W4flann_algorithm_t@cvflann@@@anyimpl@cvflann@@QEAA@XZ 0000000180055088     extractSurfCore.obj
 0002:0000a090       $unwind$??1?$typed_base_any_policy@W4flann_algorithm_t@cvflann@@@anyimpl@cvflann@@UEAA@XZ 0000000180055090     extractSurfCore.obj
 0002:0000a098       $unwind$??_G?$typed_base_any_policy@W4flann_algorithm_t@cvflann@@@anyimpl@cvflann@@UEAAPEAXI@Z 0000000180055098     extractSurfCore.obj
 0002:0000a0a0       $unwind$?static_delete@?$big_any_policy@W4flann_algorithm_t@cvflann@@@anyimpl@cvflann@@UEAAXPEAPEAX@Z 00000001800550a0     extractSurfCore.obj
 0002:0000a0a8       $unwind$?copy_from_value@?$big_any_policy@W4flann_algorithm_t@cvflann@@@anyimpl@cvflann@@UEAAXPEBXPEAPEAX@Z 00000001800550a8     extractSurfCore.obj
 0002:0000a0b0       $unwind$?clone@?$big_any_policy@W4flann_algorithm_t@cvflann@@@anyimpl@cvflann@@UEAAXPEBQEAXPEAPEAX@Z 00000001800550b0     extractSurfCore.obj
 0002:0000a0b8       $unwind$?print@?$big_any_policy@W4flann_algorithm_t@cvflann@@@anyimpl@cvflann@@UEAAXAEAV?$basic_ostream@DU?$char_traits@D@std@@@std@@PEBQEAX@Z 00000001800550b8     extractSurfCore.obj
 0002:0000a0c0       $unwind$??0?$big_any_policy@W4flann_algorithm_t@cvflann@@@anyimpl@cvflann@@QEAA@XZ 00000001800550c0     extractSurfCore.obj
 0002:0000a0c8       $unwind$??1?$big_any_policy@W4flann_algorithm_t@cvflann@@@anyimpl@cvflann@@UEAA@XZ 00000001800550c8     extractSurfCore.obj
 0002:0000a0d0       $unwind$??_G?$big_any_policy@W4flann_algorithm_t@cvflann@@@anyimpl@cvflann@@UEAAPEAXI@Z 00000001800550d0     extractSurfCore.obj
 0002:0000a0d8       $unwind$??0?$typed_base_any_policy@VString@cv@@@anyimpl@cvflann@@QEAA@XZ 00000001800550d8     extractSurfCore.obj
 0002:0000a0e0       $unwind$??1?$typed_base_any_policy@VString@cv@@@anyimpl@cvflann@@UEAA@XZ 00000001800550e0     extractSurfCore.obj
 0002:0000a0e8       $unwind$??_G?$typed_base_any_policy@VString@cv@@@anyimpl@cvflann@@UEAAPEAXI@Z 00000001800550e8     extractSurfCore.obj
 0002:0000a0f0       $unwind$?static_delete@?$big_any_policy@VString@cv@@@anyimpl@cvflann@@UEAAXPEAPEAX@Z 00000001800550f0     extractSurfCore.obj
 0002:0000a0f8       $unwind$?copy_from_value@?$big_any_policy@VString@cv@@@anyimpl@cvflann@@UEAAXPEBXPEAPEAX@Z 00000001800550f8     extractSurfCore.obj
 0002:0000a108       $stateUnwindMap$?copy_from_value@?$big_any_policy@VString@cv@@@anyimpl@cvflann@@UEAAXPEBXPEAPEAX@Z 0000000180055108     extractSurfCore.obj
 0002:0000a110       $ip2state$?copy_from_value@?$big_any_policy@VString@cv@@@anyimpl@cvflann@@UEAAXPEBXPEAPEAX@Z 0000000180055110     extractSurfCore.obj
 0002:0000a128       $unwind$?dtor$0@?0??copy_from_value@?$big_any_policy@VString@cv@@@anyimpl@cvflann@@UEAAXPEBXPEAPEAX@Z@4HA 0000000180055128     extractSurfCore.obj
 0002:0000a130       $unwind$?clone@?$big_any_policy@VString@cv@@@anyimpl@cvflann@@UEAAXPEBQEAXPEAPEAX@Z 0000000180055130     extractSurfCore.obj
 0002:0000a140       $stateUnwindMap$?clone@?$big_any_policy@VString@cv@@@anyimpl@cvflann@@UEAAXPEBQEAXPEAPEAX@Z 0000000180055140     extractSurfCore.obj
 0002:0000a148       $ip2state$?clone@?$big_any_policy@VString@cv@@@anyimpl@cvflann@@UEAAXPEBQEAXPEAPEAX@Z 0000000180055148     extractSurfCore.obj
 0002:0000a160       $unwind$?dtor$0@?0??clone@?$big_any_policy@VString@cv@@@anyimpl@cvflann@@UEAAXPEBQEAXPEAPEAX@Z@4HA 0000000180055160     extractSurfCore.obj
 0002:0000a168       $unwind$?move@?$big_any_policy@VString@cv@@@anyimpl@cvflann@@UEAAXPEBQEAXPEAPEAX@Z 0000000180055168     extractSurfCore.obj
 0002:0000a170       $unwind$?print@?$big_any_policy@VString@cv@@@anyimpl@cvflann@@UEAAXAEAV?$basic_ostream@DU?$char_traits@D@std@@@std@@PEBQEAX@Z 0000000180055170     extractSurfCore.obj
 0002:0000a178       $unwind$??0?$big_any_policy@VString@cv@@@anyimpl@cvflann@@QEAA@XZ 0000000180055178     extractSurfCore.obj
 0002:0000a180       $unwind$??1?$big_any_policy@VString@cv@@@anyimpl@cvflann@@UEAA@XZ 0000000180055180     extractSurfCore.obj
 0002:0000a188       $unwind$??_G?$big_any_policy@VString@cv@@@anyimpl@cvflann@@UEAAPEAXI@Z 0000000180055188     extractSurfCore.obj
 0002:0000a190       $unwind$??1?$Ptr@VMWSURF@cv@@@cv@@QEAA@XZ 0000000180055190     extractSurfCore.obj
 0002:0000a1a0       $ip2state$??1?$Ptr@VMWSURF@cv@@@cv@@QEAA@XZ 00000001800551a0     extractSurfCore.obj
 0002:0000a1a8       $unwind$?release@?$Ptr@VMWSURF@cv@@@cv@@QEAAXXZ 00000001800551a8     extractSurfCore.obj
 0002:0000a1b0       $unwind$?empty@?$Ptr@VMWSURF@cv@@@cv@@QEBA_NXZ 00000001800551b0     extractSurfCore.obj
 0002:0000a1b8       $unwind$??$makePtr@VMWSURF@cv@@@cv@@YA?AU?$Ptr@VMWSURF@cv@@@0@XZ 00000001800551b8     extractSurfCore.obj
 0002:0000a1c8       $stateUnwindMap$??$makePtr@VMWSURF@cv@@@cv@@YA?AU?$Ptr@VMWSURF@cv@@@0@XZ 00000001800551c8     extractSurfCore.obj
 0002:0000a1d0       $ip2state$??$makePtr@VMWSURF@cv@@@cv@@YA?AU?$Ptr@VMWSURF@cv@@@0@XZ 00000001800551d0     extractSurfCore.obj
 0002:0000a1e8       $unwind$?dtor$0@?0???$makePtr@VMWSURF@cv@@@cv@@YA?AU?$Ptr@VMWSURF@cv@@@0@XZ@4HA 00000001800551e8     extractSurfCore.obj
 0002:0000a1f0       $unwind$??$cArrayFromMat@M@@YAXPEAMAEBVMat@cv@@@Z 00000001800551f0     extractSurfCore.obj
 0002:0000a200       $unwind$??$cArrayFromMat_RowMaj@M@@YAXPEAMAEBVMat@cv@@@Z 0000000180055200     extractSurfCore.obj
 0002:0000a210       $unwind$??$emplace_back@AEBVKeyPoint@cv@@@?$vector@VKeyPoint@cv@@V?$allocator@VKeyPoint@cv@@@std@@@std@@QEAAXAEBVKeyPoint@cv@@@Z 0000000180055210     extractSurfCore.obj
 0002:0000a220       $stateUnwindMap$??$emplace_back@AEBVKeyPoint@cv@@@?$vector@VKeyPoint@cv@@V?$allocator@VKeyPoint@cv@@@std@@@std@@QEAAXAEBVKeyPoint@cv@@@Z 0000000180055220     extractSurfCore.obj
 0002:0000a230       $tryMap$??$emplace_back@AEBVKeyPoint@cv@@@?$vector@VKeyPoint@cv@@V?$allocator@VKeyPoint@cv@@@std@@@std@@QEAAXAEBVKeyPoint@cv@@@Z 0000000180055230     extractSurfCore.obj
 0002:0000a244       $handlerMap$0$??$emplace_back@AEBVKeyPoint@cv@@@?$vector@VKeyPoint@cv@@V?$allocator@VKeyPoint@cv@@@std@@@std@@QEAAXAEBVKeyPoint@cv@@@Z 0000000180055244     extractSurfCore.obj
 0002:0000a258       $ip2state$??$emplace_back@AEBVKeyPoint@cv@@@?$vector@VKeyPoint@cv@@V?$allocator@VKeyPoint@cv@@@std@@@std@@QEAAXAEBVKeyPoint@cv@@@Z 0000000180055258     extractSurfCore.obj
 0002:0000a288       $unwind$?catch$0@?0???$emplace_back@AEBVKeyPoint@cv@@@?$vector@VKeyPoint@cv@@V?$allocator@VKeyPoint@cv@@@std@@@std@@QEAAXAEBVKeyPoint@cv@@@Z@4HA 0000000180055288     extractSurfCore.obj
 0002:0000a298       $unwind$??$?0U?$_Wrap_alloc@V?$allocator@VKeyPoint@cv@@@std@@@std@@X@?$_Vector_alloc@U?$_Vec_base_types@VKeyPoint@cv@@V?$allocator@VKeyPoint@cv@@@std@@@std@@@std@@QEAA@$$QEAU?$_Wrap_alloc@V?$allocator@VKeyPoint@cv@@@std@@@1@@Z 0000000180055298     extractSurfCore.obj
 0002:0000a2a0       $unwind$??$_Ucopy@PEAVKeyPoint@cv@@@?$vector@VKeyPoint@cv@@V?$allocator@VKeyPoint@cv@@@std@@@std@@AEAAPEAVKeyPoint@cv@@PEAV23@00@Z 00000001800552a0     extractSurfCore.obj
 0002:0000a2a8       $unwind$??0_Sentry_base@?$basic_ostream@DU?$char_traits@D@std@@@std@@QEAA@AEAV12@@Z 00000001800552a8     extractSurfCore.obj
 0002:0000a2b0       $unwind$??1_Sentry_base@?$basic_ostream@DU?$char_traits@D@std@@@std@@QEAA@XZ 00000001800552b0     extractSurfCore.obj
 0002:0000a2c0       $ip2state$??1_Sentry_base@?$basic_ostream@DU?$char_traits@D@std@@@std@@QEAA@XZ 00000001800552c0     extractSurfCore.obj
 0002:0000a2c8       $unwind$??0sentry@?$basic_ostream@DU?$char_traits@D@std@@@std@@QEAA@AEAV12@@Z 00000001800552c8     extractSurfCore.obj
 0002:0000a2d8       $stateUnwindMap$??0sentry@?$basic_ostream@DU?$char_traits@D@std@@@std@@QEAA@AEAV12@@Z 00000001800552d8     extractSurfCore.obj
 0002:0000a2e0       $ip2state$??0sentry@?$basic_ostream@DU?$char_traits@D@std@@@std@@QEAA@AEAV12@@Z 00000001800552e0     extractSurfCore.obj
 0002:0000a2f8       $unwind$?dtor$0@?0???0sentry@?$basic_ostream@DU?$char_traits@D@std@@@std@@QEAA@AEAV12@@Z@4HA 00000001800552f8     extractSurfCore.obj
 0002:0000a300       $unwind$??1sentry@?$basic_ostream@DU?$char_traits@D@std@@@std@@QEAA@XZ 0000000180055300     extractSurfCore.obj
 0002:0000a310       $ip2state$??1sentry@?$basic_ostream@DU?$char_traits@D@std@@@std@@QEAA@XZ 0000000180055310     extractSurfCore.obj
 0002:0000a318       $unwind$??$?0V?$allocator@VKeyPoint@cv@@@std@@@?$_Wrap_alloc@V?$allocator@VKeyPoint@cv@@@std@@@std@@QEAA@$$QEAV?$allocator@VKeyPoint@cv@@@1@@Z 0000000180055318     extractSurfCore.obj
 0002:0000a320       $unwind$??$?0$$V@?$_Compressed_pair@U?$_Wrap_alloc@V?$allocator@VKeyPoint@cv@@@std@@@std@@V?$_Vector_val@U?$_Simple_types@VKeyPoint@cv@@@std@@@2@$00@std@@QEAA@U_Zero_then_variadic_args_t@1@@Z 0000000180055320     extractSurfCore.obj
 0002:0000a328       $unwind$??$_Destroy_range@V?$allocator@VKeyPoint@cv@@@std@@PEAVKeyPoint@cv@@@std@@YAXPEAVKeyPoint@cv@@0AEAU?$_Wrap_alloc@V?$allocator@VKeyPoint@cv@@@std@@@0@@Z 0000000180055328     extractSurfCore.obj
 0002:0000a330       $unwind$??0?$typed_base_any_policy@Uempty_any@anyimpl@cvflann@@@anyimpl@cvflann@@QEAA@XZ 0000000180055330     extractSurfCore.obj
 0002:0000a338       $unwind$??1?$typed_base_any_policy@Uempty_any@anyimpl@cvflann@@@anyimpl@cvflann@@UEAA@XZ 0000000180055338     extractSurfCore.obj
 0002:0000a340       $unwind$??_G?$typed_base_any_policy@Uempty_any@anyimpl@cvflann@@@anyimpl@cvflann@@UEAAPEAXI@Z 0000000180055340     extractSurfCore.obj
 0002:0000a348       $unwind$?static_delete@?$big_any_policy@Uempty_any@anyimpl@cvflann@@@anyimpl@cvflann@@UEAAXPEAPEAX@Z 0000000180055348     extractSurfCore.obj
 0002:0000a350       $unwind$?copy_from_value@?$big_any_policy@Uempty_any@anyimpl@cvflann@@@anyimpl@cvflann@@UEAAXPEBXPEAPEAX@Z 0000000180055350     extractSurfCore.obj
 0002:0000a358       $unwind$?clone@?$big_any_policy@Uempty_any@anyimpl@cvflann@@@anyimpl@cvflann@@UEAAXPEBQEAXPEAPEAX@Z 0000000180055358     extractSurfCore.obj
 0002:0000a360       $unwind$?print@?$big_any_policy@Uempty_any@anyimpl@cvflann@@@anyimpl@cvflann@@UEAAXAEAV?$basic_ostream@DU?$char_traits@D@std@@@std@@PEBQEAX@Z 0000000180055360     extractSurfCore.obj
 0002:0000a368       $unwind$??0?$big_any_policy@Uempty_any@anyimpl@cvflann@@@anyimpl@cvflann@@QEAA@XZ 0000000180055368     extractSurfCore.obj
 0002:0000a370       $unwind$??1?$big_any_policy@Uempty_any@anyimpl@cvflann@@@anyimpl@cvflann@@UEAA@XZ 0000000180055370     extractSurfCore.obj
 0002:0000a378       $unwind$??_G?$big_any_policy@Uempty_any@anyimpl@cvflann@@@anyimpl@cvflann@@UEAAPEAXI@Z 0000000180055378     extractSurfCore.obj
 0002:0000a380       $unwind$??$?0VMWSURF@cv@@@?$Ptr@VMWSURF@cv@@@cv@@QEAA@PEAVMWSURF@1@@Z 0000000180055380     extractSurfCore.obj
 0002:0000a390       $stateUnwindMap$??$?0VMWSURF@cv@@@?$Ptr@VMWSURF@cv@@@cv@@QEAA@PEAVMWSURF@1@@Z 0000000180055390     extractSurfCore.obj
 0002:0000a398       $ip2state$??$?0VMWSURF@cv@@@?$Ptr@VMWSURF@cv@@@cv@@QEAA@PEAVMWSURF@1@@Z 0000000180055398     extractSurfCore.obj
 0002:0000a3b0       $unwind$?dtor$0@?0???$?0VMWSURF@cv@@@?$Ptr@VMWSURF@cv@@@cv@@QEAA@PEAVMWSURF@1@@Z@4HA 00000001800553b0     extractSurfCore.obj
 0002:0000a3b8       $unwind$??$copyToArray_RowMaj@M@@YAXPEAM0HH@Z 00000001800553b8     extractSurfCore.obj
 0002:0000a3c0       $unwind$??$copyToArrayBGR_RowMaj@M@@YAXPEAM0HHH@Z 00000001800553c0     extractSurfCore.obj
 0002:0000a3c8       $unwind$??$_Emplace_back_with_unused_capacity@AEBVKeyPoint@cv@@@?$vector@VKeyPoint@cv@@V?$allocator@VKeyPoint@cv@@@std@@@std@@AEAAXAEBVKeyPoint@cv@@@Z 00000001800553c8     extractSurfCore.obj
 0002:0000a3d0       $unwind$??$construct@VKeyPoint@cv@@AEBV12@@?$_Wrap_alloc@V?$allocator@VKeyPoint@cv@@@std@@@std@@QEAAXPEAVKeyPoint@cv@@AEBV23@@Z 00000001800553d0     extractSurfCore.obj
 0002:0000a3d8       $unwind$??$destroy@VKeyPoint@cv@@@?$_Wrap_alloc@V?$allocator@VKeyPoint@cv@@@std@@@std@@QEAAXPEAVKeyPoint@cv@@@Z 00000001800553d8     extractSurfCore.obj
 0002:0000a3e0       $unwind$??$?0U?$_Wrap_alloc@V?$allocator@VKeyPoint@cv@@@std@@@std@@$$V@?$_Compressed_pair@U?$_Wrap_alloc@V?$allocator@VKeyPoint@cv@@@std@@@std@@V?$_Vector_val@U?$_Simple_types@VKeyPoint@cv@@@std@@@2@$00@std@@QEAA@U_One_then_variadic_args_t@1@$$QEAU?$_Wrap_alloc@V?$allocator@VKeyPoint@cv@@@std@@@1@@Z 00000001800553e0     extractSurfCore.obj
 0002:0000a3e8       $unwind$??$_Uninitialized_copy@PEAVKeyPoint@cv@@PEAV12@V?$allocator@VKeyPoint@cv@@@std@@@std@@YAPEAVKeyPoint@cv@@PEAV12@00AEAU?$_Wrap_alloc@V?$allocator@VKeyPoint@cv@@@std@@@0@@Z 00000001800553e8     extractSurfCore.obj
 0002:0000a3f0       $unwind$??__E?policy@?$SinglePolicy@Uempty_any@anyimpl@cvflann@@@anyimpl@cvflann@@0U?$big_any_policy@Uempty_any@anyimpl@cvflann@@@23@A@@YAXXZ 00000001800553f0     extractSurfCore.obj
 0002:0000a3f8       $unwind$??__F?policy@?$SinglePolicy@Uempty_any@anyimpl@cvflann@@@anyimpl@cvflann@@0U?$big_any_policy@Uempty_any@anyimpl@cvflann@@@23@A@@YAXXZ 00000001800553f8     extractSurfCore.obj
 0002:0000a400       $unwind$??0?$typed_base_any_policy@PEBD@anyimpl@cvflann@@QEAA@XZ 0000000180055400     extractSurfCore.obj
 0002:0000a408       $unwind$??1?$typed_base_any_policy@PEBD@anyimpl@cvflann@@UEAA@XZ 0000000180055408     extractSurfCore.obj
 0002:0000a410       $unwind$??_G?$typed_base_any_policy@PEBD@anyimpl@cvflann@@UEAAPEAXI@Z 0000000180055410     extractSurfCore.obj
 0002:0000a418       $unwind$?copy_from_value@?$small_any_policy@PEBD@anyimpl@cvflann@@UEAAXPEBXPEAPEAX@Z 0000000180055418     extractSurfCore.obj
 0002:0000a420       $unwind$?print@?$small_any_policy@PEBD@anyimpl@cvflann@@UEAAXAEAV?$basic_ostream@DU?$char_traits@D@std@@@std@@PEBQEAX@Z 0000000180055420     extractSurfCore.obj
 0002:0000a428       $unwind$??0?$small_any_policy@PEBD@anyimpl@cvflann@@QEAA@XZ 0000000180055428     extractSurfCore.obj
 0002:0000a430       $unwind$??1?$small_any_policy@PEBD@anyimpl@cvflann@@UEAA@XZ 0000000180055430     extractSurfCore.obj
 0002:0000a438       $unwind$??_G?$small_any_policy@PEBD@anyimpl@cvflann@@UEAAPEAXI@Z 0000000180055438     extractSurfCore.obj
 0002:0000a440       $unwind$??0?$PtrOwnerImpl@VMWSURF@cv@@U?$DefaultDeleter@VMWSURF@cv@@@2@@detail@cv@@QEAA@PEAVMWSURF@2@U?$DefaultDeleter@VMWSURF@cv@@@2@@Z 0000000180055440     extractSurfCore.obj
 0002:0000a448       $unwind$?deleteSelf@?$PtrOwnerImpl@VMWSURF@cv@@U?$DefaultDeleter@VMWSURF@cv@@@2@@detail@cv@@UEAAXXZ 0000000180055448     extractSurfCore.obj
 0002:0000a450       $unwind$??R?$DefaultDeleter@VMWSURF@cv@@@cv@@QEBAXPEAVMWSURF@1@@Z 0000000180055450     extractSurfCore.obj
 0002:0000a458       $unwind$??1?$PtrOwnerImpl@VMWSURF@cv@@U?$DefaultDeleter@VMWSURF@cv@@@2@@detail@cv@@UEAA@XZ 0000000180055458     extractSurfCore.obj
 0002:0000a460       $unwind$??_G?$PtrOwnerImpl@VMWSURF@cv@@U?$DefaultDeleter@VMWSURF@cv@@@2@@detail@cv@@UEAAPEAXI@Z 0000000180055460     extractSurfCore.obj
 0002:0000a468       $unwind$??$construct@VKeyPoint@cv@@AEBV12@@?$allocator_traits@V?$allocator@VKeyPoint@cv@@@std@@@std@@SAXAEAV?$allocator@VKeyPoint@cv@@@1@PEAVKeyPoint@cv@@AEBV34@@Z 0000000180055468     extractSurfCore.obj
 0002:0000a470       $unwind$??$destroy@VKeyPoint@cv@@@?$allocator_traits@V?$allocator@VKeyPoint@cv@@@std@@@std@@SAXAEAV?$allocator@VKeyPoint@cv@@@1@PEAVKeyPoint@cv@@@Z 0000000180055470     extractSurfCore.obj
 0002:0000a478       $unwind$??$_Ptr_copy_cat@VKeyPoint@cv@@V12@@std@@YA?AU_General_ptr_iterator_tag@0@AEBQEAVKeyPoint@cv@@0@Z 0000000180055478     extractSurfCore.obj
 0002:0000a480       $unwind$??$_Uninitialized_copy_al_unchecked@PEAVKeyPoint@cv@@PEAV12@V?$allocator@VKeyPoint@cv@@@std@@@std@@YAPEAVKeyPoint@cv@@PEAV12@00AEAU?$_Wrap_alloc@V?$allocator@VKeyPoint@cv@@@std@@@0@U_General_ptr_iterator_tag@0@U_Any_tag@0@@Z 0000000180055480     extractSurfCore.obj
 0002:0000a490       $stateUnwindMap$??$_Uninitialized_copy_al_unchecked@PEAVKeyPoint@cv@@PEAV12@V?$allocator@VKeyPoint@cv@@@std@@@std@@YAPEAVKeyPoint@cv@@PEAV12@00AEAU?$_Wrap_alloc@V?$allocator@VKeyPoint@cv@@@std@@@0@U_General_ptr_iterator_tag@0@U_Any_tag@0@@Z 0000000180055490     extractSurfCore.obj
 0002:0000a4a0       $tryMap$??$_Uninitialized_copy_al_unchecked@PEAVKeyPoint@cv@@PEAV12@V?$allocator@VKeyPoint@cv@@@std@@@std@@YAPEAVKeyPoint@cv@@PEAV12@00AEAU?$_Wrap_alloc@V?$allocator@VKeyPoint@cv@@@std@@@0@U_General_ptr_iterator_tag@0@U_Any_tag@0@@Z 00000001800554a0     extractSurfCore.obj
 0002:0000a4b4       $handlerMap$0$??$_Uninitialized_copy_al_unchecked@PEAVKeyPoint@cv@@PEAV12@V?$allocator@VKeyPoint@cv@@@std@@@std@@YAPEAVKeyPoint@cv@@PEAV12@00AEAU?$_Wrap_alloc@V?$allocator@VKeyPoint@cv@@@std@@@0@U_General_ptr_iterator_tag@0@U_Any_tag@0@@Z 00000001800554b4     extractSurfCore.obj
 0002:0000a4c8       $ip2state$??$_Uninitialized_copy_al_unchecked@PEAVKeyPoint@cv@@PEAV12@V?$allocator@VKeyPoint@cv@@@std@@@std@@YAPEAVKeyPoint@cv@@PEAV12@00AEAU?$_Wrap_alloc@V?$allocator@VKeyPoint@cv@@@std@@@0@U_General_ptr_iterator_tag@0@U_Any_tag@0@@Z 00000001800554c8     extractSurfCore.obj
 0002:0000a4f8       $unwind$?catch$0@?0???$_Uninitialized_copy_al_unchecked@PEAVKeyPoint@cv@@PEAV12@V?$allocator@VKeyPoint@cv@@@std@@@std@@YAPEAVKeyPoint@cv@@PEAV12@00AEAU?$_Wrap_alloc@V?$allocator@VKeyPoint@cv@@@std@@@0@U_General_ptr_iterator_tag@0@U_Any_tag@0@@Z@4HA 00000001800554f8     extractSurfCore.obj
 0002:0000a508       $unwind$??__E?policy@?$SinglePolicy@PEBD@anyimpl@cvflann@@0U?$small_any_policy@PEBD@23@A@@YAXXZ 0000000180055508     extractSurfCore.obj
 0002:0000a510       $unwind$??__F?policy@?$SinglePolicy@PEBD@anyimpl@cvflann@@0U?$small_any_policy@PEBD@23@A@@YAXXZ 0000000180055510     extractSurfCore.obj
 0002:0000a518       $unwind$??0?$typed_base_any_policy@H@anyimpl@cvflann@@QEAA@XZ 0000000180055518     extractSurfCore.obj
 0002:0000a520       $unwind$??1?$typed_base_any_policy@H@anyimpl@cvflann@@UEAA@XZ 0000000180055520     extractSurfCore.obj
 0002:0000a528       $unwind$??_G?$typed_base_any_policy@H@anyimpl@cvflann@@UEAAPEAXI@Z 0000000180055528     extractSurfCore.obj
 0002:0000a530       $unwind$?copy_from_value@?$small_any_policy@H@anyimpl@cvflann@@UEAAXPEBXPEAPEAX@Z 0000000180055530     extractSurfCore.obj
 0002:0000a538       $unwind$?print@?$small_any_policy@H@anyimpl@cvflann@@UEAAXAEAV?$basic_ostream@DU?$char_traits@D@std@@@std@@PEBQEAX@Z 0000000180055538     extractSurfCore.obj
 0002:0000a540       $unwind$??0?$small_any_policy@H@anyimpl@cvflann@@QEAA@XZ 0000000180055540     extractSurfCore.obj
 0002:0000a548       $unwind$??1?$small_any_policy@H@anyimpl@cvflann@@UEAA@XZ 0000000180055548     extractSurfCore.obj
 0002:0000a550       $unwind$??_G?$small_any_policy@H@anyimpl@cvflann@@UEAAPEAXI@Z 0000000180055550     extractSurfCore.obj
 0002:0000a558       $unwind$??0?$typed_base_any_policy@M@anyimpl@cvflann@@QEAA@XZ 0000000180055558     extractSurfCore.obj
 0002:0000a560       $unwind$??1?$typed_base_any_policy@M@anyimpl@cvflann@@UEAA@XZ 0000000180055560     extractSurfCore.obj
 0002:0000a568       $unwind$??_G?$typed_base_any_policy@M@anyimpl@cvflann@@UEAAPEAXI@Z 0000000180055568     extractSurfCore.obj
 0002:0000a570       $unwind$?copy_from_value@?$small_any_policy@M@anyimpl@cvflann@@UEAAXPEBXPEAPEAX@Z 0000000180055570     extractSurfCore.obj
 0002:0000a578       $unwind$?print@?$small_any_policy@M@anyimpl@cvflann@@UEAAXAEAV?$basic_ostream@DU?$char_traits@D@std@@@std@@PEBQEAX@Z 0000000180055578     extractSurfCore.obj
 0002:0000a580       $unwind$??0?$small_any_policy@M@anyimpl@cvflann@@QEAA@XZ 0000000180055580     extractSurfCore.obj
